
Basic_State_Machine_Embedded.elf:     file format elf32-littlearm

Sections:
Idx Name          Size      VMA       LMA       File off  Algn
  0 .isr_vector   00000188  08000000  08000000  00010000  2**0
                  CONTENTS, ALLOC, LOAD, READONLY, DATA
  1 .text         00008234  08000188  08000188  00010188  2**2
                  CONTENTS, ALLOC, LOAD, READONLY, CODE
  2 .rodata       00000114  080083bc  080083bc  000183bc  2**2
                  CONTENTS, ALLOC, LOAD, READONLY, DATA
  3 .ARM.extab    00000000  080084d0  080084d0  000218a8  2**0
                  CONTENTS
  4 .ARM          00000000  080084d0  080084d0  000218a8  2**0
                  CONTENTS
  5 .preinit_array 00000000  080084d0  080084d0  000218a8  2**0
                  CONTENTS, ALLOC, LOAD, DATA
  6 .init_array   00000004  080084d0  080084d0  000184d0  2**2
                  CONTENTS, ALLOC, LOAD, DATA
  7 .fini_array   00000004  080084d4  080084d4  000184d4  2**2
                  CONTENTS, ALLOC, LOAD, DATA
  8 .data         000018a8  20000000  080084d8  00020000  2**2
                  CONTENTS, ALLOC, LOAD, DATA
  9 .bss          00001e54  200018a8  08009d80  000218a8  2**2
                  ALLOC
 10 ._user_heap_stack 00000604  200036fc  08009d80  000236fc  2**0
                  ALLOC
 11 .ARM.attributes 00000030  00000000  00000000  000218a8  2**0
                  CONTENTS, READONLY
 12 .debug_info   00016c2d  00000000  00000000  000218d8  2**0
                  CONTENTS, READONLY, DEBUGGING, OCTETS
 13 .debug_abbrev 0000356e  00000000  00000000  00038505  2**0
                  CONTENTS, READONLY, DEBUGGING, OCTETS
 14 .debug_aranges 000014f8  00000000  00000000  0003ba78  2**3
                  CONTENTS, READONLY, DEBUGGING, OCTETS
 15 .debug_ranges 000013a0  00000000  00000000  0003cf70  2**3
                  CONTENTS, READONLY, DEBUGGING, OCTETS
 16 .debug_macro  0001974e  00000000  00000000  0003e310  2**0
                  CONTENTS, READONLY, DEBUGGING, OCTETS
 17 .debug_line   00019aee  00000000  00000000  00057a5e  2**0
                  CONTENTS, READONLY, DEBUGGING, OCTETS
 18 .debug_str    00094d0b  00000000  00000000  0007154c  2**0
                  CONTENTS, READONLY, DEBUGGING, OCTETS
 19 .comment      00000050  00000000  00000000  00106257  2**0
                  CONTENTS, READONLY
 20 .debug_frame  00005904  00000000  00000000  001062a8  2**2
                  CONTENTS, READONLY, DEBUGGING, OCTETS

Disassembly of section .text:

08000188 <__do_global_dtors_aux>:
 8000188:	b510      	push	{r4, lr}
 800018a:	4c05      	ldr	r4, [pc, #20]	; (80001a0 <__do_global_dtors_aux+0x18>)
 800018c:	7823      	ldrb	r3, [r4, #0]
 800018e:	b933      	cbnz	r3, 800019e <__do_global_dtors_aux+0x16>
 8000190:	4b04      	ldr	r3, [pc, #16]	; (80001a4 <__do_global_dtors_aux+0x1c>)
 8000192:	b113      	cbz	r3, 800019a <__do_global_dtors_aux+0x12>
 8000194:	4804      	ldr	r0, [pc, #16]	; (80001a8 <__do_global_dtors_aux+0x20>)
 8000196:	f3af 8000 	nop.w
 800019a:	2301      	movs	r3, #1
 800019c:	7023      	strb	r3, [r4, #0]
 800019e:	bd10      	pop	{r4, pc}
 80001a0:	200018a8 	.word	0x200018a8
 80001a4:	00000000 	.word	0x00000000
 80001a8:	080083a4 	.word	0x080083a4

080001ac <frame_dummy>:
 80001ac:	b508      	push	{r3, lr}
 80001ae:	4b03      	ldr	r3, [pc, #12]	; (80001bc <frame_dummy+0x10>)
 80001b0:	b11b      	cbz	r3, 80001ba <frame_dummy+0xe>
 80001b2:	4903      	ldr	r1, [pc, #12]	; (80001c0 <frame_dummy+0x14>)
 80001b4:	4803      	ldr	r0, [pc, #12]	; (80001c4 <frame_dummy+0x18>)
 80001b6:	f3af 8000 	nop.w
 80001ba:	bd08      	pop	{r3, pc}
 80001bc:	00000000 	.word	0x00000000
 80001c0:	200018ac 	.word	0x200018ac
 80001c4:	080083a4 	.word	0x080083a4

080001c8 <strcmp>:
 80001c8:	f810 2b01 	ldrb.w	r2, [r0], #1
 80001cc:	f811 3b01 	ldrb.w	r3, [r1], #1
 80001d0:	2a01      	cmp	r2, #1
 80001d2:	bf28      	it	cs
 80001d4:	429a      	cmpcs	r2, r3
 80001d6:	d0f7      	beq.n	80001c8 <strcmp>
 80001d8:	1ad0      	subs	r0, r2, r3
 80001da:	4770      	bx	lr

080001dc <strlen>:
 80001dc:	4603      	mov	r3, r0
 80001de:	f813 2b01 	ldrb.w	r2, [r3], #1
 80001e2:	2a00      	cmp	r2, #0
 80001e4:	d1fb      	bne.n	80001de <strlen+0x2>
 80001e6:	1a18      	subs	r0, r3, r0
 80001e8:	3801      	subs	r0, #1
 80001ea:	4770      	bx	lr

080001ec <Manual_delay>:
 					Entry_flag;

 uint8_t Receive_Buffer[255];

void Manual_delay(void)
{
 80001ec:	b480      	push	{r7}
 80001ee:	b083      	sub	sp, #12
 80001f0:	af00      	add	r7, sp, #0
	for(int i=0;i<=500;i++)
 80001f2:	2300      	movs	r3, #0
 80001f4:	607b      	str	r3, [r7, #4]
 80001f6:	e002      	b.n	80001fe <Manual_delay+0x12>
 80001f8:	687b      	ldr	r3, [r7, #4]
 80001fa:	3301      	adds	r3, #1
 80001fc:	607b      	str	r3, [r7, #4]
 80001fe:	687b      	ldr	r3, [r7, #4]
 8000200:	f5b3 7ffa 	cmp.w	r3, #500	; 0x1f4
 8000204:	ddf8      	ble.n	80001f8 <Manual_delay+0xc>
	{

	}
}
 8000206:	bf00      	nop
 8000208:	bf00      	nop
 800020a:	370c      	adds	r7, #12
 800020c:	46bd      	mov	sp, r7
 800020e:	f85d 7b04 	ldr.w	r7, [sp], #4
 8000212:	4770      	bx	lr

08000214 <Lan_Interrupt_Service>:

void Lan_Interrupt_Service(void)
{
 8000214:	b580      	push	{r7, lr}
 8000216:	af00      	add	r7, sp, #0
	if(getSn_IR(0) & (1 << 2))
 8000218:	f44f 7002 	mov.w	r0, #520	; 0x208
 800021c:	f002 fc60 	bl	8002ae0 <WIZCHIP_READ>
 8000220:	4603      	mov	r3, r0
 8000222:	f003 0304 	and.w	r3, r3, #4
 8000226:	2b00      	cmp	r3, #0
 8000228:	d00f      	beq.n	800024a <Lan_Interrupt_Service+0x36>
	{
		recv(0,Receive_Buffer,255);
 800022a:	22ff      	movs	r2, #255	; 0xff
 800022c:	4913      	ldr	r1, [pc, #76]	; (800027c <Lan_Interrupt_Service+0x68>)
 800022e:	2000      	movs	r0, #0
 8000230:	f001 fe78 	bl	8001f24 <recv>
//		if(Receive_Buffer==PING_ACK_CMD)
//		{
//			//Set State Idle State
//		}

		memset(Receive_Buffer,0,sizeof Receive_Buffer);// clear the receiving buffer
 8000234:	22ff      	movs	r2, #255	; 0xff
 8000236:	2100      	movs	r1, #0
 8000238:	4810      	ldr	r0, [pc, #64]	; (800027c <Lan_Interrupt_Service+0x68>)
 800023a:	f007 ff5b 	bl	80080f4 <memset>
		setSn_IR(0, 0x04);
 800023e:	2104      	movs	r1, #4
 8000240:	f44f 7002 	mov.w	r0, #520	; 0x208
 8000244:	f002 fc98 	bl	8002b78 <WIZCHIP_WRITE>

	else
	{
		setSn_IR(0, 0x1F);/// decimal 31 .. for more info check W5500 datasheet, Page 48
	}
}
 8000248:	e015      	b.n	8000276 <Lan_Interrupt_Service+0x62>
	else if(getSn_IR(0) & (1 << 1))
 800024a:	f44f 7002 	mov.w	r0, #520	; 0x208
 800024e:	f002 fc47 	bl	8002ae0 <WIZCHIP_READ>
 8000252:	4603      	mov	r3, r0
 8000254:	f003 0302 	and.w	r3, r3, #2
 8000258:	2b00      	cmp	r3, #0
 800025a:	d007      	beq.n	800026c <Lan_Interrupt_Service+0x58>
		Ethernet_Connect();
 800025c:	f000 fba2 	bl	80009a4 <Ethernet_Connect>
		setSn_IR(0, 0x02);
 8000260:	2102      	movs	r1, #2
 8000262:	f44f 7002 	mov.w	r0, #520	; 0x208
 8000266:	f002 fc87 	bl	8002b78 <WIZCHIP_WRITE>
}
 800026a:	e004      	b.n	8000276 <Lan_Interrupt_Service+0x62>
		setSn_IR(0, 0x1F);/// decimal 31 .. for more info check W5500 datasheet, Page 48
 800026c:	211f      	movs	r1, #31
 800026e:	f44f 7002 	mov.w	r0, #520	; 0x208
 8000272:	f002 fc81 	bl	8002b78 <WIZCHIP_WRITE>
}
 8000276:	bf00      	nop
 8000278:	bd80      	pop	{r7, pc}
 800027a:	bf00      	nop
 800027c:	200018e4 	.word	0x200018e4

08000280 <WR_Interrupt_Service>:

void WR_Interrupt_Service(void)
{
 8000280:	b580      	push	{r7, lr}
 8000282:	af00      	add	r7, sp, #0
	HAL_GPIO_WritePin(GPIOA,WR_TRIG_LED_Pin,GPIO_PIN_SET);
 8000284:	2201      	movs	r2, #1
 8000286:	f44f 5180 	mov.w	r1, #4096	; 0x1000
 800028a:	f04f 4090 	mov.w	r0, #1207959552	; 0x48000000
 800028e:	f003 feef 	bl	8004070 <HAL_GPIO_WritePin>
	Manual_delay();
 8000292:	f7ff ffab 	bl	80001ec <Manual_delay>
	HAL_GPIO_WritePin(GPIOA,WR_TRIG_LED_Pin,GPIO_PIN_RESET);
 8000296:	2200      	movs	r2, #0
 8000298:	f44f 5180 	mov.w	r1, #4096	; 0x1000
 800029c:	f04f 4090 	mov.w	r0, #1207959552	; 0x48000000
 80002a0:	f003 fee6 	bl	8004070 <HAL_GPIO_WritePin>
	WR_Counts++;
 80002a4:	4b27      	ldr	r3, [pc, #156]	; (8000344 <WR_Interrupt_Service+0xc4>)
 80002a6:	681b      	ldr	r3, [r3, #0]
 80002a8:	3301      	adds	r3, #1
 80002aa:	4a26      	ldr	r2, [pc, #152]	; (8000344 <WR_Interrupt_Service+0xc4>)
 80002ac:	6013      	str	r3, [r2, #0]
	if(Lt_Rt_flag==0)
 80002ae:	4b26      	ldr	r3, [pc, #152]	; (8000348 <WR_Interrupt_Service+0xc8>)
 80002b0:	881b      	ldrh	r3, [r3, #0]
 80002b2:	2b00      	cmp	r3, #0
 80002b4:	d126      	bne.n	8000304 <WR_Interrupt_Service+0x84>
	{
		switch(WR_Counts)
 80002b6:	4b23      	ldr	r3, [pc, #140]	; (8000344 <WR_Interrupt_Service+0xc4>)
 80002b8:	681b      	ldr	r3, [r3, #0]
 80002ba:	2b01      	cmp	r3, #1
 80002bc:	d002      	beq.n	80002c4 <WR_Interrupt_Service+0x44>
 80002be:	2b02      	cmp	r3, #2
 80002c0:	d012      	beq.n	80002e8 <WR_Interrupt_Service+0x68>
 80002c2:	e020      	b.n	8000306 <WR_Interrupt_Service+0x86>
		{
		case(1):
				send(0, (uint8_t *)INIT_CMD,strlen(INIT_CMD));
 80002c4:	2206      	movs	r2, #6
 80002c6:	4921      	ldr	r1, [pc, #132]	; (800034c <WR_Interrupt_Service+0xcc>)
 80002c8:	2000      	movs	r0, #0
 80002ca:	f001 fd31 	bl	8001d30 <send>
		        Timer2_Start();
 80002ce:	f000 fc2d 	bl	8000b2c <Timer2_Start>
				WR_Instant=Timer2_GetTimer();
 80002d2:	f000 fc79 	bl	8000bc8 <Timer2_GetTimer>
 80002d6:	4603      	mov	r3, r0
 80002d8:	461a      	mov	r2, r3
 80002da:	4b1d      	ldr	r3, [pc, #116]	; (8000350 <WR_Interrupt_Service+0xd0>)
 80002dc:	601a      	str	r2, [r3, #0]
				RingWriteElement(&WR_Ring,&WR_Instant);
 80002de:	491c      	ldr	r1, [pc, #112]	; (8000350 <WR_Interrupt_Service+0xd0>)
 80002e0:	481c      	ldr	r0, [pc, #112]	; (8000354 <WR_Interrupt_Service+0xd4>)
 80002e2:	f001 fa31 	bl	8001748 <RingWriteElement>
				break;
 80002e6:	e00e      	b.n	8000306 <WR_Interrupt_Service+0x86>
		case(2):
				send(0, (uint8_t *)GRAB_START_CMD,strlen(GRAB_START_CMD));
 80002e8:	220b      	movs	r2, #11
 80002ea:	491b      	ldr	r1, [pc, #108]	; (8000358 <WR_Interrupt_Service+0xd8>)
 80002ec:	2000      	movs	r0, #0
 80002ee:	f001 fd1f 	bl	8001d30 <send>
				Entry_flag=1;
 80002f2:	4b1a      	ldr	r3, [pc, #104]	; (800035c <WR_Interrupt_Service+0xdc>)
 80002f4:	2201      	movs	r2, #1
 80002f6:	801a      	strh	r2, [r3, #0]
				Rt_Lt_flag=1;
 80002f8:	4b19      	ldr	r3, [pc, #100]	; (8000360 <WR_Interrupt_Service+0xe0>)
 80002fa:	2201      	movs	r2, #1
 80002fc:	801a      	strh	r2, [r3, #0]
				Timer6_Start();
 80002fe:	f000 fc1f 	bl	8000b40 <Timer6_Start>
				break;
 8000302:	e000      	b.n	8000306 <WR_Interrupt_Service+0x86>
		}
	}
 8000304:	bf00      	nop

	if(Entry_flag==1)
 8000306:	4b15      	ldr	r3, [pc, #84]	; (800035c <WR_Interrupt_Service+0xdc>)
 8000308:	881b      	ldrh	r3, [r3, #0]
 800030a:	2b01      	cmp	r3, #1
 800030c:	d109      	bne.n	8000322 <WR_Interrupt_Service+0xa2>
	{
		WR_Instant=Timer2_GetTimer();
 800030e:	f000 fc5b 	bl	8000bc8 <Timer2_GetTimer>
 8000312:	4603      	mov	r3, r0
 8000314:	461a      	mov	r2, r3
 8000316:	4b0e      	ldr	r3, [pc, #56]	; (8000350 <WR_Interrupt_Service+0xd0>)
 8000318:	601a      	str	r2, [r3, #0]
		RingWriteElement(&WR_Ring,&WR_Instant);
 800031a:	490d      	ldr	r1, [pc, #52]	; (8000350 <WR_Interrupt_Service+0xd0>)
 800031c:	480d      	ldr	r0, [pc, #52]	; (8000354 <WR_Interrupt_Service+0xd4>)
 800031e:	f001 fa13 	bl	8001748 <RingWriteElement>
	}

	if(count<=TIMEOOUTPERIOD  || WR_Counts>=2 )
 8000322:	4b10      	ldr	r3, [pc, #64]	; (8000364 <WR_Interrupt_Service+0xe4>)
 8000324:	681b      	ldr	r3, [r3, #0]
 8000326:	2b14      	cmp	r3, #20
 8000328:	d903      	bls.n	8000332 <WR_Interrupt_Service+0xb2>
 800032a:	4b06      	ldr	r3, [pc, #24]	; (8000344 <WR_Interrupt_Service+0xc4>)
 800032c:	681b      	ldr	r3, [r3, #0]
 800032e:	2b01      	cmp	r3, #1
 8000330:	d906      	bls.n	8000340 <WR_Interrupt_Service+0xc0>
	{
		Timer6_Stop();
 8000332:	f000 fc0f 	bl	8000b54 <Timer6_Stop>
		count=0;
 8000336:	4b0b      	ldr	r3, [pc, #44]	; (8000364 <WR_Interrupt_Service+0xe4>)
 8000338:	2200      	movs	r2, #0
 800033a:	601a      	str	r2, [r3, #0]
		Timer6_Start();
 800033c:	f000 fc00 	bl	8000b40 <Timer6_Start>
	}
}
 8000340:	bf00      	nop
 8000342:	bd80      	pop	{r7, pc}
 8000344:	200018c4 	.word	0x200018c4
 8000348:	200018dc 	.word	0x200018dc
 800034c:	080083bc 	.word	0x080083bc
 8000350:	200018d0 	.word	0x200018d0
 8000354:	20002e7c 	.word	0x20002e7c
 8000358:	080083c4 	.word	0x080083c4
 800035c:	200018e0 	.word	0x200018e0
 8000360:	200018de 	.word	0x200018de
 8000364:	20001ce8 	.word	0x20001ce8

08000368 <FCT_Interrupt_Service>:


void FCT_Interrupt_Service(void)
{
 8000368:	b580      	push	{r7, lr}
 800036a:	af00      	add	r7, sp, #0
	HAL_GPIO_WritePin(GPIOC,FCT_TRIG_LED_Pin,GPIO_PIN_SET);
 800036c:	2201      	movs	r2, #1
 800036e:	f44f 5100 	mov.w	r1, #8192	; 0x2000
 8000372:	4849      	ldr	r0, [pc, #292]	; (8000498 <FCT_Interrupt_Service+0x130>)
 8000374:	f003 fe7c 	bl	8004070 <HAL_GPIO_WritePin>
	Manual_delay();
 8000378:	f7ff ff38 	bl	80001ec <Manual_delay>
	HAL_GPIO_WritePin(GPIOC,FCT_TRIG_LED_Pin,GPIO_PIN_RESET);
 800037c:	2200      	movs	r2, #0
 800037e:	f44f 5100 	mov.w	r1, #8192	; 0x2000
 8000382:	4845      	ldr	r0, [pc, #276]	; (8000498 <FCT_Interrupt_Service+0x130>)
 8000384:	f003 fe74 	bl	8004070 <HAL_GPIO_WritePin>
	FCT_Counts++;
 8000388:	4b44      	ldr	r3, [pc, #272]	; (800049c <FCT_Interrupt_Service+0x134>)
 800038a:	681b      	ldr	r3, [r3, #0]
 800038c:	3301      	adds	r3, #1
 800038e:	4a43      	ldr	r2, [pc, #268]	; (800049c <FCT_Interrupt_Service+0x134>)
 8000390:	6013      	str	r3, [r2, #0]
	if(Lt_Rt_flag==1)
 8000392:	4b43      	ldr	r3, [pc, #268]	; (80004a0 <FCT_Interrupt_Service+0x138>)
 8000394:	881b      	ldrh	r3, [r3, #0]
 8000396:	2b01      	cmp	r3, #1
 8000398:	d10a      	bne.n	80003b0 <FCT_Interrupt_Service+0x48>
	{
		FCT_Instant=Timer2_GetTimer();
 800039a:	f000 fc15 	bl	8000bc8 <Timer2_GetTimer>
 800039e:	4603      	mov	r3, r0
 80003a0:	461a      	mov	r2, r3
 80003a2:	4b40      	ldr	r3, [pc, #256]	; (80004a4 <FCT_Interrupt_Service+0x13c>)
 80003a4:	601a      	str	r2, [r3, #0]
		RingWriteElement(&FCT_Ring,&FCT_Instant);
 80003a6:	493f      	ldr	r1, [pc, #252]	; (80004a4 <FCT_Interrupt_Service+0x13c>)
 80003a8:	483f      	ldr	r0, [pc, #252]	; (80004a8 <FCT_Interrupt_Service+0x140>)
 80003aa:	f001 f9cd 	bl	8001748 <RingWriteElement>
 80003ae:	e061      	b.n	8000474 <FCT_Interrupt_Service+0x10c>
	}
	else if(Rt_Lt_flag==1)
 80003b0:	4b3e      	ldr	r3, [pc, #248]	; (80004ac <FCT_Interrupt_Service+0x144>)
 80003b2:	881b      	ldrh	r3, [r3, #0]
 80003b4:	2b01      	cmp	r3, #1
 80003b6:	d15d      	bne.n	8000474 <FCT_Interrupt_Service+0x10c>
	{
		FCT_Instant=Timer2_GetTimer();
 80003b8:	f000 fc06 	bl	8000bc8 <Timer2_GetTimer>
 80003bc:	4603      	mov	r3, r0
 80003be:	461a      	mov	r2, r3
 80003c0:	4b38      	ldr	r3, [pc, #224]	; (80004a4 <FCT_Interrupt_Service+0x13c>)
 80003c2:	601a      	str	r2, [r3, #0]
		RingWriteElement(&FCT_Ring,&FCT_Instant);
 80003c4:	4937      	ldr	r1, [pc, #220]	; (80004a4 <FCT_Interrupt_Service+0x13c>)
 80003c6:	4838      	ldr	r0, [pc, #224]	; (80004a8 <FCT_Interrupt_Service+0x140>)
 80003c8:	f001 f9be 	bl	8001748 <RingWriteElement>

		//HAL_GPIO_WritePin(GPIOA,CA_TRIG_LED_Pin,GPIO_PIN_RESET);//test
		//Laser ON
		HAL_GPIO_WritePin(GPIOA,LA_TRIG_LED_Pin,GPIO_PIN_SET);
 80003cc:	2201      	movs	r2, #1
 80003ce:	2110      	movs	r1, #16
 80003d0:	f04f 4090 	mov.w	r0, #1207959552	; 0x48000000
 80003d4:	f003 fe4c 	bl	8004070 <HAL_GPIO_WritePin>
		HAL_GPIO_WritePin(GPIOB,LA_OP_Pin,GPIO_PIN_RESET);
 80003d8:	2200      	movs	r2, #0
 80003da:	f44f 7100 	mov.w	r1, #512	; 0x200
 80003de:	4834      	ldr	r0, [pc, #208]	; (80004b0 <FCT_Interrupt_Service+0x148>)
 80003e0:	f003 fe46 	bl	8004070 <HAL_GPIO_WritePin>
		HAL_GPIO_WritePin(GPIOA,LA_OP1_Pin,GPIO_PIN_RESET);
 80003e4:	2200      	movs	r2, #0
 80003e6:	f44f 7100 	mov.w	r1, #512	; 0x200
 80003ea:	f04f 4090 	mov.w	r0, #1207959552	; 0x48000000
 80003ee:	f003 fe3f 	bl	8004070 <HAL_GPIO_WritePin>
		Manual_delay();
 80003f2:	f7ff fefb 	bl	80001ec <Manual_delay>

		//Camera ON
		HAL_GPIO_WritePin(GPIOA,CA_TRIG_LED_Pin,GPIO_PIN_SET);
 80003f6:	2201      	movs	r2, #1
 80003f8:	2180      	movs	r1, #128	; 0x80
 80003fa:	f04f 4090 	mov.w	r0, #1207959552	; 0x48000000
 80003fe:	f003 fe37 	bl	8004070 <HAL_GPIO_WritePin>
		HAL_GPIO_WritePin(GPIOB,CA_OP_Pin,GPIO_PIN_SET);
 8000402:	2201      	movs	r2, #1
 8000404:	f44f 7180 	mov.w	r1, #256	; 0x100
 8000408:	4829      	ldr	r0, [pc, #164]	; (80004b0 <FCT_Interrupt_Service+0x148>)
 800040a:	f003 fe31 	bl	8004070 <HAL_GPIO_WritePin>
		HAL_GPIO_WritePin(GPIOA,CA_OP1_Pin,GPIO_PIN_SET);
 800040e:	2201      	movs	r2, #1
 8000410:	f44f 7180 	mov.w	r1, #256	; 0x100
 8000414:	f04f 4090 	mov.w	r0, #1207959552	; 0x48000000
 8000418:	f003 fe2a 	bl	8004070 <HAL_GPIO_WritePin>
		//HAL_Delay(200);

		//Camera OFF
		Manual_delay();
 800041c:	f7ff fee6 	bl	80001ec <Manual_delay>
		Manual_delay();
 8000420:	f7ff fee4 	bl	80001ec <Manual_delay>
		HAL_GPIO_WritePin(GPIOA,CA_TRIG_LED_Pin,GPIO_PIN_RESET);
 8000424:	2200      	movs	r2, #0
 8000426:	2180      	movs	r1, #128	; 0x80
 8000428:	f04f 4090 	mov.w	r0, #1207959552	; 0x48000000
 800042c:	f003 fe20 	bl	8004070 <HAL_GPIO_WritePin>
		HAL_GPIO_WritePin(GPIOB,CA_OP_Pin,GPIO_PIN_RESET);
 8000430:	2200      	movs	r2, #0
 8000432:	f44f 7180 	mov.w	r1, #256	; 0x100
 8000436:	481e      	ldr	r0, [pc, #120]	; (80004b0 <FCT_Interrupt_Service+0x148>)
 8000438:	f003 fe1a 	bl	8004070 <HAL_GPIO_WritePin>
		HAL_GPIO_WritePin(GPIOA,CA_OP1_Pin,GPIO_PIN_RESET);
 800043c:	2200      	movs	r2, #0
 800043e:	f44f 7180 	mov.w	r1, #256	; 0x100
 8000442:	f04f 4090 	mov.w	r0, #1207959552	; 0x48000000
 8000446:	f003 fe13 	bl	8004070 <HAL_GPIO_WritePin>
		Manual_delay();
 800044a:	f7ff fecf 	bl	80001ec <Manual_delay>

		//Laser OFF
		HAL_GPIO_WritePin(GPIOA,LA_TRIG_LED_Pin,GPIO_PIN_RESET);
 800044e:	2200      	movs	r2, #0
 8000450:	2110      	movs	r1, #16
 8000452:	f04f 4090 	mov.w	r0, #1207959552	; 0x48000000
 8000456:	f003 fe0b 	bl	8004070 <HAL_GPIO_WritePin>
		HAL_GPIO_WritePin(GPIOB,LA_OP_Pin,GPIO_PIN_SET);
 800045a:	2201      	movs	r2, #1
 800045c:	f44f 7100 	mov.w	r1, #512	; 0x200
 8000460:	4813      	ldr	r0, [pc, #76]	; (80004b0 <FCT_Interrupt_Service+0x148>)
 8000462:	f003 fe05 	bl	8004070 <HAL_GPIO_WritePin>
		HAL_GPIO_WritePin(GPIOA,LA_OP1_Pin,GPIO_PIN_SET);
 8000466:	2201      	movs	r2, #1
 8000468:	f44f 7100 	mov.w	r1, #512	; 0x200
 800046c:	f04f 4090 	mov.w	r0, #1207959552	; 0x48000000
 8000470:	f003 fdfe 	bl	8004070 <HAL_GPIO_WritePin>
	}

	if(count<=TIMEOOUTPERIOD  || FCT_Counts>=2 )
 8000474:	4b0f      	ldr	r3, [pc, #60]	; (80004b4 <FCT_Interrupt_Service+0x14c>)
 8000476:	681b      	ldr	r3, [r3, #0]
 8000478:	2b14      	cmp	r3, #20
 800047a:	d903      	bls.n	8000484 <FCT_Interrupt_Service+0x11c>
 800047c:	4b07      	ldr	r3, [pc, #28]	; (800049c <FCT_Interrupt_Service+0x134>)
 800047e:	681b      	ldr	r3, [r3, #0]
 8000480:	2b01      	cmp	r3, #1
 8000482:	d906      	bls.n	8000492 <FCT_Interrupt_Service+0x12a>
	{
		Timer6_Stop();
 8000484:	f000 fb66 	bl	8000b54 <Timer6_Stop>
		count=0;
 8000488:	4b0a      	ldr	r3, [pc, #40]	; (80004b4 <FCT_Interrupt_Service+0x14c>)
 800048a:	2200      	movs	r2, #0
 800048c:	601a      	str	r2, [r3, #0]
		Timer6_Start();
 800048e:	f000 fb57 	bl	8000b40 <Timer6_Start>
	}

}
 8000492:	bf00      	nop
 8000494:	bd80      	pop	{r7, pc}
 8000496:	bf00      	nop
 8000498:	48000800 	.word	0x48000800
 800049c:	200018c8 	.word	0x200018c8
 80004a0:	200018dc 	.word	0x200018dc
 80004a4:	200018d8 	.word	0x200018d8
 80004a8:	20002e9c 	.word	0x20002e9c
 80004ac:	200018de 	.word	0x200018de
 80004b0:	48000400 	.word	0x48000400
 80004b4:	20001ce8 	.word	0x20001ce8

080004b8 <WL_Interrupt_Service>:

void WL_Interrupt_Service(void)
{
 80004b8:	b580      	push	{r7, lr}
 80004ba:	af00      	add	r7, sp, #0
	HAL_GPIO_WritePin(GPIOB,WL_TRIG_LED_Pin,GPIO_PIN_SET);
 80004bc:	2201      	movs	r2, #1
 80004be:	f44f 4100 	mov.w	r1, #32768	; 0x8000
 80004c2:	482d      	ldr	r0, [pc, #180]	; (8000578 <WL_Interrupt_Service+0xc0>)
 80004c4:	f003 fdd4 	bl	8004070 <HAL_GPIO_WritePin>
	Manual_delay();
 80004c8:	f7ff fe90 	bl	80001ec <Manual_delay>
	HAL_GPIO_WritePin(GPIOB,WL_TRIG_LED_Pin,GPIO_PIN_RESET);
 80004cc:	2200      	movs	r2, #0
 80004ce:	f44f 4100 	mov.w	r1, #32768	; 0x8000
 80004d2:	4829      	ldr	r0, [pc, #164]	; (8000578 <WL_Interrupt_Service+0xc0>)
 80004d4:	f003 fdcc 	bl	8004070 <HAL_GPIO_WritePin>
	WL_Counts++;
 80004d8:	4b28      	ldr	r3, [pc, #160]	; (800057c <WL_Interrupt_Service+0xc4>)
 80004da:	681b      	ldr	r3, [r3, #0]
 80004dc:	3301      	adds	r3, #1
 80004de:	4a27      	ldr	r2, [pc, #156]	; (800057c <WL_Interrupt_Service+0xc4>)
 80004e0:	6013      	str	r3, [r2, #0]
	if(Rt_Lt_flag==0)
 80004e2:	4b27      	ldr	r3, [pc, #156]	; (8000580 <WL_Interrupt_Service+0xc8>)
 80004e4:	881b      	ldrh	r3, [r3, #0]
 80004e6:	2b00      	cmp	r3, #0
 80004e8:	d126      	bne.n	8000538 <WL_Interrupt_Service+0x80>
	{
		switch(WL_Counts)
 80004ea:	4b24      	ldr	r3, [pc, #144]	; (800057c <WL_Interrupt_Service+0xc4>)
 80004ec:	681b      	ldr	r3, [r3, #0]
 80004ee:	2b01      	cmp	r3, #1
 80004f0:	d002      	beq.n	80004f8 <WL_Interrupt_Service+0x40>
 80004f2:	2b02      	cmp	r3, #2
 80004f4:	d012      	beq.n	800051c <WL_Interrupt_Service+0x64>
 80004f6:	e020      	b.n	800053a <WL_Interrupt_Service+0x82>
		{
		case(1):
				send(0, (uint8_t *)INIT_CMD,strlen(INIT_CMD));
 80004f8:	2206      	movs	r2, #6
 80004fa:	4922      	ldr	r1, [pc, #136]	; (8000584 <WL_Interrupt_Service+0xcc>)
 80004fc:	2000      	movs	r0, #0
 80004fe:	f001 fc17 	bl	8001d30 <send>
				Timer2_Start();
 8000502:	f000 fb13 	bl	8000b2c <Timer2_Start>
				WL_Instant=Timer2_GetTimer();
 8000506:	f000 fb5f 	bl	8000bc8 <Timer2_GetTimer>
 800050a:	4603      	mov	r3, r0
 800050c:	461a      	mov	r2, r3
 800050e:	4b1e      	ldr	r3, [pc, #120]	; (8000588 <WL_Interrupt_Service+0xd0>)
 8000510:	601a      	str	r2, [r3, #0]
				RingWriteElement(&WL_Ring,&WL_Instant);
 8000512:	491d      	ldr	r1, [pc, #116]	; (8000588 <WL_Interrupt_Service+0xd0>)
 8000514:	481d      	ldr	r0, [pc, #116]	; (800058c <WL_Interrupt_Service+0xd4>)
 8000516:	f001 f917 	bl	8001748 <RingWriteElement>
				break;
 800051a:	e00e      	b.n	800053a <WL_Interrupt_Service+0x82>

		case(2):
				send(0, (uint8_t *)GRAB_START_CMD,strlen(GRAB_START_CMD));
 800051c:	220b      	movs	r2, #11
 800051e:	491c      	ldr	r1, [pc, #112]	; (8000590 <WL_Interrupt_Service+0xd8>)
 8000520:	2000      	movs	r0, #0
 8000522:	f001 fc05 	bl	8001d30 <send>
				Entry_flag=1;
 8000526:	4b1b      	ldr	r3, [pc, #108]	; (8000594 <WL_Interrupt_Service+0xdc>)
 8000528:	2201      	movs	r2, #1
 800052a:	801a      	strh	r2, [r3, #0]
				Lt_Rt_flag=1;
 800052c:	4b1a      	ldr	r3, [pc, #104]	; (8000598 <WL_Interrupt_Service+0xe0>)
 800052e:	2201      	movs	r2, #1
 8000530:	801a      	strh	r2, [r3, #0]
				Timer6_Start();
 8000532:	f000 fb05 	bl	8000b40 <Timer6_Start>
				break;
 8000536:	e000      	b.n	800053a <WL_Interrupt_Service+0x82>
		}
	}
 8000538:	bf00      	nop

	if(Entry_flag==1)
 800053a:	4b16      	ldr	r3, [pc, #88]	; (8000594 <WL_Interrupt_Service+0xdc>)
 800053c:	881b      	ldrh	r3, [r3, #0]
 800053e:	2b01      	cmp	r3, #1
 8000540:	d109      	bne.n	8000556 <WL_Interrupt_Service+0x9e>
	{
		WL_Instant=Timer2_GetTimer();
 8000542:	f000 fb41 	bl	8000bc8 <Timer2_GetTimer>
 8000546:	4603      	mov	r3, r0
 8000548:	461a      	mov	r2, r3
 800054a:	4b0f      	ldr	r3, [pc, #60]	; (8000588 <WL_Interrupt_Service+0xd0>)
 800054c:	601a      	str	r2, [r3, #0]
		RingWriteElement(&WL_Ring,&WL_Instant);
 800054e:	490e      	ldr	r1, [pc, #56]	; (8000588 <WL_Interrupt_Service+0xd0>)
 8000550:	480e      	ldr	r0, [pc, #56]	; (800058c <WL_Interrupt_Service+0xd4>)
 8000552:	f001 f8f9 	bl	8001748 <RingWriteElement>
	}

	if(count<=TIMEOOUTPERIOD  || WL_Counts>=2 )
 8000556:	4b11      	ldr	r3, [pc, #68]	; (800059c <WL_Interrupt_Service+0xe4>)
 8000558:	681b      	ldr	r3, [r3, #0]
 800055a:	2b14      	cmp	r3, #20
 800055c:	d903      	bls.n	8000566 <WL_Interrupt_Service+0xae>
 800055e:	4b07      	ldr	r3, [pc, #28]	; (800057c <WL_Interrupt_Service+0xc4>)
 8000560:	681b      	ldr	r3, [r3, #0]
 8000562:	2b01      	cmp	r3, #1
 8000564:	d906      	bls.n	8000574 <WL_Interrupt_Service+0xbc>
	{
		Timer6_Stop();
 8000566:	f000 faf5 	bl	8000b54 <Timer6_Stop>
		count=0;
 800056a:	4b0c      	ldr	r3, [pc, #48]	; (800059c <WL_Interrupt_Service+0xe4>)
 800056c:	2200      	movs	r2, #0
 800056e:	601a      	str	r2, [r3, #0]
		Timer6_Start();
 8000570:	f000 fae6 	bl	8000b40 <Timer6_Start>
	}
}
 8000574:	bf00      	nop
 8000576:	bd80      	pop	{r7, pc}
 8000578:	48000400 	.word	0x48000400
 800057c:	200018cc 	.word	0x200018cc
 8000580:	200018de 	.word	0x200018de
 8000584:	080083bc 	.word	0x080083bc
 8000588:	200018d4 	.word	0x200018d4
 800058c:	20002ebc 	.word	0x20002ebc
 8000590:	080083c4 	.word	0x080083c4
 8000594:	200018e0 	.word	0x200018e0
 8000598:	200018dc 	.word	0x200018dc
 800059c:	20001ce8 	.word	0x20001ce8

080005a0 <Send_WR_Samples>:
 buff_size	WR_Ring_Unit,
 			WL_Ring_Unit,
 			FCT_Ring_Unit;

void Send_WR_Samples()
{
 80005a0:	b580      	push	{r7, lr}
 80005a2:	b082      	sub	sp, #8
 80005a4:	af00      	add	r7, sp, #0
	WR_Roller = (BUFFERSIZE-1)-(WR_Ring.place + 1);
 80005a6:	4b27      	ldr	r3, [pc, #156]	; (8000644 <Send_WR_Samples+0xa4>)
 80005a8:	699b      	ldr	r3, [r3, #24]
 80005aa:	b2da      	uxtb	r2, r3
 80005ac:	f06f 0339 	mvn.w	r3, #57	; 0x39
 80005b0:	1a9b      	subs	r3, r3, r2
 80005b2:	b2da      	uxtb	r2, r3
 80005b4:	4b24      	ldr	r3, [pc, #144]	; (8000648 <Send_WR_Samples+0xa8>)
 80005b6:	701a      	strb	r2, [r3, #0]
	for(int Iter=0;Iter<=WR_Roller;Iter++)
 80005b8:	2300      	movs	r3, #0
 80005ba:	607b      	str	r3, [r7, #4]
 80005bc:	e036      	b.n	800062c <Send_WR_Samples+0x8c>
	{
		RingReadElement(&WR_Ring,&WR_Ring_Unit);
 80005be:	4923      	ldr	r1, [pc, #140]	; (800064c <Send_WR_Samples+0xac>)
 80005c0:	4820      	ldr	r0, [pc, #128]	; (8000644 <Send_WR_Samples+0xa4>)
 80005c2:	f001 f911 	bl	80017e8 <RingReadElement>
		itoa(WR_Ring_Unit,WR_Ring_Bulletin,10);
 80005c6:	4b21      	ldr	r3, [pc, #132]	; (800064c <Send_WR_Samples+0xac>)
 80005c8:	681b      	ldr	r3, [r3, #0]
 80005ca:	220a      	movs	r2, #10
 80005cc:	4920      	ldr	r1, [pc, #128]	; (8000650 <Send_WR_Samples+0xb0>)
 80005ce:	4618      	mov	r0, r3
 80005d0:	f007 fd70 	bl	80080b4 <itoa>
		unsigned char* WR_Packet;
		WR_Packet = malloc(strlen(LOG_WRITE_CMD)+strlen(WR_Ring_Bulletin));
 80005d4:	481e      	ldr	r0, [pc, #120]	; (8000650 <Send_WR_Samples+0xb0>)
 80005d6:	f7ff fe01 	bl	80001dc <strlen>
 80005da:	4603      	mov	r3, r0
 80005dc:	3309      	adds	r3, #9
 80005de:	4618      	mov	r0, r3
 80005e0:	f007 fd6a 	bl	80080b8 <malloc>
 80005e4:	4603      	mov	r3, r0
 80005e6:	603b      	str	r3, [r7, #0]
		strcpy(WR_Packet,LOG_WRITE_CMD);
 80005e8:	683b      	ldr	r3, [r7, #0]
 80005ea:	491a      	ldr	r1, [pc, #104]	; (8000654 <Send_WR_Samples+0xb4>)
 80005ec:	461a      	mov	r2, r3
 80005ee:	460b      	mov	r3, r1
 80005f0:	cb03      	ldmia	r3!, {r0, r1}
 80005f2:	6010      	str	r0, [r2, #0]
 80005f4:	6051      	str	r1, [r2, #4]
 80005f6:	881b      	ldrh	r3, [r3, #0]
 80005f8:	8113      	strh	r3, [r2, #8]
		strcat(WR_Packet,WR_Ring_Bulletin);
 80005fa:	4915      	ldr	r1, [pc, #84]	; (8000650 <Send_WR_Samples+0xb0>)
 80005fc:	6838      	ldr	r0, [r7, #0]
 80005fe:	f007 fe71 	bl	80082e4 <strcat>

		send(0, (buff_size *)WR_Packet,strlen(WR_Packet));
 8000602:	6838      	ldr	r0, [r7, #0]
 8000604:	f7ff fdea 	bl	80001dc <strlen>
 8000608:	4603      	mov	r3, r0
 800060a:	b29b      	uxth	r3, r3
 800060c:	461a      	mov	r2, r3
 800060e:	6839      	ldr	r1, [r7, #0]
 8000610:	2000      	movs	r0, #0
 8000612:	f001 fb8d 	bl	8001d30 <send>
		free(WR_Packet);
 8000616:	6838      	ldr	r0, [r7, #0]
 8000618:	f007 fd56 	bl	80080c8 <free>
		WR_Packet=NULL;
 800061c:	2300      	movs	r3, #0
 800061e:	603b      	str	r3, [r7, #0]

		HAL_Delay(100);
 8000620:	2064      	movs	r0, #100	; 0x64
 8000622:	f003 fa4b 	bl	8003abc <HAL_Delay>
	for(int Iter=0;Iter<=WR_Roller;Iter++)
 8000626:	687b      	ldr	r3, [r7, #4]
 8000628:	3301      	adds	r3, #1
 800062a:	607b      	str	r3, [r7, #4]
 800062c:	4b06      	ldr	r3, [pc, #24]	; (8000648 <Send_WR_Samples+0xa8>)
 800062e:	781b      	ldrb	r3, [r3, #0]
 8000630:	461a      	mov	r2, r3
 8000632:	687b      	ldr	r3, [r7, #4]
 8000634:	4293      	cmp	r3, r2
 8000636:	ddc2      	ble.n	80005be <Send_WR_Samples+0x1e>
	}
}
 8000638:	bf00      	nop
 800063a:	bf00      	nop
 800063c:	3708      	adds	r7, #8
 800063e:	46bd      	mov	sp, r7
 8000640:	bd80      	pop	{r7, pc}
 8000642:	bf00      	nop
 8000644:	20002e7c 	.word	0x20002e7c
 8000648:	20001a3a 	.word	0x20001a3a
 800064c:	20001a3c 	.word	0x20001a3c
 8000650:	200019e4 	.word	0x200019e4
 8000654:	080083d0 	.word	0x080083d0

08000658 <Send_WL_Samples>:
	}
}


void Send_WL_Samples()
{
 8000658:	b580      	push	{r7, lr}
 800065a:	b082      	sub	sp, #8
 800065c:	af00      	add	r7, sp, #0
	WL_Roller = (BUFFERSIZE-1)-(WL_Ring.place + 1);
 800065e:	4b27      	ldr	r3, [pc, #156]	; (80006fc <Send_WL_Samples+0xa4>)
 8000660:	699b      	ldr	r3, [r3, #24]
 8000662:	b2da      	uxtb	r2, r3
 8000664:	f06f 0339 	mvn.w	r3, #57	; 0x39
 8000668:	1a9b      	subs	r3, r3, r2
 800066a:	b2da      	uxtb	r2, r3
 800066c:	4b24      	ldr	r3, [pc, #144]	; (8000700 <Send_WL_Samples+0xa8>)
 800066e:	701a      	strb	r2, [r3, #0]
	for(int Iter=0;Iter<=WL_Roller;Iter++)
 8000670:	2300      	movs	r3, #0
 8000672:	607b      	str	r3, [r7, #4]
 8000674:	e036      	b.n	80006e4 <Send_WL_Samples+0x8c>
	{
		RingReadElement(&WL_Ring,&WL_Ring_Unit);
 8000676:	4923      	ldr	r1, [pc, #140]	; (8000704 <Send_WL_Samples+0xac>)
 8000678:	4820      	ldr	r0, [pc, #128]	; (80006fc <Send_WL_Samples+0xa4>)
 800067a:	f001 f8b5 	bl	80017e8 <RingReadElement>
		itoa(WL_Ring_Unit,WL_Ring_Bulletin,10);
 800067e:	4b21      	ldr	r3, [pc, #132]	; (8000704 <Send_WL_Samples+0xac>)
 8000680:	681b      	ldr	r3, [r3, #0]
 8000682:	220a      	movs	r2, #10
 8000684:	4920      	ldr	r1, [pc, #128]	; (8000708 <Send_WL_Samples+0xb0>)
 8000686:	4618      	mov	r0, r3
 8000688:	f007 fd14 	bl	80080b4 <itoa>
		unsigned char* WL_Packet;
		WL_Packet = malloc(strlen(LOG_WRITE_CMD)+strlen(WL_Ring_Bulletin));
 800068c:	481e      	ldr	r0, [pc, #120]	; (8000708 <Send_WL_Samples+0xb0>)
 800068e:	f7ff fda5 	bl	80001dc <strlen>
 8000692:	4603      	mov	r3, r0
 8000694:	3309      	adds	r3, #9
 8000696:	4618      	mov	r0, r3
 8000698:	f007 fd0e 	bl	80080b8 <malloc>
 800069c:	4603      	mov	r3, r0
 800069e:	603b      	str	r3, [r7, #0]
		strcpy(WL_Packet,LOG_WRITE_CMD);
 80006a0:	683b      	ldr	r3, [r7, #0]
 80006a2:	491a      	ldr	r1, [pc, #104]	; (800070c <Send_WL_Samples+0xb4>)
 80006a4:	461a      	mov	r2, r3
 80006a6:	460b      	mov	r3, r1
 80006a8:	cb03      	ldmia	r3!, {r0, r1}
 80006aa:	6010      	str	r0, [r2, #0]
 80006ac:	6051      	str	r1, [r2, #4]
 80006ae:	881b      	ldrh	r3, [r3, #0]
 80006b0:	8113      	strh	r3, [r2, #8]
		strcat(WL_Packet,WL_Ring_Bulletin);
 80006b2:	4915      	ldr	r1, [pc, #84]	; (8000708 <Send_WL_Samples+0xb0>)
 80006b4:	6838      	ldr	r0, [r7, #0]
 80006b6:	f007 fe15 	bl	80082e4 <strcat>

		send(0, (buff_size *)WL_Packet,strlen(WL_Packet));
 80006ba:	6838      	ldr	r0, [r7, #0]
 80006bc:	f7ff fd8e 	bl	80001dc <strlen>
 80006c0:	4603      	mov	r3, r0
 80006c2:	b29b      	uxth	r3, r3
 80006c4:	461a      	mov	r2, r3
 80006c6:	6839      	ldr	r1, [r7, #0]
 80006c8:	2000      	movs	r0, #0
 80006ca:	f001 fb31 	bl	8001d30 <send>
		free(WL_Packet);
 80006ce:	6838      	ldr	r0, [r7, #0]
 80006d0:	f007 fcfa 	bl	80080c8 <free>
		WL_Packet=NULL;
 80006d4:	2300      	movs	r3, #0
 80006d6:	603b      	str	r3, [r7, #0]
		HAL_Delay(100);
 80006d8:	2064      	movs	r0, #100	; 0x64
 80006da:	f003 f9ef 	bl	8003abc <HAL_Delay>
	for(int Iter=0;Iter<=WL_Roller;Iter++)
 80006de:	687b      	ldr	r3, [r7, #4]
 80006e0:	3301      	adds	r3, #1
 80006e2:	607b      	str	r3, [r7, #4]
 80006e4:	4b06      	ldr	r3, [pc, #24]	; (8000700 <Send_WL_Samples+0xa8>)
 80006e6:	781b      	ldrb	r3, [r3, #0]
 80006e8:	461a      	mov	r2, r3
 80006ea:	687b      	ldr	r3, [r7, #4]
 80006ec:	4293      	cmp	r3, r2
 80006ee:	ddc2      	ble.n	8000676 <Send_WL_Samples+0x1e>
	}
}
 80006f0:	bf00      	nop
 80006f2:	bf00      	nop
 80006f4:	3708      	adds	r7, #8
 80006f6:	46bd      	mov	sp, r7
 80006f8:	bd80      	pop	{r7, pc}
 80006fa:	bf00      	nop
 80006fc:	20002ebc 	.word	0x20002ebc
 8000700:	20001a3b 	.word	0x20001a3b
 8000704:	20001a40 	.word	0x20001a40
 8000708:	20001a0c 	.word	0x20001a0c
 800070c:	080083d0 	.word	0x080083d0

08000710 <Send_Data>:

void Send_Data()
{
 8000710:	b598      	push	{r3, r4, r7, lr}
 8000712:	af00      	add	r7, sp, #0
	send(0, (uint8_t *)GRAB_STOP_CMD,strlen(GRAB_STOP_CMD));
 8000714:	220a      	movs	r2, #10
 8000716:	495b      	ldr	r1, [pc, #364]	; (8000884 <Send_Data+0x174>)
 8000718:	2000      	movs	r0, #0
 800071a:	f001 fb09 	bl	8001d30 <send>
	HAL_Delay(100);
 800071e:	2064      	movs	r0, #100	; 0x64
 8000720:	f003 f9cc 	bl	8003abc <HAL_Delay>
	send(0, (uint8_t *)LOG_START_CMD,strlen(LOG_START_CMD));
 8000724:	220a      	movs	r2, #10
 8000726:	4958      	ldr	r1, [pc, #352]	; (8000888 <Send_Data+0x178>)
 8000728:	2000      	movs	r0, #0
 800072a:	f001 fb01 	bl	8001d30 <send>
	HAL_Delay(100);
 800072e:	2064      	movs	r0, #100	; 0x64
 8000730:	f003 f9c4 	bl	8003abc <HAL_Delay>

	send(0, (uint8_t *)LOG_WR_CMD,strlen(LOG_WR_CMD));
 8000734:	220d      	movs	r2, #13
 8000736:	4955      	ldr	r1, [pc, #340]	; (800088c <Send_Data+0x17c>)
 8000738:	2000      	movs	r0, #0
 800073a:	f001 faf9 	bl	8001d30 <send>
	HAL_Delay(100);
 800073e:	2064      	movs	r0, #100	; 0x64
 8000740:	f003 f9bc 	bl	8003abc <HAL_Delay>

	Send_WR_Samples();//send WR Samples
 8000744:	f7ff ff2c 	bl	80005a0 <Send_WR_Samples>
	HAL_Delay(100);
 8000748:	2064      	movs	r0, #100	; 0x64
 800074a:	f003 f9b7 	bl	8003abc <HAL_Delay>
	send(0, (uint8_t *)LOG_END_WRITE_CMD,strlen(LOG_END_WRITE_CMD));
 800074e:	220c      	movs	r2, #12
 8000750:	494f      	ldr	r1, [pc, #316]	; (8000890 <Send_Data+0x180>)
 8000752:	2000      	movs	r0, #0
 8000754:	f001 faec 	bl	8001d30 <send>
	HAL_Delay(100);
 8000758:	2064      	movs	r0, #100	; 0x64
 800075a:	f003 f9af 	bl	8003abc <HAL_Delay>

	send(0, (uint8_t *)LOG_FCT_CMD,strlen(LOG_FCT_CMD));
 800075e:	220e      	movs	r2, #14
 8000760:	494c      	ldr	r1, [pc, #304]	; (8000894 <Send_Data+0x184>)
 8000762:	2000      	movs	r0, #0
 8000764:	f001 fae4 	bl	8001d30 <send>
	HAL_Delay(100);
 8000768:	2064      	movs	r0, #100	; 0x64
 800076a:	f003 f9a7 	bl	8003abc <HAL_Delay>

	//Send_FCT_Samples();//send  Samples
	HAL_Delay(100);
 800076e:	2064      	movs	r0, #100	; 0x64
 8000770:	f003 f9a4 	bl	8003abc <HAL_Delay>
	send(0, (uint8_t *)LOG_END_WRITE_CMD,strlen(LOG_END_WRITE_CMD));
 8000774:	220c      	movs	r2, #12
 8000776:	4946      	ldr	r1, [pc, #280]	; (8000890 <Send_Data+0x180>)
 8000778:	2000      	movs	r0, #0
 800077a:	f001 fad9 	bl	8001d30 <send>
	HAL_Delay(100);
 800077e:	2064      	movs	r0, #100	; 0x64
 8000780:	f003 f99c 	bl	8003abc <HAL_Delay>

	send(0, (uint8_t *)LOG_WL_CMD,strlen(LOG_WL_CMD));
 8000784:	220d      	movs	r2, #13
 8000786:	4944      	ldr	r1, [pc, #272]	; (8000898 <Send_Data+0x188>)
 8000788:	2000      	movs	r0, #0
 800078a:	f001 fad1 	bl	8001d30 <send>
	HAL_Delay(100);
 800078e:	2064      	movs	r0, #100	; 0x64
 8000790:	f003 f994 	bl	8003abc <HAL_Delay>

	Send_WL_Samples();
 8000794:	f7ff ff60 	bl	8000658 <Send_WL_Samples>
	HAL_Delay(100);
 8000798:	2064      	movs	r0, #100	; 0x64
 800079a:	f003 f98f 	bl	8003abc <HAL_Delay>
	send(0, (uint8_t *)LOG_END_WRITE_CMD,strlen(LOG_END_WRITE_CMD));
 800079e:	220c      	movs	r2, #12
 80007a0:	493b      	ldr	r1, [pc, #236]	; (8000890 <Send_Data+0x180>)
 80007a2:	2000      	movs	r0, #0
 80007a4:	f001 fac4 	bl	8001d30 <send>
	HAL_Delay(100);
 80007a8:	2064      	movs	r0, #100	; 0x64
 80007aa:	f003 f987 	bl	8003abc <HAL_Delay>

	itoa(WR_Counts,WR_Count_Bulletin,10);
 80007ae:	4b3b      	ldr	r3, [pc, #236]	; (800089c <Send_Data+0x18c>)
 80007b0:	681b      	ldr	r3, [r3, #0]
 80007b2:	220a      	movs	r2, #10
 80007b4:	493a      	ldr	r1, [pc, #232]	; (80008a0 <Send_Data+0x190>)
 80007b6:	4618      	mov	r0, r3
 80007b8:	f007 fc7c 	bl	80080b4 <itoa>
	send(0, (buff_size *)strcat(WR_Count_Bulletin,","),strlen(WR_Count_Bulletin));
 80007bc:	4838      	ldr	r0, [pc, #224]	; (80008a0 <Send_Data+0x190>)
 80007be:	f7ff fd0d 	bl	80001dc <strlen>
 80007c2:	4603      	mov	r3, r0
 80007c4:	461a      	mov	r2, r3
 80007c6:	4b36      	ldr	r3, [pc, #216]	; (80008a0 <Send_Data+0x190>)
 80007c8:	4413      	add	r3, r2
 80007ca:	4936      	ldr	r1, [pc, #216]	; (80008a4 <Send_Data+0x194>)
 80007cc:	461a      	mov	r2, r3
 80007ce:	460b      	mov	r3, r1
 80007d0:	881b      	ldrh	r3, [r3, #0]
 80007d2:	8013      	strh	r3, [r2, #0]
 80007d4:	4c32      	ldr	r4, [pc, #200]	; (80008a0 <Send_Data+0x190>)
 80007d6:	4832      	ldr	r0, [pc, #200]	; (80008a0 <Send_Data+0x190>)
 80007d8:	f7ff fd00 	bl	80001dc <strlen>
 80007dc:	4603      	mov	r3, r0
 80007de:	b29b      	uxth	r3, r3
 80007e0:	461a      	mov	r2, r3
 80007e2:	4621      	mov	r1, r4
 80007e4:	2000      	movs	r0, #0
 80007e6:	f001 faa3 	bl	8001d30 <send>

	HAL_Delay(100);
 80007ea:	2064      	movs	r0, #100	; 0x64
 80007ec:	f003 f966 	bl	8003abc <HAL_Delay>
	itoa(FCT_Counts,FCT_Count_Bulletin,10);
 80007f0:	4b2d      	ldr	r3, [pc, #180]	; (80008a8 <Send_Data+0x198>)
 80007f2:	681b      	ldr	r3, [r3, #0]
 80007f4:	220a      	movs	r2, #10
 80007f6:	492d      	ldr	r1, [pc, #180]	; (80008ac <Send_Data+0x19c>)
 80007f8:	4618      	mov	r0, r3
 80007fa:	f007 fc5b 	bl	80080b4 <itoa>
	send(0, (buff_size *)strcat(FCT_Count_Bulletin,","),strlen(FCT_Count_Bulletin));
 80007fe:	482b      	ldr	r0, [pc, #172]	; (80008ac <Send_Data+0x19c>)
 8000800:	f7ff fcec 	bl	80001dc <strlen>
 8000804:	4603      	mov	r3, r0
 8000806:	461a      	mov	r2, r3
 8000808:	4b28      	ldr	r3, [pc, #160]	; (80008ac <Send_Data+0x19c>)
 800080a:	4413      	add	r3, r2
 800080c:	4925      	ldr	r1, [pc, #148]	; (80008a4 <Send_Data+0x194>)
 800080e:	461a      	mov	r2, r3
 8000810:	460b      	mov	r3, r1
 8000812:	881b      	ldrh	r3, [r3, #0]
 8000814:	8013      	strh	r3, [r2, #0]
 8000816:	4c25      	ldr	r4, [pc, #148]	; (80008ac <Send_Data+0x19c>)
 8000818:	4824      	ldr	r0, [pc, #144]	; (80008ac <Send_Data+0x19c>)
 800081a:	f7ff fcdf 	bl	80001dc <strlen>
 800081e:	4603      	mov	r3, r0
 8000820:	b29b      	uxth	r3, r3
 8000822:	461a      	mov	r2, r3
 8000824:	4621      	mov	r1, r4
 8000826:	2000      	movs	r0, #0
 8000828:	f001 fa82 	bl	8001d30 <send>

	HAL_Delay(100);
 800082c:	2064      	movs	r0, #100	; 0x64
 800082e:	f003 f945 	bl	8003abc <HAL_Delay>
	itoa(WL_Counts,WL_Count_Bulletin,10);
 8000832:	4b1f      	ldr	r3, [pc, #124]	; (80008b0 <Send_Data+0x1a0>)
 8000834:	681b      	ldr	r3, [r3, #0]
 8000836:	220a      	movs	r2, #10
 8000838:	491e      	ldr	r1, [pc, #120]	; (80008b4 <Send_Data+0x1a4>)
 800083a:	4618      	mov	r0, r3
 800083c:	f007 fc3a 	bl	80080b4 <itoa>
	send(0, (buff_size *)strcat(WL_Count_Bulletin,","),strlen(WL_Count_Bulletin));
 8000840:	481c      	ldr	r0, [pc, #112]	; (80008b4 <Send_Data+0x1a4>)
 8000842:	f7ff fccb 	bl	80001dc <strlen>
 8000846:	4603      	mov	r3, r0
 8000848:	461a      	mov	r2, r3
 800084a:	4b1a      	ldr	r3, [pc, #104]	; (80008b4 <Send_Data+0x1a4>)
 800084c:	4413      	add	r3, r2
 800084e:	4915      	ldr	r1, [pc, #84]	; (80008a4 <Send_Data+0x194>)
 8000850:	461a      	mov	r2, r3
 8000852:	460b      	mov	r3, r1
 8000854:	881b      	ldrh	r3, [r3, #0]
 8000856:	8013      	strh	r3, [r2, #0]
 8000858:	4c16      	ldr	r4, [pc, #88]	; (80008b4 <Send_Data+0x1a4>)
 800085a:	4816      	ldr	r0, [pc, #88]	; (80008b4 <Send_Data+0x1a4>)
 800085c:	f7ff fcbe 	bl	80001dc <strlen>
 8000860:	4603      	mov	r3, r0
 8000862:	b29b      	uxth	r3, r3
 8000864:	461a      	mov	r2, r3
 8000866:	4621      	mov	r1, r4
 8000868:	2000      	movs	r0, #0
 800086a:	f001 fa61 	bl	8001d30 <send>

	HAL_Delay(100);
 800086e:	2064      	movs	r0, #100	; 0x64
 8000870:	f003 f924 	bl	8003abc <HAL_Delay>
	send(0, (uint8_t *)LOG_STOP_CMD,strlen(LOG_STOP_CMD));
 8000874:	2209      	movs	r2, #9
 8000876:	4910      	ldr	r1, [pc, #64]	; (80008b8 <Send_Data+0x1a8>)
 8000878:	2000      	movs	r0, #0
 800087a:	f001 fa59 	bl	8001d30 <send>
}
 800087e:	bf00      	nop
 8000880:	bd98      	pop	{r3, r4, r7, pc}
 8000882:	bf00      	nop
 8000884:	080083dc 	.word	0x080083dc
 8000888:	080083e8 	.word	0x080083e8
 800088c:	080083f4 	.word	0x080083f4
 8000890:	08008404 	.word	0x08008404
 8000894:	08008414 	.word	0x08008414
 8000898:	08008424 	.word	0x08008424
 800089c:	200018c4 	.word	0x200018c4
 80008a0:	20001a18 	.word	0x20001a18
 80008a4:	08008434 	.word	0x08008434
 80008a8:	200018c8 	.word	0x200018c8
 80008ac:	20001a30 	.word	0x20001a30
 80008b0:	200018cc 	.word	0x200018cc
 80008b4:	20001a24 	.word	0x20001a24
 80008b8:	08008438 	.word	0x08008438

080008bc <cs_sel>:
uint8_t  IntStatus;
uint8_t  Sock_Rx_Flag;
uint8_t  Sock_Disconnect_Flag;

void cs_sel(void)
{
 80008bc:	b580      	push	{r7, lr}
 80008be:	af00      	add	r7, sp, #0
	HAL_GPIO_WritePin(LAN_CS_GPIO_Port, LAN_CS_Pin, GPIO_PIN_RESET); //CS LOW
 80008c0:	2200      	movs	r2, #0
 80008c2:	2101      	movs	r1, #1
 80008c4:	4802      	ldr	r0, [pc, #8]	; (80008d0 <cs_sel+0x14>)
 80008c6:	f003 fbd3 	bl	8004070 <HAL_GPIO_WritePin>
}
 80008ca:	bf00      	nop
 80008cc:	bd80      	pop	{r7, pc}
 80008ce:	bf00      	nop
 80008d0:	48000400 	.word	0x48000400

080008d4 <cs_desel>:

void cs_desel(void)
{
 80008d4:	b580      	push	{r7, lr}
 80008d6:	af00      	add	r7, sp, #0
	HAL_GPIO_WritePin(LAN_CS_GPIO_Port, LAN_CS_Pin, GPIO_PIN_SET); //CS HIGH
 80008d8:	2201      	movs	r2, #1
 80008da:	2101      	movs	r1, #1
 80008dc:	4802      	ldr	r0, [pc, #8]	; (80008e8 <cs_desel+0x14>)
 80008de:	f003 fbc7 	bl	8004070 <HAL_GPIO_WritePin>
}
 80008e2:	bf00      	nop
 80008e4:	bd80      	pop	{r7, pc}
 80008e6:	bf00      	nop
 80008e8:	48000400 	.word	0x48000400

080008ec <Init_Ethernet>:


void Init_Ethernet(void)
{
 80008ec:	b580      	push	{r7, lr}
 80008ee:	b088      	sub	sp, #32
 80008f0:	af00      	add	r7, sp, #0
	uint8_t bufSize[] = {2, 2, 2, 2};
 80008f2:	f04f 3302 	mov.w	r3, #33686018	; 0x2020202
 80008f6:	61fb      	str	r3, [r7, #28]

	reg_wizchip_cs_cbfunc(cs_sel, cs_desel);
 80008f8:	4922      	ldr	r1, [pc, #136]	; (8000984 <Init_Ethernet+0x98>)
 80008fa:	4823      	ldr	r0, [pc, #140]	; (8000988 <Init_Ethernet+0x9c>)
 80008fc:	f002 fbe4 	bl	80030c8 <reg_wizchip_cs_cbfunc>
	reg_wizchip_spi_cbfunc(spi_rb, spi_wb);
 8000900:	4922      	ldr	r1, [pc, #136]	; (800098c <Init_Ethernet+0xa0>)
 8000902:	4823      	ldr	r0, [pc, #140]	; (8000990 <Init_Ethernet+0xa4>)
 8000904:	f002 fc06 	bl	8003114 <reg_wizchip_spi_cbfunc>

	wizchip_init(bufSize, bufSize);
 8000908:	f107 021c 	add.w	r2, r7, #28
 800090c:	f107 031c 	add.w	r3, r7, #28
 8000910:	4611      	mov	r1, r2
 8000912:	4618      	mov	r0, r3
 8000914:	f002 fd54 	bl	80033c0 <wizchip_init>
	wiz_NetInfo netInfo = { .mac = {0x00, 0x08, 0xdc, 0xab, 0xcd, 0xef}, // Mac address
 8000918:	1d3b      	adds	r3, r7, #4
 800091a:	2200      	movs	r2, #0
 800091c:	601a      	str	r2, [r3, #0]
 800091e:	605a      	str	r2, [r3, #4]
 8000920:	609a      	str	r2, [r3, #8]
 8000922:	60da      	str	r2, [r3, #12]
 8000924:	611a      	str	r2, [r3, #16]
 8000926:	f8c3 2013 	str.w	r2, [r3, #19]
 800092a:	4a1a      	ldr	r2, [pc, #104]	; (8000994 <Init_Ethernet+0xa8>)
 800092c:	1d3b      	adds	r3, r7, #4
 800092e:	e892 0003 	ldmia.w	r2, {r0, r1}
 8000932:	6018      	str	r0, [r3, #0]
 8000934:	3304      	adds	r3, #4
 8000936:	8019      	strh	r1, [r3, #0]
 8000938:	4a17      	ldr	r2, [pc, #92]	; (8000998 <Init_Ethernet+0xac>)
 800093a:	f107 030a 	add.w	r3, r7, #10
 800093e:	6810      	ldr	r0, [r2, #0]
 8000940:	6018      	str	r0, [r3, #0]
 8000942:	4a16      	ldr	r2, [pc, #88]	; (800099c <Init_Ethernet+0xb0>)
 8000944:	f107 030e 	add.w	r3, r7, #14
 8000948:	6810      	ldr	r0, [r2, #0]
 800094a:	6018      	str	r0, [r3, #0]
 800094c:	4a14      	ldr	r2, [pc, #80]	; (80009a0 <Init_Ethernet+0xb4>)
 800094e:	f107 0312 	add.w	r3, r7, #18
 8000952:	6810      	ldr	r0, [r2, #0]
 8000954:	6018      	str	r0, [r3, #0]
	 .ip = {192, 168, 1, 204},    // IP address
	 .sn = {255, 255, 255, 0},    // Subnet mask
	 .gw = {192, 168, 1, 1}};    // Gateway address

	wizchip_setnetinfo(&netInfo);
 8000956:	1d3b      	adds	r3, r7, #4
 8000958:	4618      	mov	r0, r3
 800095a:	f002 ff9f 	bl	800389c <wizchip_setnetinfo>
	wizchip_getnetinfo(&netInfo);
 800095e:	1d3b      	adds	r3, r7, #4
 8000960:	4618      	mov	r0, r3
 8000962:	f002 ffdb 	bl	800391c <wizchip_getnetinfo>

	setSn_IMR(0, 0x06);
 8000966:	2106      	movs	r1, #6
 8000968:	f642 4008 	movw	r0, #11272	; 0x2c08
 800096c:	f002 f904 	bl	8002b78 <WIZCHIP_WRITE>
	WIZCHIP_WRITE(SIMR,0x01);
 8000970:	2101      	movs	r1, #1
 8000972:	f44f 50c0 	mov.w	r0, #6144	; 0x1800
 8000976:	f002 f8ff 	bl	8002b78 <WIZCHIP_WRITE>
}
 800097a:	bf00      	nop
 800097c:	3720      	adds	r7, #32
 800097e:	46bd      	mov	sp, r7
 8000980:	bd80      	pop	{r7, pc}
 8000982:	bf00      	nop
 8000984:	080008d5 	.word	0x080008d5
 8000988:	080008bd 	.word	0x080008bd
 800098c:	08000a95 	.word	0x08000a95
 8000990:	08000a71 	.word	0x08000a71
 8000994:	08008444 	.word	0x08008444
 8000998:	0800844c 	.word	0x0800844c
 800099c:	08008450 	.word	0x08008450
 80009a0:	08008454 	.word	0x08008454

080009a4 <Ethernet_Connect>:

void Ethernet_Connect(void)
{
 80009a4:	b580      	push	{r7, lr}
 80009a6:	af00      	add	r7, sp, #0
	Init_Ethernet();
 80009a8:	f7ff ffa0 	bl	80008ec <Init_Ethernet>


	while(Connect_Reply !=SOCK_OK)
 80009ac:	e012      	b.n	80009d4 <Ethernet_Connect+0x30>
	{
		socket(0, Sn_MR_TCP, PORT_ADDR, SF_TCP_NODELAY);
 80009ae:	2320      	movs	r3, #32
 80009b0:	f44f 52d0 	mov.w	r2, #6656	; 0x1a00
 80009b4:	2101      	movs	r1, #1
 80009b6:	2000      	movs	r0, #0
 80009b8:	f000 ff5a 	bl	8001870 <socket>
		Refresh_Watchdog();
 80009bc:	f000 f822 	bl	8000a04 <Refresh_Watchdog>
		Connect_Reply = connect(0,server_Add,PORT_ADDR);
 80009c0:	f44f 52d0 	mov.w	r2, #6656	; 0x1a00
 80009c4:	490d      	ldr	r1, [pc, #52]	; (80009fc <Ethernet_Connect+0x58>)
 80009c6:	2000      	movs	r0, #0
 80009c8:	f001 f8d6 	bl	8001b78 <connect>
 80009cc:	4603      	mov	r3, r0
 80009ce:	b2da      	uxtb	r2, r3
 80009d0:	4b0b      	ldr	r3, [pc, #44]	; (8000a00 <Ethernet_Connect+0x5c>)
 80009d2:	701a      	strb	r2, [r3, #0]
	while(Connect_Reply !=SOCK_OK)
 80009d4:	4b0a      	ldr	r3, [pc, #40]	; (8000a00 <Ethernet_Connect+0x5c>)
 80009d6:	781b      	ldrb	r3, [r3, #0]
 80009d8:	2b01      	cmp	r3, #1
 80009da:	d1e8      	bne.n	80009ae <Ethernet_Connect+0xa>
	}

	if(Connect_Reply == 1)
 80009dc:	4b08      	ldr	r3, [pc, #32]	; (8000a00 <Ethernet_Connect+0x5c>)
 80009de:	781b      	ldrb	r3, [r3, #0]
 80009e0:	2b01      	cmp	r3, #1
 80009e2:	d102      	bne.n	80009ea <Ethernet_Connect+0x46>
	{
		Connect_Reply = 0;
 80009e4:	4b06      	ldr	r3, [pc, #24]	; (8000a00 <Ethernet_Connect+0x5c>)
 80009e6:	2200      	movs	r2, #0
 80009e8:	701a      	strb	r2, [r3, #0]
	}
	HAL_Delay(500);
 80009ea:	f44f 70fa 	mov.w	r0, #500	; 0x1f4
 80009ee:	f003 f865 	bl	8003abc <HAL_Delay>
	Refresh_Watchdog();
 80009f2:	f000 f807 	bl	8000a04 <Refresh_Watchdog>

}
 80009f6:	bf00      	nop
 80009f8:	bd80      	pop	{r7, pc}
 80009fa:	bf00      	nop
 80009fc:	20000000 	.word	0x20000000
 8000a00:	20001a44 	.word	0x20001a44

08000a04 <Refresh_Watchdog>:

void Refresh_Watchdog(void)
{
 8000a04:	b480      	push	{r7}
 8000a06:	af00      	add	r7, sp, #0
	IWDG->KR  = 0x0000AAAA;
 8000a08:	4b04      	ldr	r3, [pc, #16]	; (8000a1c <Refresh_Watchdog+0x18>)
 8000a0a:	f64a 22aa 	movw	r2, #43690	; 0xaaaa
 8000a0e:	601a      	str	r2, [r3, #0]
}
 8000a10:	bf00      	nop
 8000a12:	46bd      	mov	sp, r7
 8000a14:	f85d 7b04 	ldr.w	r7, [sp], #4
 8000a18:	4770      	bx	lr
 8000a1a:	bf00      	nop
 8000a1c:	40003000 	.word	0x40003000

08000a20 <Get_event>:
#include"event.h"

struct EventStruct test_Events = {NULL_Event,NULL_Event};

myEvents Get_event()
{
 8000a20:	b480      	push	{r7}
 8000a22:	af00      	add	r7, sp, #0

	return test_Events.Next_Event;
 8000a24:	4b03      	ldr	r3, [pc, #12]	; (8000a34 <Get_event+0x14>)
 8000a26:	785b      	ldrb	r3, [r3, #1]
}
 8000a28:	4618      	mov	r0, r3
 8000a2a:	46bd      	mov	sp, r7
 8000a2c:	f85d 7b04 	ldr.w	r7, [sp], #4
 8000a30:	4770      	bx	lr
 8000a32:	bf00      	nop
 8000a34:	20001a48 	.word	0x20001a48

08000a38 <Set_event>:

void Set_event(myEvents N_E)
{
 8000a38:	b480      	push	{r7}
 8000a3a:	b083      	sub	sp, #12
 8000a3c:	af00      	add	r7, sp, #0
 8000a3e:	4603      	mov	r3, r0
 8000a40:	71fb      	strb	r3, [r7, #7]
	test_Events.Next_Event = N_E;
 8000a42:	4a04      	ldr	r2, [pc, #16]	; (8000a54 <Set_event+0x1c>)
 8000a44:	79fb      	ldrb	r3, [r7, #7]
 8000a46:	7053      	strb	r3, [r2, #1]
}
 8000a48:	bf00      	nop
 8000a4a:	370c      	adds	r7, #12
 8000a4c:	46bd      	mov	sp, r7
 8000a4e:	f85d 7b04 	ldr.w	r7, [sp], #4
 8000a52:	4770      	bx	lr
 8000a54:	20001a48 	.word	0x20001a48

08000a58 <Reset_event>:



void Reset_event()
{
 8000a58:	b480      	push	{r7}
 8000a5a:	af00      	add	r7, sp, #0
	test_Events.Next_Event=NULL_Event;
 8000a5c:	4b03      	ldr	r3, [pc, #12]	; (8000a6c <Reset_event+0x14>)
 8000a5e:	2200      	movs	r2, #0
 8000a60:	705a      	strb	r2, [r3, #1]
}
 8000a62:	bf00      	nop
 8000a64:	46bd      	mov	sp, r7
 8000a66:	f85d 7b04 	ldr.w	r7, [sp], #4
 8000a6a:	4770      	bx	lr
 8000a6c:	20001a48 	.word	0x20001a48

08000a70 <spi_rb>:
/* USER CODE END PFP */

/* Private user code ---------------------------------------------------------*/
/* USER CODE BEGIN 0 */
uint8_t spi_rb(void)
{
 8000a70:	b580      	push	{r7, lr}
 8000a72:	b082      	sub	sp, #8
 8000a74:	af00      	add	r7, sp, #0
	uint8_t rbuf;
	HAL_SPI_Receive(&hspi3, &rbuf, 1, 0xffffffff);
 8000a76:	1df9      	adds	r1, r7, #7
 8000a78:	f04f 33ff 	mov.w	r3, #4294967295
 8000a7c:	2201      	movs	r2, #1
 8000a7e:	4804      	ldr	r0, [pc, #16]	; (8000a90 <spi_rb+0x20>)
 8000a80:	f005 fd51 	bl	8006526 <HAL_SPI_Receive>
	return rbuf;
 8000a84:	79fb      	ldrb	r3, [r7, #7]
}
 8000a86:	4618      	mov	r0, r3
 8000a88:	3708      	adds	r7, #8
 8000a8a:	46bd      	mov	sp, r7
 8000a8c:	bd80      	pop	{r7, pc}
 8000a8e:	bf00      	nop
 8000a90:	20001ad0 	.word	0x20001ad0

08000a94 <spi_wb>:

void spi_wb(uint8_t b)
{
 8000a94:	b580      	push	{r7, lr}
 8000a96:	b082      	sub	sp, #8
 8000a98:	af00      	add	r7, sp, #0
 8000a9a:	4603      	mov	r3, r0
 8000a9c:	71fb      	strb	r3, [r7, #7]
	HAL_SPI_Transmit(&hspi3, &b, 1, 0xffffffff);
 8000a9e:	1df9      	adds	r1, r7, #7
 8000aa0:	f04f 33ff 	mov.w	r3, #4294967295
 8000aa4:	2201      	movs	r2, #1
 8000aa6:	4803      	ldr	r0, [pc, #12]	; (8000ab4 <spi_wb+0x20>)
 8000aa8:	f005 fbcf 	bl	800624a <HAL_SPI_Transmit>
}
 8000aac:	bf00      	nop
 8000aae:	3708      	adds	r7, #8
 8000ab0:	46bd      	mov	sp, r7
 8000ab2:	bd80      	pop	{r7, pc}
 8000ab4:	20001ad0 	.word	0x20001ad0

08000ab8 <Timer2_Stop>:

void Timer2_Stop()
{
 8000ab8:	b580      	push	{r7, lr}
 8000aba:	af00      	add	r7, sp, #0
	HAL_TIM_Base_Stop(&htim2);
 8000abc:	4802      	ldr	r0, [pc, #8]	; (8000ac8 <Timer2_Stop+0x10>)
 8000abe:	f006 fb31 	bl	8007124 <HAL_TIM_Base_Stop>
}
 8000ac2:	bf00      	nop
 8000ac4:	bd80      	pop	{r7, pc}
 8000ac6:	bf00      	nop
 8000ac8:	20001b34 	.word	0x20001b34

08000acc <Timer2_DeInitilized>:

void Timer2_DeInitilized()
{
 8000acc:	b580      	push	{r7, lr}
 8000ace:	af00      	add	r7, sp, #0
	HAL_TIM_Base_DeInit(&htim2);
 8000ad0:	4806      	ldr	r0, [pc, #24]	; (8000aec <Timer2_DeInitilized+0x20>)
 8000ad2:	f006 fa7e 	bl	8006fd2 <HAL_TIM_Base_DeInit>
	HAL_TIM_Base_DeInit(&htim6);
 8000ad6:	4806      	ldr	r0, [pc, #24]	; (8000af0 <Timer2_DeInitilized+0x24>)
 8000ad8:	f006 fa7b 	bl	8006fd2 <HAL_TIM_Base_DeInit>
	HAL_TIM_Base_DeInit(&htim16);
 8000adc:	4805      	ldr	r0, [pc, #20]	; (8000af4 <Timer2_DeInitilized+0x28>)
 8000ade:	f006 fa78 	bl	8006fd2 <HAL_TIM_Base_DeInit>
	HAL_TIM_Base_DeInit(&htim17);
 8000ae2:	4805      	ldr	r0, [pc, #20]	; (8000af8 <Timer2_DeInitilized+0x2c>)
 8000ae4:	f006 fa75 	bl	8006fd2 <HAL_TIM_Base_DeInit>
}
 8000ae8:	bf00      	nop
 8000aea:	bd80      	pop	{r7, pc}
 8000aec:	20001b34 	.word	0x20001b34
 8000af0:	20001b80 	.word	0x20001b80
 8000af4:	20001bcc 	.word	0x20001bcc
 8000af8:	20001c18 	.word	0x20001c18

08000afc <Timer2_Initilized>:

void Timer2_Initilized()
{
 8000afc:	b580      	push	{r7, lr}
 8000afe:	af00      	add	r7, sp, #0
	HAL_TIM_Base_Init(&htim2);
 8000b00:	4806      	ldr	r0, [pc, #24]	; (8000b1c <Timer2_Initilized+0x20>)
 8000b02:	f006 fa0f 	bl	8006f24 <HAL_TIM_Base_Init>
	HAL_TIM_Base_Init(&htim6);
 8000b06:	4806      	ldr	r0, [pc, #24]	; (8000b20 <Timer2_Initilized+0x24>)
 8000b08:	f006 fa0c 	bl	8006f24 <HAL_TIM_Base_Init>
	HAL_TIM_Base_Init(&htim16);
 8000b0c:	4805      	ldr	r0, [pc, #20]	; (8000b24 <Timer2_Initilized+0x28>)
 8000b0e:	f006 fa09 	bl	8006f24 <HAL_TIM_Base_Init>
	HAL_TIM_Base_Init(&htim17);
 8000b12:	4805      	ldr	r0, [pc, #20]	; (8000b28 <Timer2_Initilized+0x2c>)
 8000b14:	f006 fa06 	bl	8006f24 <HAL_TIM_Base_Init>
}
 8000b18:	bf00      	nop
 8000b1a:	bd80      	pop	{r7, pc}
 8000b1c:	20001b34 	.word	0x20001b34
 8000b20:	20001b80 	.word	0x20001b80
 8000b24:	20001bcc 	.word	0x20001bcc
 8000b28:	20001c18 	.word	0x20001c18

08000b2c <Timer2_Start>:

void Timer2_Start()
{
 8000b2c:	b580      	push	{r7, lr}
 8000b2e:	af00      	add	r7, sp, #0
	HAL_TIM_Base_Start(&htim2);
 8000b30:	4802      	ldr	r0, [pc, #8]	; (8000b3c <Timer2_Start+0x10>)
 8000b32:	f006 faab 	bl	800708c <HAL_TIM_Base_Start>
}
 8000b36:	bf00      	nop
 8000b38:	bd80      	pop	{r7, pc}
 8000b3a:	bf00      	nop
 8000b3c:	20001b34 	.word	0x20001b34

08000b40 <Timer6_Start>:

void Timer6_Start()
{
 8000b40:	b580      	push	{r7, lr}
 8000b42:	af00      	add	r7, sp, #0
	HAL_TIM_Base_Start_IT(&htim6);
 8000b44:	4802      	ldr	r0, [pc, #8]	; (8000b50 <Timer6_Start+0x10>)
 8000b46:	f006 fb15 	bl	8007174 <HAL_TIM_Base_Start_IT>
}
 8000b4a:	bf00      	nop
 8000b4c:	bd80      	pop	{r7, pc}
 8000b4e:	bf00      	nop
 8000b50:	20001b80 	.word	0x20001b80

08000b54 <Timer6_Stop>:

void Timer6_Stop()
{
 8000b54:	b580      	push	{r7, lr}
 8000b56:	af00      	add	r7, sp, #0
	HAL_TIM_Base_Stop_IT(&htim6);
 8000b58:	4802      	ldr	r0, [pc, #8]	; (8000b64 <Timer6_Stop+0x10>)
 8000b5a:	f006 fb5f 	bl	800721c <HAL_TIM_Base_Stop_IT>
}
 8000b5e:	bf00      	nop
 8000b60:	bd80      	pop	{r7, pc}
 8000b62:	bf00      	nop
 8000b64:	20001b80 	.word	0x20001b80

08000b68 <Timer16_Start>:

void Timer16_Start()
{
 8000b68:	b580      	push	{r7, lr}
 8000b6a:	af00      	add	r7, sp, #0
	HAL_TIM_Base_Init(&htim16);
 8000b6c:	4803      	ldr	r0, [pc, #12]	; (8000b7c <Timer16_Start+0x14>)
 8000b6e:	f006 f9d9 	bl	8006f24 <HAL_TIM_Base_Init>
	HAL_TIM_Base_Start_IT(&htim16);
 8000b72:	4802      	ldr	r0, [pc, #8]	; (8000b7c <Timer16_Start+0x14>)
 8000b74:	f006 fafe 	bl	8007174 <HAL_TIM_Base_Start_IT>
}
 8000b78:	bf00      	nop
 8000b7a:	bd80      	pop	{r7, pc}
 8000b7c:	20001bcc 	.word	0x20001bcc

08000b80 <Timer16_Stop>:

void Timer16_Stop()
{
 8000b80:	b580      	push	{r7, lr}
 8000b82:	af00      	add	r7, sp, #0
	HAL_TIM_Base_Stop_IT(&htim16);
 8000b84:	4803      	ldr	r0, [pc, #12]	; (8000b94 <Timer16_Stop+0x14>)
 8000b86:	f006 fb49 	bl	800721c <HAL_TIM_Base_Stop_IT>
	HAL_TIM_Base_DeInit(&htim16);
 8000b8a:	4802      	ldr	r0, [pc, #8]	; (8000b94 <Timer16_Stop+0x14>)
 8000b8c:	f006 fa21 	bl	8006fd2 <HAL_TIM_Base_DeInit>
}
 8000b90:	bf00      	nop
 8000b92:	bd80      	pop	{r7, pc}
 8000b94:	20001bcc 	.word	0x20001bcc

08000b98 <Timer17_Start>:

void Timer17_Start()
{
 8000b98:	b580      	push	{r7, lr}
 8000b9a:	af00      	add	r7, sp, #0
	HAL_TIM_Base_Init(&htim17);
 8000b9c:	4803      	ldr	r0, [pc, #12]	; (8000bac <Timer17_Start+0x14>)
 8000b9e:	f006 f9c1 	bl	8006f24 <HAL_TIM_Base_Init>
	HAL_TIM_Base_Start_IT(&htim17);
 8000ba2:	4802      	ldr	r0, [pc, #8]	; (8000bac <Timer17_Start+0x14>)
 8000ba4:	f006 fae6 	bl	8007174 <HAL_TIM_Base_Start_IT>
}
 8000ba8:	bf00      	nop
 8000baa:	bd80      	pop	{r7, pc}
 8000bac:	20001c18 	.word	0x20001c18

08000bb0 <Timer17_Stop>:

void Timer17_Stop()
{
 8000bb0:	b580      	push	{r7, lr}
 8000bb2:	af00      	add	r7, sp, #0
	HAL_TIM_Base_Stop_IT(&htim17);
 8000bb4:	4803      	ldr	r0, [pc, #12]	; (8000bc4 <Timer17_Stop+0x14>)
 8000bb6:	f006 fb31 	bl	800721c <HAL_TIM_Base_Stop_IT>
	HAL_TIM_Base_DeInit(&htim17);
 8000bba:	4802      	ldr	r0, [pc, #8]	; (8000bc4 <Timer17_Stop+0x14>)
 8000bbc:	f006 fa09 	bl	8006fd2 <HAL_TIM_Base_DeInit>
}
 8000bc0:	bf00      	nop
 8000bc2:	bd80      	pop	{r7, pc}
 8000bc4:	20001c18 	.word	0x20001c18

08000bc8 <Timer2_GetTimer>:

int Timer2_GetTimer()
{
 8000bc8:	b480      	push	{r7}
 8000bca:	b083      	sub	sp, #12
 8000bcc:	af00      	add	r7, sp, #0
	uint32_t Tim_val = __HAL_TIM_GetCounter(&htim2);
 8000bce:	4b05      	ldr	r3, [pc, #20]	; (8000be4 <Timer2_GetTimer+0x1c>)
 8000bd0:	681b      	ldr	r3, [r3, #0]
 8000bd2:	6a5b      	ldr	r3, [r3, #36]	; 0x24
 8000bd4:	607b      	str	r3, [r7, #4]
	return Tim_val;
 8000bd6:	687b      	ldr	r3, [r7, #4]
}
 8000bd8:	4618      	mov	r0, r3
 8000bda:	370c      	adds	r7, #12
 8000bdc:	46bd      	mov	sp, r7
 8000bde:	f85d 7b04 	ldr.w	r7, [sp], #4
 8000be2:	4770      	bx	lr
 8000be4:	20001b34 	.word	0x20001b34

08000be8 <main>:
/**
  * @brief  The application entry point.
  * @retval int
  */
int main(void)
{
 8000be8:	b580      	push	{r7, lr}
 8000bea:	b09a      	sub	sp, #104	; 0x68
 8000bec:	af00      	add	r7, sp, #0
  /* USER CODE END 1 */

  /* MCU Configuration--------------------------------------------------------*/

  /* Reset of all peripherals, Initializes the Flash interface and the Systick. */
  HAL_Init();
 8000bee:	f002 feff 	bl	80039f0 <HAL_Init>
  /* USER CODE BEGIN Init */

  /* USER CODE END Init */

  /* Configure the system clock */
  SystemClock_Config();
 8000bf2:	f000 f94f 	bl	8000e94 <SystemClock_Config>
  /* USER CODE BEGIN SysInit */

  /* USER CODE END SysInit */

  /* Initialize all configured peripherals */
  MX_GPIO_Init();
 8000bf6:	f000 fbb7 	bl	8001368 <MX_GPIO_Init>
  MX_RTC_Init();
 8000bfa:	f000 f9b7 	bl	8000f6c <MX_RTC_Init>
  MX_SPI2_Init();
 8000bfe:	f000 fa2d 	bl	800105c <MX_SPI2_Init>
  MX_SPI3_Init();
 8000c02:	f000 fa69 	bl	80010d8 <MX_SPI3_Init>
  MX_TIM2_Init();
 8000c06:	f000 faa5 	bl	8001154 <MX_TIM2_Init>
  MX_USART2_UART_Init();
 8000c0a:	f000 fb79 	bl	8001300 <MX_USART2_UART_Init>
  MX_TIM6_Init();
 8000c0e:	f000 faef 	bl	80011f0 <MX_TIM6_Init>
  MX_TIM16_Init();
 8000c12:	f000 fb25 	bl	8001260 <MX_TIM16_Init>
  MX_TIM17_Init();
 8000c16:	f000 fb4b 	bl	80012b0 <MX_TIM17_Init>
  while (1)
  {
    /* USER CODE END WHILE */

    /* USER CODE BEGIN 3 */
	  HAL_RTC_GetTime(RtcHandle, &sTime, RTC_FORMAT_BIN);
 8000c1a:	f107 030c 	add.w	r3, r7, #12
 8000c1e:	2200      	movs	r2, #0
 8000c20:	4619      	mov	r1, r3
 8000c22:	488f      	ldr	r0, [pc, #572]	; (8000e60 <main+0x278>)
 8000c24:	f004 ffbc 	bl	8005ba0 <HAL_RTC_GetTime>
	  HAL_RTC_GetDate(RtcHandle, &sDate, RTC_FORMAT_BIN);
 8000c28:	f107 0308 	add.w	r3, r7, #8
 8000c2c:	2200      	movs	r2, #0
 8000c2e:	4619      	mov	r1, r3
 8000c30:	488b      	ldr	r0, [pc, #556]	; (8000e60 <main+0x278>)
 8000c32:	f005 f8ba 	bl	8005daa <HAL_RTC_GetDate>
	  //mseconds = (sTime.SubSeconds * 1000) / (sTime.SecondFraction + 1);

	  switch(Get_state())
 8000c36:	f001 fb75 	bl	8002324 <Get_state>
 8000c3a:	4603      	mov	r3, r0
 8000c3c:	3b01      	subs	r3, #1
 8000c3e:	2b06      	cmp	r3, #6
 8000c40:	d8eb      	bhi.n	8000c1a <main+0x32>
 8000c42:	a201      	add	r2, pc, #4	; (adr r2, 8000c48 <main+0x60>)
 8000c44:	f852 f023 	ldr.w	pc, [r2, r3, lsl #2]
 8000c48:	08000c65 	.word	0x08000c65
 8000c4c:	08000c9d 	.word	0x08000c9d
 8000c50:	08000cbd 	.word	0x08000cbd
 8000c54:	08000de7 	.word	0x08000de7
 8000c58:	08000e05 	.word	0x08000e05
 8000c5c:	08000e23 	.word	0x08000e23
 8000c60:	08000e33 	.word	0x08000e33
	  	  {
	  	  case Initilisation_State:
	  		  Initilisation_State_Handler();
 8000c64:	f001 fb7a 	bl	800235c <Initilisation_State_Handler>

	  		  if(Get_event()==Reset_Event)
 8000c68:	f7ff feda 	bl	8000a20 <Get_event>
 8000c6c:	4603      	mov	r3, r0
 8000c6e:	2b01      	cmp	r3, #1
 8000c70:	f040 80e7 	bne.w	8000e42 <main+0x25a>
	  		  {
		  		  ctlwizchip(CW_GET_PHYLINK, (void*) &Phy_TCP_IP);
 8000c74:	497b      	ldr	r1, [pc, #492]	; (8000e64 <main+0x27c>)
 8000c76:	200f      	movs	r0, #15
 8000c78:	f002 fa78 	bl	800316c <ctlwizchip>
		  		  if((Phy_TCP_IP==PHY_LINK_OFF) || (PortStatus==SOCKERR_SOCKSTATUS))
 8000c7c:	4b79      	ldr	r3, [pc, #484]	; (8000e64 <main+0x27c>)
 8000c7e:	781b      	ldrb	r3, [r3, #0]
 8000c80:	2b00      	cmp	r3, #0
 8000c82:	d004      	beq.n	8000c8e <main+0xa6>
 8000c84:	4b78      	ldr	r3, [pc, #480]	; (8000e68 <main+0x280>)
 8000c86:	681b      	ldr	r3, [r3, #0]
 8000c88:	f113 0f07 	cmn.w	r3, #7
 8000c8c:	d103      	bne.n	8000c96 <main+0xae>
		  		  {
		  			  Set_state(Initilisation_State);
 8000c8e:	2001      	movs	r0, #1
 8000c90:	f001 fb54 	bl	800233c <Set_state>
		  		  else
		  		  {
		  			Reset_State_Handler();
		  		  }
	  		  }
	  		  break;
 8000c94:	e0d5      	b.n	8000e42 <main+0x25a>
		  			Reset_State_Handler();
 8000c96:	f001 fb8d 	bl	80023b4 <Reset_State_Handler>
	  		  break;
 8000c9a:	e0d2      	b.n	8000e42 <main+0x25a>

	  	  case Reset_State:
	  		  if(Get_event()==Idle_Event)
 8000c9c:	f7ff fec0 	bl	8000a20 <Get_event>
 8000ca0:	4603      	mov	r3, r0
 8000ca2:	2b02      	cmp	r3, #2
 8000ca4:	f040 80cf 	bne.w	8000e46 <main+0x25e>
	  		  {
	  			  Idle_State_Handler();
 8000ca8:	f001 fc1e 	bl	80024e8 <Idle_State_Handler>
	  			  Timer16_Stop();
 8000cac:	f7ff ff68 	bl	8000b80 <Timer16_Stop>
	  			  tim16_count=0;
 8000cb0:	4b6e      	ldr	r3, [pc, #440]	; (8000e6c <main+0x284>)
 8000cb2:	2200      	movs	r2, #0
 8000cb4:	601a      	str	r2, [r3, #0]
	  			  Timer16_Start();
 8000cb6:	f7ff ff57 	bl	8000b68 <Timer16_Start>
	  		  }
	  		  break;
 8000cba:	e0c4      	b.n	8000e46 <main+0x25e>

	  	  case Idle_State:
	  		  if(Get_event()==WRSide_Train_Detect_Event)
 8000cbc:	f7ff feb0 	bl	8000a20 <Get_event>
 8000cc0:	4603      	mov	r3, r0
 8000cc2:	2b03      	cmp	r3, #3
 8000cc4:	d102      	bne.n	8000ccc <main+0xe4>
	  		  {
	  			  WRSide_Train_Presence_State_Handler();
 8000cc6:	f001 fc19 	bl	80024fc <WRSide_Train_Presence_State_Handler>
 8000cca:	e006      	b.n	8000cda <main+0xf2>
	  		  }
	  		  else if (Get_event()==WLSide_Train_Detect_Event)
 8000ccc:	f7ff fea8 	bl	8000a20 <Get_event>
 8000cd0:	4603      	mov	r3, r0
 8000cd2:	2b04      	cmp	r3, #4
 8000cd4:	d101      	bne.n	8000cda <main+0xf2>
	  		  {
	  			  WLSide_Train_Presence_State_Handler();
 8000cd6:	f001 fc1f 	bl	8002518 <WLSide_Train_Presence_State_Handler>
	  		  }

	  		  uint8_t  server_Address[4] = {192,168,1,111};
 8000cda:	4b65      	ldr	r3, [pc, #404]	; (8000e70 <main+0x288>)
 8000cdc:	607b      	str	r3, [r7, #4]
	  		  Refresh_Watchdog();
 8000cde:	f7ff fe91 	bl	8000a04 <Refresh_Watchdog>
	  		  connect(0,server_Address,PORT_ADDR);
 8000ce2:	1d3b      	adds	r3, r7, #4
 8000ce4:	f44f 52d0 	mov.w	r2, #6656	; 0x1a00
 8000ce8:	4619      	mov	r1, r3
 8000cea:	2000      	movs	r0, #0
 8000cec:	f000 ff44 	bl	8001b78 <connect>
	  		  remote = getsockopt(0,SO_STATUS, &remotePort);
 8000cf0:	4a60      	ldr	r2, [pc, #384]	; (8000e74 <main+0x28c>)
 8000cf2:	210a      	movs	r1, #10
 8000cf4:	2000      	movs	r0, #0
 8000cf6:	f001 f9fd 	bl	80020f4 <getsockopt>
 8000cfa:	4603      	mov	r3, r0
 8000cfc:	b2da      	uxtb	r2, r3
 8000cfe:	4b5e      	ldr	r3, [pc, #376]	; (8000e78 <main+0x290>)
 8000d00:	701a      	strb	r2, [r3, #0]
	  		  if(remotePort==28)
 8000d02:	4b5c      	ldr	r3, [pc, #368]	; (8000e74 <main+0x28c>)
 8000d04:	781b      	ldrb	r3, [r3, #0]
 8000d06:	2b1c      	cmp	r3, #28
 8000d08:	d102      	bne.n	8000d10 <main+0x128>
	  		  {
	  			  Set_state(Initilisation_State);
 8000d0a:	2001      	movs	r0, #1
 8000d0c:	f001 fb16 	bl	800233c <Set_state>
	  		  }

	  		   //Check for physical connection.
	  		  ctlwizchip(CW_GET_PHYLINK, (void*) &Phy_TCP_IP);
 8000d10:	4954      	ldr	r1, [pc, #336]	; (8000e64 <main+0x27c>)
 8000d12:	200f      	movs	r0, #15
 8000d14:	f002 fa2a 	bl	800316c <ctlwizchip>
	  		  if(Phy_TCP_IP==PHY_LINK_OFF)
 8000d18:	4b52      	ldr	r3, [pc, #328]	; (8000e64 <main+0x27c>)
 8000d1a:	781b      	ldrb	r3, [r3, #0]
 8000d1c:	2b00      	cmp	r3, #0
 8000d1e:	d103      	bne.n	8000d28 <main+0x140>
	  		  {
	  			  Set_state(Initilisation_State);
 8000d20:	2001      	movs	r0, #1
 8000d22:	f001 fb0b 	bl	800233c <Set_state>
	  				}
	  				Timer17_Stop();
	  				tim17_count=0;
	  			  }
	  		  }
	  		  break;
 8000d26:	e090      	b.n	8000e4a <main+0x262>
	  		  else if(Phy_TCP_IP==PHY_LINK_ON)
 8000d28:	4b4e      	ldr	r3, [pc, #312]	; (8000e64 <main+0x27c>)
 8000d2a:	781b      	ldrb	r3, [r3, #0]
 8000d2c:	2b01      	cmp	r3, #1
 8000d2e:	f040 808c 	bne.w	8000e4a <main+0x262>
	  			  if (tim16_count>TIM16TIMEOOUTPERIOD)
 8000d32:	4b4e      	ldr	r3, [pc, #312]	; (8000e6c <main+0x284>)
 8000d34:	681b      	ldr	r3, [r3, #0]
 8000d36:	2b0a      	cmp	r3, #10
 8000d38:	f240 8087 	bls.w	8000e4a <main+0x262>
	  				send(0, (uint8_t *)PING_CMD,strlen(PING_CMD));
 8000d3c:	2209      	movs	r2, #9
 8000d3e:	494f      	ldr	r1, [pc, #316]	; (8000e7c <main+0x294>)
 8000d40:	2000      	movs	r0, #0
 8000d42:	f000 fff5 	bl	8001d30 <send>
	  				Timer16_Stop();
 8000d46:	f7ff ff1b 	bl	8000b80 <Timer16_Stop>
	  				tim16_count=0;
 8000d4a:	4b48      	ldr	r3, [pc, #288]	; (8000e6c <main+0x284>)
 8000d4c:	2200      	movs	r2, #0
 8000d4e:	601a      	str	r2, [r3, #0]
	  				Timer16_Start();
 8000d50:	f7ff ff0a 	bl	8000b68 <Timer16_Start>
	  				Timer17_Start();
 8000d54:	f7ff ff20 	bl	8000b98 <Timer17_Start>
	  				memset(Recv_Ping,0,sizeof Recv_Ping);
 8000d58:	f44f 6200 	mov.w	r2, #2048	; 0x800
 8000d5c:	2100      	movs	r1, #0
 8000d5e:	4848      	ldr	r0, [pc, #288]	; (8000e80 <main+0x298>)
 8000d60:	f007 f9c8 	bl	80080f4 <memset>
	  				while(tim17_count<TIM17TIMEOOUTPERIOD)
 8000d64:	e035      	b.n	8000dd2 <main+0x1ea>
	  					recv(0, Recv_Ping,2048);
 8000d66:	f44f 6200 	mov.w	r2, #2048	; 0x800
 8000d6a:	4945      	ldr	r1, [pc, #276]	; (8000e80 <main+0x298>)
 8000d6c:	2000      	movs	r0, #0
 8000d6e:	f001 f8d9 	bl	8001f24 <recv>
	  					if(Get_event()==WRSide_Train_Detect_Event)
 8000d72:	f7ff fe55 	bl	8000a20 <Get_event>
 8000d76:	4603      	mov	r3, r0
 8000d78:	2b03      	cmp	r3, #3
 8000d7a:	d102      	bne.n	8000d82 <main+0x19a>
	  						WRSide_Train_Presence_State_Handler();
 8000d7c:	f001 fbbe 	bl	80024fc <WRSide_Train_Presence_State_Handler>
	  						break;
 8000d80:	e02b      	b.n	8000dda <main+0x1f2>
	  					else if (Get_event()==WLSide_Train_Detect_Event)
 8000d82:	f7ff fe4d 	bl	8000a20 <Get_event>
 8000d86:	4603      	mov	r3, r0
 8000d88:	2b04      	cmp	r3, #4
 8000d8a:	d102      	bne.n	8000d92 <main+0x1aa>
	  						WLSide_Train_Presence_State_Handler();
 8000d8c:	f001 fbc4 	bl	8002518 <WLSide_Train_Presence_State_Handler>
	  						break;
 8000d90:	e023      	b.n	8000dda <main+0x1f2>
	  					if(strcmp(Abox_not_ready,Recv_Ping)==0)
 8000d92:	493b      	ldr	r1, [pc, #236]	; (8000e80 <main+0x298>)
 8000d94:	483b      	ldr	r0, [pc, #236]	; (8000e84 <main+0x29c>)
 8000d96:	f7ff fa17 	bl	80001c8 <strcmp>
 8000d9a:	4603      	mov	r3, r0
 8000d9c:	2b00      	cmp	r3, #0
 8000d9e:	d108      	bne.n	8000db2 <main+0x1ca>
	  						Timer17_Stop();
 8000da0:	f7ff ff06 	bl	8000bb0 <Timer17_Stop>
	  						tim17_count=0;
 8000da4:	4b38      	ldr	r3, [pc, #224]	; (8000e88 <main+0x2a0>)
 8000da6:	2200      	movs	r2, #0
 8000da8:	601a      	str	r2, [r3, #0]
	  						Set_state(Reset_State);
 8000daa:	2002      	movs	r0, #2
 8000dac:	f001 fac6 	bl	800233c <Set_state>
	  						break;
 8000db0:	e013      	b.n	8000dda <main+0x1f2>
	  					else if(strcmp(Ping_ack,Recv_Ping)!=0)
 8000db2:	4933      	ldr	r1, [pc, #204]	; (8000e80 <main+0x298>)
 8000db4:	4835      	ldr	r0, [pc, #212]	; (8000e8c <main+0x2a4>)
 8000db6:	f7ff fa07 	bl	80001c8 <strcmp>
 8000dba:	4603      	mov	r3, r0
 8000dbc:	2b00      	cmp	r3, #0
 8000dbe:	d008      	beq.n	8000dd2 <main+0x1ea>
	  						Timer17_Stop();
 8000dc0:	f7ff fef6 	bl	8000bb0 <Timer17_Stop>
	  						tim17_count=0;
 8000dc4:	4b30      	ldr	r3, [pc, #192]	; (8000e88 <main+0x2a0>)
 8000dc6:	2200      	movs	r2, #0
 8000dc8:	601a      	str	r2, [r3, #0]
	  						Set_state(Initilisation_State);
 8000dca:	2001      	movs	r0, #1
 8000dcc:	f001 fab6 	bl	800233c <Set_state>
	  						break;
 8000dd0:	e003      	b.n	8000dda <main+0x1f2>
	  				while(tim17_count<TIM17TIMEOOUTPERIOD)
 8000dd2:	4b2d      	ldr	r3, [pc, #180]	; (8000e88 <main+0x2a0>)
 8000dd4:	681b      	ldr	r3, [r3, #0]
 8000dd6:	2b04      	cmp	r3, #4
 8000dd8:	d9c5      	bls.n	8000d66 <main+0x17e>
	  				Timer17_Stop();
 8000dda:	f7ff fee9 	bl	8000bb0 <Timer17_Stop>
	  				tim17_count=0;
 8000dde:	4b2a      	ldr	r3, [pc, #168]	; (8000e88 <main+0x2a0>)
 8000de0:	2200      	movs	r2, #0
 8000de2:	601a      	str	r2, [r3, #0]
	  		  break;
 8000de4:	e031      	b.n	8000e4a <main+0x262>

//			  itoa(count,Count_Bulletin,10);
//			  send(0, (uint32_t *)strcat(Count_Bulletin,","), strlen(Count_Bulletin));
//			  HAL_Delay(1000);

			  if (count>TIMEOOUTPERIOD)
 8000de6:	4b2a      	ldr	r3, [pc, #168]	; (8000e90 <main+0x2a8>)
 8000de8:	681b      	ldr	r3, [r3, #0]
 8000dea:	2b14      	cmp	r3, #20
 8000dec:	d902      	bls.n	8000df4 <main+0x20c>
			  {
				  Set_event(Train_Exit_Event);
 8000dee:	2005      	movs	r0, #5
 8000df0:	f7ff fe22 	bl	8000a38 <Set_event>
			  }

	  		  if(Get_event()==Train_Exit_Event)
 8000df4:	f7ff fe14 	bl	8000a20 <Get_event>
 8000df8:	4603      	mov	r3, r0
 8000dfa:	2b05      	cmp	r3, #5
 8000dfc:	d127      	bne.n	8000e4e <main+0x266>
	  		  {
	  			  Train_Exit_State_Handler();
 8000dfe:	f001 fb99 	bl	8002534 <Train_Exit_State_Handler>
	  		  }
	  		  break;
 8000e02:	e024      	b.n	8000e4e <main+0x266>

//			  itoa(count,Count_Bulletin1,10);
//			  send(0, (uint32_t *)strcat(Count_Bulletin1,","), strlen(Count_Bulletin1));
//			  HAL_Delay(1000);

			  if (count>TIMEOOUTPERIOD)
 8000e04:	4b22      	ldr	r3, [pc, #136]	; (8000e90 <main+0x2a8>)
 8000e06:	681b      	ldr	r3, [r3, #0]
 8000e08:	2b14      	cmp	r3, #20
 8000e0a:	d902      	bls.n	8000e12 <main+0x22a>
			  {
				  Set_event(Train_Exit_Event);
 8000e0c:	2005      	movs	r0, #5
 8000e0e:	f7ff fe13 	bl	8000a38 <Set_event>
			  }

	  		  if(Get_event()==Train_Exit_Event)
 8000e12:	f7ff fe05 	bl	8000a20 <Get_event>
 8000e16:	4603      	mov	r3, r0
 8000e18:	2b05      	cmp	r3, #5
 8000e1a:	d11a      	bne.n	8000e52 <main+0x26a>
	  		  {
	  			  Train_Exit_State_Handler();
 8000e1c:	f001 fb8a 	bl	8002534 <Train_Exit_State_Handler>
	  		  }
	  		  break;
 8000e20:	e017      	b.n	8000e52 <main+0x26a>

	  	  case Train_Exit_State:
	  		  if(Get_event()==Log_Data_Event)
 8000e22:	f7ff fdfd 	bl	8000a20 <Get_event>
 8000e26:	4603      	mov	r3, r0
 8000e28:	2b06      	cmp	r3, #6
 8000e2a:	d114      	bne.n	8000e56 <main+0x26e>
	  		  {
	  			  Log_Data_State_Handler();
 8000e2c:	f001 fb8e 	bl	800254c <Log_Data_State_Handler>
	  		  }
	  		  break;
 8000e30:	e011      	b.n	8000e56 <main+0x26e>

	  	  case Log_Data_State:
	  		  if(Get_event()==Reset_Event)
 8000e32:	f7ff fdf5 	bl	8000a20 <Get_event>
 8000e36:	4603      	mov	r3, r0
 8000e38:	2b01      	cmp	r3, #1
 8000e3a:	d10e      	bne.n	8000e5a <main+0x272>
	  		  {
	  			  Reset_State_Handler();
 8000e3c:	f001 faba 	bl	80023b4 <Reset_State_Handler>
	  		  }
	  		  break;
 8000e40:	e00b      	b.n	8000e5a <main+0x272>
	  		  break;
 8000e42:	bf00      	nop
 8000e44:	e6e9      	b.n	8000c1a <main+0x32>
	  		  break;
 8000e46:	bf00      	nop
 8000e48:	e6e7      	b.n	8000c1a <main+0x32>
	  		  break;
 8000e4a:	bf00      	nop
 8000e4c:	e6e5      	b.n	8000c1a <main+0x32>
	  		  break;
 8000e4e:	bf00      	nop
 8000e50:	e6e3      	b.n	8000c1a <main+0x32>
	  		  break;
 8000e52:	bf00      	nop
 8000e54:	e6e1      	b.n	8000c1a <main+0x32>
	  		  break;
 8000e56:	bf00      	nop
 8000e58:	e6df      	b.n	8000c1a <main+0x32>
	  		  break;
 8000e5a:	bf00      	nop
	  HAL_RTC_GetTime(RtcHandle, &sTime, RTC_FORMAT_BIN);
 8000e5c:	e6dd      	b.n	8000c1a <main+0x32>
 8000e5e:	bf00      	nop
 8000e60:	20001a4c 	.word	0x20001a4c
 8000e64:	20001a45 	.word	0x20001a45
 8000e68:	20001cf4 	.word	0x20001cf4
 8000e6c:	20001cec 	.word	0x20001cec
 8000e70:	6f01a8c0 	.word	0x6f01a8c0
 8000e74:	20001cf8 	.word	0x20001cf8
 8000e78:	20001cf9 	.word	0x20001cf9
 8000e7c:	08008458 	.word	0x08008458
 8000e80:	20001cfc 	.word	0x20001cfc
 8000e84:	20000804 	.word	0x20000804
 8000e88:	20001cf0 	.word	0x20001cf0
 8000e8c:	20000004 	.word	0x20000004
 8000e90:	20001ce8 	.word	0x20001ce8

08000e94 <SystemClock_Config>:
/**
  * @brief System Clock Configuration
  * @retval None
  */
void SystemClock_Config(void)
{
 8000e94:	b580      	push	{r7, lr}
 8000e96:	b09c      	sub	sp, #112	; 0x70
 8000e98:	af00      	add	r7, sp, #0
  RCC_OscInitTypeDef RCC_OscInitStruct = {0};
 8000e9a:	f107 0348 	add.w	r3, r7, #72	; 0x48
 8000e9e:	2228      	movs	r2, #40	; 0x28
 8000ea0:	2100      	movs	r1, #0
 8000ea2:	4618      	mov	r0, r3
 8000ea4:	f007 f926 	bl	80080f4 <memset>
  RCC_ClkInitTypeDef RCC_ClkInitStruct = {0};
 8000ea8:	f107 0334 	add.w	r3, r7, #52	; 0x34
 8000eac:	2200      	movs	r2, #0
 8000eae:	601a      	str	r2, [r3, #0]
 8000eb0:	605a      	str	r2, [r3, #4]
 8000eb2:	609a      	str	r2, [r3, #8]
 8000eb4:	60da      	str	r2, [r3, #12]
 8000eb6:	611a      	str	r2, [r3, #16]
  RCC_PeriphCLKInitTypeDef PeriphClkInit = {0};
 8000eb8:	1d3b      	adds	r3, r7, #4
 8000eba:	2230      	movs	r2, #48	; 0x30
 8000ebc:	2100      	movs	r1, #0
 8000ebe:	4618      	mov	r0, r3
 8000ec0:	f007 f918 	bl	80080f4 <memset>

  /** Configure LSE Drive Capability
  */
  HAL_PWR_EnableBkUpAccess();
 8000ec4:	f003 f904 	bl	80040d0 <HAL_PWR_EnableBkUpAccess>
  __HAL_RCC_LSEDRIVE_CONFIG(RCC_LSEDRIVE_LOW);
 8000ec8:	4b27      	ldr	r3, [pc, #156]	; (8000f68 <SystemClock_Config+0xd4>)
 8000eca:	6a1b      	ldr	r3, [r3, #32]
 8000ecc:	4a26      	ldr	r2, [pc, #152]	; (8000f68 <SystemClock_Config+0xd4>)
 8000ece:	f023 0318 	bic.w	r3, r3, #24
 8000ed2:	6213      	str	r3, [r2, #32]
  /** Initializes the RCC Oscillators according to the specified parameters
  * in the RCC_OscInitTypeDef structure.
  */
  RCC_OscInitStruct.OscillatorType = RCC_OSCILLATORTYPE_HSE|RCC_OSCILLATORTYPE_LSE;
 8000ed4:	2305      	movs	r3, #5
 8000ed6:	64bb      	str	r3, [r7, #72]	; 0x48
  RCC_OscInitStruct.HSEState = RCC_HSE_ON;
 8000ed8:	f44f 3380 	mov.w	r3, #65536	; 0x10000
 8000edc:	64fb      	str	r3, [r7, #76]	; 0x4c
  RCC_OscInitStruct.HSEPredivValue = RCC_HSE_PREDIV_DIV5;
 8000ede:	2304      	movs	r3, #4
 8000ee0:	653b      	str	r3, [r7, #80]	; 0x50
  RCC_OscInitStruct.LSEState = RCC_LSE_ON;
 8000ee2:	2301      	movs	r3, #1
 8000ee4:	657b      	str	r3, [r7, #84]	; 0x54
  RCC_OscInitStruct.HSIState = RCC_HSI_ON;
 8000ee6:	2301      	movs	r3, #1
 8000ee8:	65bb      	str	r3, [r7, #88]	; 0x58
  RCC_OscInitStruct.PLL.PLLState = RCC_PLL_ON;
 8000eea:	2302      	movs	r3, #2
 8000eec:	667b      	str	r3, [r7, #100]	; 0x64
  RCC_OscInitStruct.PLL.PLLSource = RCC_PLLSOURCE_HSE;
 8000eee:	f44f 3380 	mov.w	r3, #65536	; 0x10000
 8000ef2:	66bb      	str	r3, [r7, #104]	; 0x68
  RCC_OscInitStruct.PLL.PLLMUL = RCC_PLL_MUL14;
 8000ef4:	f44f 1340 	mov.w	r3, #3145728	; 0x300000
 8000ef8:	66fb      	str	r3, [r7, #108]	; 0x6c
  if (HAL_RCC_OscConfig(&RCC_OscInitStruct) != HAL_OK)
 8000efa:	f107 0348 	add.w	r3, r7, #72	; 0x48
 8000efe:	4618      	mov	r0, r3
 8000f00:	f003 f906 	bl	8004110 <HAL_RCC_OscConfig>
 8000f04:	4603      	mov	r3, r0
 8000f06:	2b00      	cmp	r3, #0
 8000f08:	d001      	beq.n	8000f0e <SystemClock_Config+0x7a>
  {
    Error_Handler();
 8000f0a:	f000 fbc9 	bl	80016a0 <Error_Handler>
  }
  /** Initializes the CPU, AHB and APB buses clocks
  */
  RCC_ClkInitStruct.ClockType = RCC_CLOCKTYPE_HCLK|RCC_CLOCKTYPE_SYSCLK
 8000f0e:	230f      	movs	r3, #15
 8000f10:	637b      	str	r3, [r7, #52]	; 0x34
                              |RCC_CLOCKTYPE_PCLK1|RCC_CLOCKTYPE_PCLK2;
  RCC_ClkInitStruct.SYSCLKSource = RCC_SYSCLKSOURCE_PLLCLK;
 8000f12:	2302      	movs	r3, #2
 8000f14:	63bb      	str	r3, [r7, #56]	; 0x38
  RCC_ClkInitStruct.AHBCLKDivider = RCC_SYSCLK_DIV1;
 8000f16:	2300      	movs	r3, #0
 8000f18:	63fb      	str	r3, [r7, #60]	; 0x3c
  RCC_ClkInitStruct.APB1CLKDivider = RCC_HCLK_DIV2;
 8000f1a:	f44f 6380 	mov.w	r3, #1024	; 0x400
 8000f1e:	643b      	str	r3, [r7, #64]	; 0x40
  RCC_ClkInitStruct.APB2CLKDivider = RCC_HCLK_DIV1;
 8000f20:	2300      	movs	r3, #0
 8000f22:	647b      	str	r3, [r7, #68]	; 0x44

  if (HAL_RCC_ClockConfig(&RCC_ClkInitStruct, FLASH_LATENCY_2) != HAL_OK)
 8000f24:	f107 0334 	add.w	r3, r7, #52	; 0x34
 8000f28:	2102      	movs	r1, #2
 8000f2a:	4618      	mov	r0, r3
 8000f2c:	f004 f92e 	bl	800518c <HAL_RCC_ClockConfig>
 8000f30:	4603      	mov	r3, r0
 8000f32:	2b00      	cmp	r3, #0
 8000f34:	d001      	beq.n	8000f3a <SystemClock_Config+0xa6>
  {
    Error_Handler();
 8000f36:	f000 fbb3 	bl	80016a0 <Error_Handler>
  }
  PeriphClkInit.PeriphClockSelection = RCC_PERIPHCLK_RTC|RCC_PERIPHCLK_TIM16
 8000f3a:	f44f 13c8 	mov.w	r3, #1638400	; 0x190000
 8000f3e:	607b      	str	r3, [r7, #4]
                              |RCC_PERIPHCLK_TIM17;
  PeriphClkInit.RTCClockSelection = RCC_RTCCLKSOURCE_LSE;
 8000f40:	f44f 7380 	mov.w	r3, #256	; 0x100
 8000f44:	60bb      	str	r3, [r7, #8]
  PeriphClkInit.Tim16ClockSelection = RCC_TIM16CLK_HCLK;
 8000f46:	2300      	movs	r3, #0
 8000f48:	62fb      	str	r3, [r7, #44]	; 0x2c
  PeriphClkInit.Tim17ClockSelection = RCC_TIM17CLK_HCLK;
 8000f4a:	2300      	movs	r3, #0
 8000f4c:	633b      	str	r3, [r7, #48]	; 0x30
  if (HAL_RCCEx_PeriphCLKConfig(&PeriphClkInit) != HAL_OK)
 8000f4e:	1d3b      	adds	r3, r7, #4
 8000f50:	4618      	mov	r0, r3
 8000f52:	f004 fb53 	bl	80055fc <HAL_RCCEx_PeriphCLKConfig>
 8000f56:	4603      	mov	r3, r0
 8000f58:	2b00      	cmp	r3, #0
 8000f5a:	d001      	beq.n	8000f60 <SystemClock_Config+0xcc>
  {
    Error_Handler();
 8000f5c:	f000 fba0 	bl	80016a0 <Error_Handler>
  }
}
 8000f60:	bf00      	nop
 8000f62:	3770      	adds	r7, #112	; 0x70
 8000f64:	46bd      	mov	sp, r7
 8000f66:	bd80      	pop	{r7, pc}
 8000f68:	40021000 	.word	0x40021000

08000f6c <MX_RTC_Init>:
  * @brief RTC Initialization Function
  * @param None
  * @retval None
  */
static void MX_RTC_Init(void)
{
 8000f6c:	b580      	push	{r7, lr}
 8000f6e:	b086      	sub	sp, #24
 8000f70:	af00      	add	r7, sp, #0

  /* USER CODE BEGIN RTC_Init 0 */

  /* USER CODE END RTC_Init 0 */

  RTC_TimeTypeDef sTime = {0};
 8000f72:	1d3b      	adds	r3, r7, #4
 8000f74:	2200      	movs	r2, #0
 8000f76:	601a      	str	r2, [r3, #0]
 8000f78:	605a      	str	r2, [r3, #4]
 8000f7a:	609a      	str	r2, [r3, #8]
 8000f7c:	60da      	str	r2, [r3, #12]
 8000f7e:	611a      	str	r2, [r3, #16]
  RTC_DateTypeDef sDate = {0};
 8000f80:	2300      	movs	r3, #0
 8000f82:	603b      	str	r3, [r7, #0]
  /* USER CODE BEGIN RTC_Init 1 */

  /* USER CODE END RTC_Init 1 */
  /** Initialize RTC Only
  */
  hrtc.Instance = RTC;
 8000f84:	4b33      	ldr	r3, [pc, #204]	; (8001054 <MX_RTC_Init+0xe8>)
 8000f86:	4a34      	ldr	r2, [pc, #208]	; (8001058 <MX_RTC_Init+0xec>)
 8000f88:	601a      	str	r2, [r3, #0]
  hrtc.Init.HourFormat = RTC_HOURFORMAT_24;
 8000f8a:	4b32      	ldr	r3, [pc, #200]	; (8001054 <MX_RTC_Init+0xe8>)
 8000f8c:	2200      	movs	r2, #0
 8000f8e:	605a      	str	r2, [r3, #4]
  hrtc.Init.AsynchPrediv = 127;
 8000f90:	4b30      	ldr	r3, [pc, #192]	; (8001054 <MX_RTC_Init+0xe8>)
 8000f92:	227f      	movs	r2, #127	; 0x7f
 8000f94:	609a      	str	r2, [r3, #8]
  hrtc.Init.SynchPrediv = 255;
 8000f96:	4b2f      	ldr	r3, [pc, #188]	; (8001054 <MX_RTC_Init+0xe8>)
 8000f98:	22ff      	movs	r2, #255	; 0xff
 8000f9a:	60da      	str	r2, [r3, #12]
  hrtc.Init.OutPut = RTC_OUTPUT_DISABLE;
 8000f9c:	4b2d      	ldr	r3, [pc, #180]	; (8001054 <MX_RTC_Init+0xe8>)
 8000f9e:	2200      	movs	r2, #0
 8000fa0:	611a      	str	r2, [r3, #16]
  hrtc.Init.OutPutPolarity = RTC_OUTPUT_POLARITY_HIGH;
 8000fa2:	4b2c      	ldr	r3, [pc, #176]	; (8001054 <MX_RTC_Init+0xe8>)
 8000fa4:	2200      	movs	r2, #0
 8000fa6:	615a      	str	r2, [r3, #20]
  hrtc.Init.OutPutType = RTC_OUTPUT_TYPE_OPENDRAIN;
 8000fa8:	4b2a      	ldr	r3, [pc, #168]	; (8001054 <MX_RTC_Init+0xe8>)
 8000faa:	2200      	movs	r2, #0
 8000fac:	619a      	str	r2, [r3, #24]
  if (HAL_RTC_Init(&hrtc) != HAL_OK)
 8000fae:	4829      	ldr	r0, [pc, #164]	; (8001054 <MX_RTC_Init+0xe8>)
 8000fb0:	f004 fca8 	bl	8005904 <HAL_RTC_Init>
 8000fb4:	4603      	mov	r3, r0
 8000fb6:	2b00      	cmp	r3, #0
 8000fb8:	d001      	beq.n	8000fbe <MX_RTC_Init+0x52>
  {
    Error_Handler();
 8000fba:	f000 fb71 	bl	80016a0 <Error_Handler>
  }

  /* USER CODE BEGIN Check_RTC_BKUP */
  if (HAL_RTCEx_BKUPRead(&hrtc, RTC_BKP_DR1) != 0xBEBE)
 8000fbe:	2101      	movs	r1, #1
 8000fc0:	4824      	ldr	r0, [pc, #144]	; (8001054 <MX_RTC_Init+0xe8>)
 8000fc2:	f005 f87f 	bl	80060c4 <HAL_RTCEx_BKUPRead>
 8000fc6:	4603      	mov	r3, r0
 8000fc8:	f64b 62be 	movw	r2, #48830	; 0xbebe
 8000fcc:	4293      	cmp	r3, r2
 8000fce:	d03c      	beq.n	800104a <MX_RTC_Init+0xde>
     {
     // Write Back Up Register 1 Data
     HAL_PWR_EnableBkUpAccess();
 8000fd0:	f003 f87e 	bl	80040d0 <HAL_PWR_EnableBkUpAccess>
     // Writes a data in a RTC Backup data Register 1
     HAL_RTCEx_BKUPWrite(&hrtc, RTC_BKP_DR1, 0xBEBE);
 8000fd4:	f64b 62be 	movw	r2, #48830	; 0xbebe
 8000fd8:	2101      	movs	r1, #1
 8000fda:	481e      	ldr	r0, [pc, #120]	; (8001054 <MX_RTC_Init+0xe8>)
 8000fdc:	f005 f858 	bl	8006090 <HAL_RTCEx_BKUPWrite>
     HAL_PWR_DisableBkUpAccess();
 8000fe0:	f003 f886 	bl	80040f0 <HAL_PWR_DisableBkUpAccess>

  /* USER CODE END Check_RTC_BKUP */

  /** Initialize RTC and set the Time and Date
  */
  sTime.Hours = 15;
 8000fe4:	230f      	movs	r3, #15
 8000fe6:	713b      	strb	r3, [r7, #4]
  sTime.Minutes = 16;
 8000fe8:	2310      	movs	r3, #16
 8000fea:	717b      	strb	r3, [r7, #5]
  sTime.Seconds = 0;
 8000fec:	2300      	movs	r3, #0
 8000fee:	71bb      	strb	r3, [r7, #6]
  sTime.DayLightSaving = RTC_DAYLIGHTSAVING_NONE;
 8000ff0:	2300      	movs	r3, #0
 8000ff2:	613b      	str	r3, [r7, #16]
  sTime.StoreOperation = RTC_STOREOPERATION_RESET;
 8000ff4:	2300      	movs	r3, #0
 8000ff6:	617b      	str	r3, [r7, #20]
  if (HAL_RTC_SetTime(&hrtc, &sTime, RTC_FORMAT_BIN) != HAL_OK)
 8000ff8:	1d3b      	adds	r3, r7, #4
 8000ffa:	2200      	movs	r2, #0
 8000ffc:	4619      	mov	r1, r3
 8000ffe:	4815      	ldr	r0, [pc, #84]	; (8001054 <MX_RTC_Init+0xe8>)
 8001000:	f004 fd11 	bl	8005a26 <HAL_RTC_SetTime>
 8001004:	4603      	mov	r3, r0
 8001006:	2b00      	cmp	r3, #0
 8001008:	d001      	beq.n	800100e <MX_RTC_Init+0xa2>
  {
    Error_Handler();
 800100a:	f000 fb49 	bl	80016a0 <Error_Handler>
  }
  sDate.WeekDay = RTC_WEEKDAY_WEDNESDAY;
 800100e:	2303      	movs	r3, #3
 8001010:	703b      	strb	r3, [r7, #0]
  sDate.Month = RTC_MONTH_MARCH;
 8001012:	2303      	movs	r3, #3
 8001014:	707b      	strb	r3, [r7, #1]
  sDate.Date = 30;
 8001016:	231e      	movs	r3, #30
 8001018:	70bb      	strb	r3, [r7, #2]
  sDate.Year = 23;
 800101a:	2317      	movs	r3, #23
 800101c:	70fb      	strb	r3, [r7, #3]

  if (HAL_RTC_SetDate(&hrtc, &sDate, RTC_FORMAT_BIN) != HAL_OK)
 800101e:	463b      	mov	r3, r7
 8001020:	2200      	movs	r2, #0
 8001022:	4619      	mov	r1, r3
 8001024:	480b      	ldr	r0, [pc, #44]	; (8001054 <MX_RTC_Init+0xe8>)
 8001026:	f004 fe19 	bl	8005c5c <HAL_RTC_SetDate>
 800102a:	4603      	mov	r3, r0
 800102c:	2b00      	cmp	r3, #0
 800102e:	d001      	beq.n	8001034 <MX_RTC_Init+0xc8>
  {
    Error_Handler();
 8001030:	f000 fb36 	bl	80016a0 <Error_Handler>
  }
  /** Enable the WakeUp
  */
  if (HAL_RTCEx_SetWakeUpTimer(&hrtc, 0, RTC_WAKEUPCLOCK_RTCCLK_DIV16) != HAL_OK)
 8001034:	2200      	movs	r2, #0
 8001036:	2100      	movs	r1, #0
 8001038:	4806      	ldr	r0, [pc, #24]	; (8001054 <MX_RTC_Init+0xe8>)
 800103a:	f004 ff95 	bl	8005f68 <HAL_RTCEx_SetWakeUpTimer>
 800103e:	4603      	mov	r3, r0
 8001040:	2b00      	cmp	r3, #0
 8001042:	d003      	beq.n	800104c <MX_RTC_Init+0xe0>
  {
    Error_Handler();
 8001044:	f000 fb2c 	bl	80016a0 <Error_Handler>
 8001048:	e000      	b.n	800104c <MX_RTC_Init+0xe0>
        return;
 800104a:	bf00      	nop
  }
  /* USER CODE BEGIN RTC_Init 2 */

  /* USER CODE END RTC_Init 2 */

}
 800104c:	3718      	adds	r7, #24
 800104e:	46bd      	mov	sp, r7
 8001050:	bd80      	pop	{r7, pc}
 8001052:	bf00      	nop
 8001054:	20001a4c 	.word	0x20001a4c
 8001058:	40002800 	.word	0x40002800

0800105c <MX_SPI2_Init>:
  * @brief SPI2 Initialization Function
  * @param None
  * @retval None
  */
static void MX_SPI2_Init(void)
{
 800105c:	b580      	push	{r7, lr}
 800105e:	af00      	add	r7, sp, #0

  /* USER CODE BEGIN SPI2_Init 1 */

  /* USER CODE END SPI2_Init 1 */
  /* SPI2 parameter configuration*/
  hspi2.Instance = SPI2;
 8001060:	4b1b      	ldr	r3, [pc, #108]	; (80010d0 <MX_SPI2_Init+0x74>)
 8001062:	4a1c      	ldr	r2, [pc, #112]	; (80010d4 <MX_SPI2_Init+0x78>)
 8001064:	601a      	str	r2, [r3, #0]
  hspi2.Init.Mode = SPI_MODE_MASTER;
 8001066:	4b1a      	ldr	r3, [pc, #104]	; (80010d0 <MX_SPI2_Init+0x74>)
 8001068:	f44f 7282 	mov.w	r2, #260	; 0x104
 800106c:	605a      	str	r2, [r3, #4]
  hspi2.Init.Direction = SPI_DIRECTION_2LINES;
 800106e:	4b18      	ldr	r3, [pc, #96]	; (80010d0 <MX_SPI2_Init+0x74>)
 8001070:	2200      	movs	r2, #0
 8001072:	609a      	str	r2, [r3, #8]
  hspi2.Init.DataSize = SPI_DATASIZE_8BIT;
 8001074:	4b16      	ldr	r3, [pc, #88]	; (80010d0 <MX_SPI2_Init+0x74>)
 8001076:	f44f 62e0 	mov.w	r2, #1792	; 0x700
 800107a:	60da      	str	r2, [r3, #12]
  hspi2.Init.CLKPolarity = SPI_POLARITY_LOW;
 800107c:	4b14      	ldr	r3, [pc, #80]	; (80010d0 <MX_SPI2_Init+0x74>)
 800107e:	2200      	movs	r2, #0
 8001080:	611a      	str	r2, [r3, #16]
  hspi2.Init.CLKPhase = SPI_PHASE_1EDGE;
 8001082:	4b13      	ldr	r3, [pc, #76]	; (80010d0 <MX_SPI2_Init+0x74>)
 8001084:	2200      	movs	r2, #0
 8001086:	615a      	str	r2, [r3, #20]
  hspi2.Init.NSS = SPI_NSS_SOFT;
 8001088:	4b11      	ldr	r3, [pc, #68]	; (80010d0 <MX_SPI2_Init+0x74>)
 800108a:	f44f 7200 	mov.w	r2, #512	; 0x200
 800108e:	619a      	str	r2, [r3, #24]
  hspi2.Init.BaudRatePrescaler = SPI_BAUDRATEPRESCALER_2;
 8001090:	4b0f      	ldr	r3, [pc, #60]	; (80010d0 <MX_SPI2_Init+0x74>)
 8001092:	2200      	movs	r2, #0
 8001094:	61da      	str	r2, [r3, #28]
  hspi2.Init.FirstBit = SPI_FIRSTBIT_MSB;
 8001096:	4b0e      	ldr	r3, [pc, #56]	; (80010d0 <MX_SPI2_Init+0x74>)
 8001098:	2200      	movs	r2, #0
 800109a:	621a      	str	r2, [r3, #32]
  hspi2.Init.TIMode = SPI_TIMODE_DISABLE;
 800109c:	4b0c      	ldr	r3, [pc, #48]	; (80010d0 <MX_SPI2_Init+0x74>)
 800109e:	2200      	movs	r2, #0
 80010a0:	625a      	str	r2, [r3, #36]	; 0x24
  hspi2.Init.CRCCalculation = SPI_CRCCALCULATION_DISABLE;
 80010a2:	4b0b      	ldr	r3, [pc, #44]	; (80010d0 <MX_SPI2_Init+0x74>)
 80010a4:	2200      	movs	r2, #0
 80010a6:	629a      	str	r2, [r3, #40]	; 0x28
  hspi2.Init.CRCPolynomial = 7;
 80010a8:	4b09      	ldr	r3, [pc, #36]	; (80010d0 <MX_SPI2_Init+0x74>)
 80010aa:	2207      	movs	r2, #7
 80010ac:	62da      	str	r2, [r3, #44]	; 0x2c
  hspi2.Init.CRCLength = SPI_CRC_LENGTH_DATASIZE;
 80010ae:	4b08      	ldr	r3, [pc, #32]	; (80010d0 <MX_SPI2_Init+0x74>)
 80010b0:	2200      	movs	r2, #0
 80010b2:	631a      	str	r2, [r3, #48]	; 0x30
  hspi2.Init.NSSPMode = SPI_NSS_PULSE_ENABLE;
 80010b4:	4b06      	ldr	r3, [pc, #24]	; (80010d0 <MX_SPI2_Init+0x74>)
 80010b6:	2208      	movs	r2, #8
 80010b8:	635a      	str	r2, [r3, #52]	; 0x34
  if (HAL_SPI_Init(&hspi2) != HAL_OK)
 80010ba:	4805      	ldr	r0, [pc, #20]	; (80010d0 <MX_SPI2_Init+0x74>)
 80010bc:	f005 f81a 	bl	80060f4 <HAL_SPI_Init>
 80010c0:	4603      	mov	r3, r0
 80010c2:	2b00      	cmp	r3, #0
 80010c4:	d001      	beq.n	80010ca <MX_SPI2_Init+0x6e>
  {
    Error_Handler();
 80010c6:	f000 faeb 	bl	80016a0 <Error_Handler>
  }
  /* USER CODE BEGIN SPI2_Init 2 */

  /* USER CODE END SPI2_Init 2 */

}
 80010ca:	bf00      	nop
 80010cc:	bd80      	pop	{r7, pc}
 80010ce:	bf00      	nop
 80010d0:	20001a6c 	.word	0x20001a6c
 80010d4:	40003800 	.word	0x40003800

080010d8 <MX_SPI3_Init>:
  * @brief SPI3 Initialization Function
  * @param None
  * @retval None
  */
static void MX_SPI3_Init(void)
{
 80010d8:	b580      	push	{r7, lr}
 80010da:	af00      	add	r7, sp, #0

  /* USER CODE BEGIN SPI3_Init 1 */

  /* USER CODE END SPI3_Init 1 */
  /* SPI3 parameter configuration*/
  hspi3.Instance = SPI3;
 80010dc:	4b1b      	ldr	r3, [pc, #108]	; (800114c <MX_SPI3_Init+0x74>)
 80010de:	4a1c      	ldr	r2, [pc, #112]	; (8001150 <MX_SPI3_Init+0x78>)
 80010e0:	601a      	str	r2, [r3, #0]
  hspi3.Init.Mode = SPI_MODE_MASTER;
 80010e2:	4b1a      	ldr	r3, [pc, #104]	; (800114c <MX_SPI3_Init+0x74>)
 80010e4:	f44f 7282 	mov.w	r2, #260	; 0x104
 80010e8:	605a      	str	r2, [r3, #4]
  hspi3.Init.Direction = SPI_DIRECTION_2LINES;
 80010ea:	4b18      	ldr	r3, [pc, #96]	; (800114c <MX_SPI3_Init+0x74>)
 80010ec:	2200      	movs	r2, #0
 80010ee:	609a      	str	r2, [r3, #8]
  hspi3.Init.DataSize = SPI_DATASIZE_8BIT;
 80010f0:	4b16      	ldr	r3, [pc, #88]	; (800114c <MX_SPI3_Init+0x74>)
 80010f2:	f44f 62e0 	mov.w	r2, #1792	; 0x700
 80010f6:	60da      	str	r2, [r3, #12]
  hspi3.Init.CLKPolarity = SPI_POLARITY_LOW;
 80010f8:	4b14      	ldr	r3, [pc, #80]	; (800114c <MX_SPI3_Init+0x74>)
 80010fa:	2200      	movs	r2, #0
 80010fc:	611a      	str	r2, [r3, #16]
  hspi3.Init.CLKPhase = SPI_PHASE_1EDGE;
 80010fe:	4b13      	ldr	r3, [pc, #76]	; (800114c <MX_SPI3_Init+0x74>)
 8001100:	2200      	movs	r2, #0
 8001102:	615a      	str	r2, [r3, #20]
  hspi3.Init.NSS = SPI_NSS_SOFT;
 8001104:	4b11      	ldr	r3, [pc, #68]	; (800114c <MX_SPI3_Init+0x74>)
 8001106:	f44f 7200 	mov.w	r2, #512	; 0x200
 800110a:	619a      	str	r2, [r3, #24]
  hspi3.Init.BaudRatePrescaler = SPI_BAUDRATEPRESCALER_2;
 800110c:	4b0f      	ldr	r3, [pc, #60]	; (800114c <MX_SPI3_Init+0x74>)
 800110e:	2200      	movs	r2, #0
 8001110:	61da      	str	r2, [r3, #28]
  hspi3.Init.FirstBit = SPI_FIRSTBIT_MSB;
 8001112:	4b0e      	ldr	r3, [pc, #56]	; (800114c <MX_SPI3_Init+0x74>)
 8001114:	2200      	movs	r2, #0
 8001116:	621a      	str	r2, [r3, #32]
  hspi3.Init.TIMode = SPI_TIMODE_DISABLE;
 8001118:	4b0c      	ldr	r3, [pc, #48]	; (800114c <MX_SPI3_Init+0x74>)
 800111a:	2200      	movs	r2, #0
 800111c:	625a      	str	r2, [r3, #36]	; 0x24
  hspi3.Init.CRCCalculation = SPI_CRCCALCULATION_DISABLE;
 800111e:	4b0b      	ldr	r3, [pc, #44]	; (800114c <MX_SPI3_Init+0x74>)
 8001120:	2200      	movs	r2, #0
 8001122:	629a      	str	r2, [r3, #40]	; 0x28
  hspi3.Init.CRCPolynomial = 7;
 8001124:	4b09      	ldr	r3, [pc, #36]	; (800114c <MX_SPI3_Init+0x74>)
 8001126:	2207      	movs	r2, #7
 8001128:	62da      	str	r2, [r3, #44]	; 0x2c
  hspi3.Init.CRCLength = SPI_CRC_LENGTH_DATASIZE;
 800112a:	4b08      	ldr	r3, [pc, #32]	; (800114c <MX_SPI3_Init+0x74>)
 800112c:	2200      	movs	r2, #0
 800112e:	631a      	str	r2, [r3, #48]	; 0x30
  hspi3.Init.NSSPMode = SPI_NSS_PULSE_ENABLE;
 8001130:	4b06      	ldr	r3, [pc, #24]	; (800114c <MX_SPI3_Init+0x74>)
 8001132:	2208      	movs	r2, #8
 8001134:	635a      	str	r2, [r3, #52]	; 0x34
  if (HAL_SPI_Init(&hspi3) != HAL_OK)
 8001136:	4805      	ldr	r0, [pc, #20]	; (800114c <MX_SPI3_Init+0x74>)
 8001138:	f004 ffdc 	bl	80060f4 <HAL_SPI_Init>
 800113c:	4603      	mov	r3, r0
 800113e:	2b00      	cmp	r3, #0
 8001140:	d001      	beq.n	8001146 <MX_SPI3_Init+0x6e>
  {
    Error_Handler();
 8001142:	f000 faad 	bl	80016a0 <Error_Handler>
  }
  /* USER CODE BEGIN SPI3_Init 2 */

  /* USER CODE END SPI3_Init 2 */

}
 8001146:	bf00      	nop
 8001148:	bd80      	pop	{r7, pc}
 800114a:	bf00      	nop
 800114c:	20001ad0 	.word	0x20001ad0
 8001150:	40003c00 	.word	0x40003c00

08001154 <MX_TIM2_Init>:
  * @brief TIM2 Initialization Function
  * @param None
  * @retval None
  */
static void MX_TIM2_Init(void)
{
 8001154:	b580      	push	{r7, lr}
 8001156:	b088      	sub	sp, #32
 8001158:	af00      	add	r7, sp, #0

  /* USER CODE BEGIN TIM2_Init 0 */

  /* USER CODE END TIM2_Init 0 */

  TIM_ClockConfigTypeDef sClockSourceConfig = {0};
 800115a:	f107 0310 	add.w	r3, r7, #16
 800115e:	2200      	movs	r2, #0
 8001160:	601a      	str	r2, [r3, #0]
 8001162:	605a      	str	r2, [r3, #4]
 8001164:	609a      	str	r2, [r3, #8]
 8001166:	60da      	str	r2, [r3, #12]
  TIM_MasterConfigTypeDef sMasterConfig = {0};
 8001168:	1d3b      	adds	r3, r7, #4
 800116a:	2200      	movs	r2, #0
 800116c:	601a      	str	r2, [r3, #0]
 800116e:	605a      	str	r2, [r3, #4]
 8001170:	609a      	str	r2, [r3, #8]

  /* USER CODE BEGIN TIM2_Init 1 */

  /* USER CODE END TIM2_Init 1 */
  htim2.Instance = TIM2;
 8001172:	4b1e      	ldr	r3, [pc, #120]	; (80011ec <MX_TIM2_Init+0x98>)
 8001174:	f04f 4280 	mov.w	r2, #1073741824	; 0x40000000
 8001178:	601a      	str	r2, [r3, #0]
  htim2.Init.Prescaler = 70-1;
 800117a:	4b1c      	ldr	r3, [pc, #112]	; (80011ec <MX_TIM2_Init+0x98>)
 800117c:	2245      	movs	r2, #69	; 0x45
 800117e:	605a      	str	r2, [r3, #4]
  htim2.Init.CounterMode = TIM_COUNTERMODE_UP;
 8001180:	4b1a      	ldr	r3, [pc, #104]	; (80011ec <MX_TIM2_Init+0x98>)
 8001182:	2200      	movs	r2, #0
 8001184:	609a      	str	r2, [r3, #8]
  htim2.Init.Period = 0xFFFFFFFF-1;
 8001186:	4b19      	ldr	r3, [pc, #100]	; (80011ec <MX_TIM2_Init+0x98>)
 8001188:	f06f 0201 	mvn.w	r2, #1
 800118c:	60da      	str	r2, [r3, #12]
  htim2.Init.ClockDivision = TIM_CLOCKDIVISION_DIV1;
 800118e:	4b17      	ldr	r3, [pc, #92]	; (80011ec <MX_TIM2_Init+0x98>)
 8001190:	2200      	movs	r2, #0
 8001192:	611a      	str	r2, [r3, #16]
  htim2.Init.AutoReloadPreload = TIM_AUTORELOAD_PRELOAD_DISABLE;
 8001194:	4b15      	ldr	r3, [pc, #84]	; (80011ec <MX_TIM2_Init+0x98>)
 8001196:	2200      	movs	r2, #0
 8001198:	619a      	str	r2, [r3, #24]
  if (HAL_TIM_Base_Init(&htim2) != HAL_OK)
 800119a:	4814      	ldr	r0, [pc, #80]	; (80011ec <MX_TIM2_Init+0x98>)
 800119c:	f005 fec2 	bl	8006f24 <HAL_TIM_Base_Init>
 80011a0:	4603      	mov	r3, r0
 80011a2:	2b00      	cmp	r3, #0
 80011a4:	d001      	beq.n	80011aa <MX_TIM2_Init+0x56>
  {
    Error_Handler();
 80011a6:	f000 fa7b 	bl	80016a0 <Error_Handler>
  }
  sClockSourceConfig.ClockSource = TIM_CLOCKSOURCE_INTERNAL;
 80011aa:	f44f 5380 	mov.w	r3, #4096	; 0x1000
 80011ae:	613b      	str	r3, [r7, #16]
  if (HAL_TIM_ConfigClockSource(&htim2, &sClockSourceConfig) != HAL_OK)
 80011b0:	f107 0310 	add.w	r3, r7, #16
 80011b4:	4619      	mov	r1, r3
 80011b6:	480d      	ldr	r0, [pc, #52]	; (80011ec <MX_TIM2_Init+0x98>)
 80011b8:	f006 f97e 	bl	80074b8 <HAL_TIM_ConfigClockSource>
 80011bc:	4603      	mov	r3, r0
 80011be:	2b00      	cmp	r3, #0
 80011c0:	d001      	beq.n	80011c6 <MX_TIM2_Init+0x72>
  {
    Error_Handler();
 80011c2:	f000 fa6d 	bl	80016a0 <Error_Handler>
  }
  sMasterConfig.MasterOutputTrigger = TIM_TRGO_RESET;
 80011c6:	2300      	movs	r3, #0
 80011c8:	607b      	str	r3, [r7, #4]
  sMasterConfig.MasterSlaveMode = TIM_MASTERSLAVEMODE_DISABLE;
 80011ca:	2300      	movs	r3, #0
 80011cc:	60fb      	str	r3, [r7, #12]
  if (HAL_TIMEx_MasterConfigSynchronization(&htim2, &sMasterConfig) != HAL_OK)
 80011ce:	1d3b      	adds	r3, r7, #4
 80011d0:	4619      	mov	r1, r3
 80011d2:	4806      	ldr	r0, [pc, #24]	; (80011ec <MX_TIM2_Init+0x98>)
 80011d4:	f006 fb74 	bl	80078c0 <HAL_TIMEx_MasterConfigSynchronization>
 80011d8:	4603      	mov	r3, r0
 80011da:	2b00      	cmp	r3, #0
 80011dc:	d001      	beq.n	80011e2 <MX_TIM2_Init+0x8e>
  {
    Error_Handler();
 80011de:	f000 fa5f 	bl	80016a0 <Error_Handler>
  }
  /* USER CODE BEGIN TIM2_Init 2 */

  /* USER CODE END TIM2_Init 2 */

}
 80011e2:	bf00      	nop
 80011e4:	3720      	adds	r7, #32
 80011e6:	46bd      	mov	sp, r7
 80011e8:	bd80      	pop	{r7, pc}
 80011ea:	bf00      	nop
 80011ec:	20001b34 	.word	0x20001b34

080011f0 <MX_TIM6_Init>:
  * @brief TIM6 Initialization Function
  * @param None
  * @retval None
  */
static void MX_TIM6_Init(void)
{
 80011f0:	b580      	push	{r7, lr}
 80011f2:	b084      	sub	sp, #16
 80011f4:	af00      	add	r7, sp, #0

  /* USER CODE BEGIN TIM6_Init 0 */

  /* USER CODE END TIM6_Init 0 */

  TIM_MasterConfigTypeDef sMasterConfig = {0};
 80011f6:	1d3b      	adds	r3, r7, #4
 80011f8:	2200      	movs	r2, #0
 80011fa:	601a      	str	r2, [r3, #0]
 80011fc:	605a      	str	r2, [r3, #4]
 80011fe:	609a      	str	r2, [r3, #8]

  /* USER CODE BEGIN TIM6_Init 1 */

  /* USER CODE END TIM6_Init 1 */
  htim6.Instance = TIM6;
 8001200:	4b15      	ldr	r3, [pc, #84]	; (8001258 <MX_TIM6_Init+0x68>)
 8001202:	4a16      	ldr	r2, [pc, #88]	; (800125c <MX_TIM6_Init+0x6c>)
 8001204:	601a      	str	r2, [r3, #0]
  htim6.Init.Prescaler = 6999;
 8001206:	4b14      	ldr	r3, [pc, #80]	; (8001258 <MX_TIM6_Init+0x68>)
 8001208:	f641 3257 	movw	r2, #6999	; 0x1b57
 800120c:	605a      	str	r2, [r3, #4]
  htim6.Init.CounterMode = TIM_COUNTERMODE_UP;
 800120e:	4b12      	ldr	r3, [pc, #72]	; (8001258 <MX_TIM6_Init+0x68>)
 8001210:	2200      	movs	r2, #0
 8001212:	609a      	str	r2, [r3, #8]
  htim6.Init.Period = 9999;
 8001214:	4b10      	ldr	r3, [pc, #64]	; (8001258 <MX_TIM6_Init+0x68>)
 8001216:	f242 720f 	movw	r2, #9999	; 0x270f
 800121a:	60da      	str	r2, [r3, #12]
  htim6.Init.AutoReloadPreload = TIM_AUTORELOAD_PRELOAD_ENABLE;
 800121c:	4b0e      	ldr	r3, [pc, #56]	; (8001258 <MX_TIM6_Init+0x68>)
 800121e:	2280      	movs	r2, #128	; 0x80
 8001220:	619a      	str	r2, [r3, #24]
  if (HAL_TIM_Base_Init(&htim6) != HAL_OK)
 8001222:	480d      	ldr	r0, [pc, #52]	; (8001258 <MX_TIM6_Init+0x68>)
 8001224:	f005 fe7e 	bl	8006f24 <HAL_TIM_Base_Init>
 8001228:	4603      	mov	r3, r0
 800122a:	2b00      	cmp	r3, #0
 800122c:	d001      	beq.n	8001232 <MX_TIM6_Init+0x42>
  {
    Error_Handler();
 800122e:	f000 fa37 	bl	80016a0 <Error_Handler>
  }
  sMasterConfig.MasterOutputTrigger = TIM_TRGO_RESET;
 8001232:	2300      	movs	r3, #0
 8001234:	607b      	str	r3, [r7, #4]
  sMasterConfig.MasterSlaveMode = TIM_MASTERSLAVEMODE_DISABLE;
 8001236:	2300      	movs	r3, #0
 8001238:	60fb      	str	r3, [r7, #12]
  if (HAL_TIMEx_MasterConfigSynchronization(&htim6, &sMasterConfig) != HAL_OK)
 800123a:	1d3b      	adds	r3, r7, #4
 800123c:	4619      	mov	r1, r3
 800123e:	4806      	ldr	r0, [pc, #24]	; (8001258 <MX_TIM6_Init+0x68>)
 8001240:	f006 fb3e 	bl	80078c0 <HAL_TIMEx_MasterConfigSynchronization>
 8001244:	4603      	mov	r3, r0
 8001246:	2b00      	cmp	r3, #0
 8001248:	d001      	beq.n	800124e <MX_TIM6_Init+0x5e>
  {
    Error_Handler();
 800124a:	f000 fa29 	bl	80016a0 <Error_Handler>
  }
  /* USER CODE BEGIN TIM6_Init 2 */

  /* USER CODE END TIM6_Init 2 */

}
 800124e:	bf00      	nop
 8001250:	3710      	adds	r7, #16
 8001252:	46bd      	mov	sp, r7
 8001254:	bd80      	pop	{r7, pc}
 8001256:	bf00      	nop
 8001258:	20001b80 	.word	0x20001b80
 800125c:	40001000 	.word	0x40001000

08001260 <MX_TIM16_Init>:
  * @brief TIM16 Initialization Function
  * @param None
  * @retval None
  */
static void MX_TIM16_Init(void)
{
 8001260:	b580      	push	{r7, lr}
 8001262:	af00      	add	r7, sp, #0
  /* USER CODE END TIM16_Init 0 */

  /* USER CODE BEGIN TIM16_Init 1 */

  /* USER CODE END TIM16_Init 1 */
  htim16.Instance = TIM16;
 8001264:	4b10      	ldr	r3, [pc, #64]	; (80012a8 <MX_TIM16_Init+0x48>)
 8001266:	4a11      	ldr	r2, [pc, #68]	; (80012ac <MX_TIM16_Init+0x4c>)
 8001268:	601a      	str	r2, [r3, #0]
  htim16.Init.Prescaler = 6999;
 800126a:	4b0f      	ldr	r3, [pc, #60]	; (80012a8 <MX_TIM16_Init+0x48>)
 800126c:	f641 3257 	movw	r2, #6999	; 0x1b57
 8001270:	605a      	str	r2, [r3, #4]
  htim16.Init.CounterMode = TIM_COUNTERMODE_UP;
 8001272:	4b0d      	ldr	r3, [pc, #52]	; (80012a8 <MX_TIM16_Init+0x48>)
 8001274:	2200      	movs	r2, #0
 8001276:	609a      	str	r2, [r3, #8]
  htim16.Init.Period = 9999;
 8001278:	4b0b      	ldr	r3, [pc, #44]	; (80012a8 <MX_TIM16_Init+0x48>)
 800127a:	f242 720f 	movw	r2, #9999	; 0x270f
 800127e:	60da      	str	r2, [r3, #12]
  htim16.Init.ClockDivision = TIM_CLOCKDIVISION_DIV1;
 8001280:	4b09      	ldr	r3, [pc, #36]	; (80012a8 <MX_TIM16_Init+0x48>)
 8001282:	2200      	movs	r2, #0
 8001284:	611a      	str	r2, [r3, #16]
  htim16.Init.RepetitionCounter = 0;
 8001286:	4b08      	ldr	r3, [pc, #32]	; (80012a8 <MX_TIM16_Init+0x48>)
 8001288:	2200      	movs	r2, #0
 800128a:	615a      	str	r2, [r3, #20]
  htim16.Init.AutoReloadPreload = TIM_AUTORELOAD_PRELOAD_ENABLE;
 800128c:	4b06      	ldr	r3, [pc, #24]	; (80012a8 <MX_TIM16_Init+0x48>)
 800128e:	2280      	movs	r2, #128	; 0x80
 8001290:	619a      	str	r2, [r3, #24]
  if (HAL_TIM_Base_Init(&htim16) != HAL_OK)
 8001292:	4805      	ldr	r0, [pc, #20]	; (80012a8 <MX_TIM16_Init+0x48>)
 8001294:	f005 fe46 	bl	8006f24 <HAL_TIM_Base_Init>
 8001298:	4603      	mov	r3, r0
 800129a:	2b00      	cmp	r3, #0
 800129c:	d001      	beq.n	80012a2 <MX_TIM16_Init+0x42>
  {
    Error_Handler();
 800129e:	f000 f9ff 	bl	80016a0 <Error_Handler>
  }
  /* USER CODE BEGIN TIM16_Init 2 */

  /* USER CODE END TIM16_Init 2 */

}
 80012a2:	bf00      	nop
 80012a4:	bd80      	pop	{r7, pc}
 80012a6:	bf00      	nop
 80012a8:	20001bcc 	.word	0x20001bcc
 80012ac:	40014400 	.word	0x40014400

080012b0 <MX_TIM17_Init>:
  * @brief TIM17 Initialization Function
  * @param None
  * @retval None
  */
static void MX_TIM17_Init(void)
{
 80012b0:	b580      	push	{r7, lr}
 80012b2:	af00      	add	r7, sp, #0
  /* USER CODE END TIM17_Init 0 */

  /* USER CODE BEGIN TIM17_Init 1 */

  /* USER CODE END TIM17_Init 1 */
  htim17.Instance = TIM17;
 80012b4:	4b10      	ldr	r3, [pc, #64]	; (80012f8 <MX_TIM17_Init+0x48>)
 80012b6:	4a11      	ldr	r2, [pc, #68]	; (80012fc <MX_TIM17_Init+0x4c>)
 80012b8:	601a      	str	r2, [r3, #0]
  htim17.Init.Prescaler = 6999;
 80012ba:	4b0f      	ldr	r3, [pc, #60]	; (80012f8 <MX_TIM17_Init+0x48>)
 80012bc:	f641 3257 	movw	r2, #6999	; 0x1b57
 80012c0:	605a      	str	r2, [r3, #4]
  htim17.Init.CounterMode = TIM_COUNTERMODE_UP;
 80012c2:	4b0d      	ldr	r3, [pc, #52]	; (80012f8 <MX_TIM17_Init+0x48>)
 80012c4:	2200      	movs	r2, #0
 80012c6:	609a      	str	r2, [r3, #8]
  htim17.Init.Period = 9999;
 80012c8:	4b0b      	ldr	r3, [pc, #44]	; (80012f8 <MX_TIM17_Init+0x48>)
 80012ca:	f242 720f 	movw	r2, #9999	; 0x270f
 80012ce:	60da      	str	r2, [r3, #12]
  htim17.Init.ClockDivision = TIM_CLOCKDIVISION_DIV1;
 80012d0:	4b09      	ldr	r3, [pc, #36]	; (80012f8 <MX_TIM17_Init+0x48>)
 80012d2:	2200      	movs	r2, #0
 80012d4:	611a      	str	r2, [r3, #16]
  htim17.Init.RepetitionCounter = 0;
 80012d6:	4b08      	ldr	r3, [pc, #32]	; (80012f8 <MX_TIM17_Init+0x48>)
 80012d8:	2200      	movs	r2, #0
 80012da:	615a      	str	r2, [r3, #20]
  htim17.Init.AutoReloadPreload = TIM_AUTORELOAD_PRELOAD_ENABLE;
 80012dc:	4b06      	ldr	r3, [pc, #24]	; (80012f8 <MX_TIM17_Init+0x48>)
 80012de:	2280      	movs	r2, #128	; 0x80
 80012e0:	619a      	str	r2, [r3, #24]
  if (HAL_TIM_Base_Init(&htim17) != HAL_OK)
 80012e2:	4805      	ldr	r0, [pc, #20]	; (80012f8 <MX_TIM17_Init+0x48>)
 80012e4:	f005 fe1e 	bl	8006f24 <HAL_TIM_Base_Init>
 80012e8:	4603      	mov	r3, r0
 80012ea:	2b00      	cmp	r3, #0
 80012ec:	d001      	beq.n	80012f2 <MX_TIM17_Init+0x42>
  {
    Error_Handler();
 80012ee:	f000 f9d7 	bl	80016a0 <Error_Handler>
  }
  /* USER CODE BEGIN TIM17_Init 2 */

  /* USER CODE END TIM17_Init 2 */

}
 80012f2:	bf00      	nop
 80012f4:	bd80      	pop	{r7, pc}
 80012f6:	bf00      	nop
 80012f8:	20001c18 	.word	0x20001c18
 80012fc:	40014800 	.word	0x40014800

08001300 <MX_USART2_UART_Init>:
  * @brief USART2 Initialization Function
  * @param None
  * @retval None
  */
static void MX_USART2_UART_Init(void)
{
 8001300:	b580      	push	{r7, lr}
 8001302:	af00      	add	r7, sp, #0
  /* USER CODE END USART2_Init 0 */

  /* USER CODE BEGIN USART2_Init 1 */

  /* USER CODE END USART2_Init 1 */
  huart2.Instance = USART2;
 8001304:	4b16      	ldr	r3, [pc, #88]	; (8001360 <MX_USART2_UART_Init+0x60>)
 8001306:	4a17      	ldr	r2, [pc, #92]	; (8001364 <MX_USART2_UART_Init+0x64>)
 8001308:	601a      	str	r2, [r3, #0]
  huart2.Init.BaudRate = 9600;
 800130a:	4b15      	ldr	r3, [pc, #84]	; (8001360 <MX_USART2_UART_Init+0x60>)
 800130c:	f44f 5216 	mov.w	r2, #9600	; 0x2580
 8001310:	605a      	str	r2, [r3, #4]
  huart2.Init.WordLength = UART_WORDLENGTH_8B;
 8001312:	4b13      	ldr	r3, [pc, #76]	; (8001360 <MX_USART2_UART_Init+0x60>)
 8001314:	2200      	movs	r2, #0
 8001316:	609a      	str	r2, [r3, #8]
  huart2.Init.StopBits = UART_STOPBITS_1;
 8001318:	4b11      	ldr	r3, [pc, #68]	; (8001360 <MX_USART2_UART_Init+0x60>)
 800131a:	2200      	movs	r2, #0
 800131c:	60da      	str	r2, [r3, #12]
  huart2.Init.Parity = UART_PARITY_NONE;
 800131e:	4b10      	ldr	r3, [pc, #64]	; (8001360 <MX_USART2_UART_Init+0x60>)
 8001320:	2200      	movs	r2, #0
 8001322:	611a      	str	r2, [r3, #16]
  huart2.Init.Mode = UART_MODE_TX_RX;
 8001324:	4b0e      	ldr	r3, [pc, #56]	; (8001360 <MX_USART2_UART_Init+0x60>)
 8001326:	220c      	movs	r2, #12
 8001328:	615a      	str	r2, [r3, #20]
  huart2.Init.HwFlowCtl = UART_HWCONTROL_NONE;
 800132a:	4b0d      	ldr	r3, [pc, #52]	; (8001360 <MX_USART2_UART_Init+0x60>)
 800132c:	2200      	movs	r2, #0
 800132e:	619a      	str	r2, [r3, #24]
  huart2.Init.OverSampling = UART_OVERSAMPLING_16;
 8001330:	4b0b      	ldr	r3, [pc, #44]	; (8001360 <MX_USART2_UART_Init+0x60>)
 8001332:	2200      	movs	r2, #0
 8001334:	61da      	str	r2, [r3, #28]
  huart2.Init.OneBitSampling = UART_ONE_BIT_SAMPLE_DISABLE;
 8001336:	4b0a      	ldr	r3, [pc, #40]	; (8001360 <MX_USART2_UART_Init+0x60>)
 8001338:	2200      	movs	r2, #0
 800133a:	621a      	str	r2, [r3, #32]
  huart2.AdvancedInit.AdvFeatureInit = UART_ADVFEATURE_RXOVERRUNDISABLE_INIT;
 800133c:	4b08      	ldr	r3, [pc, #32]	; (8001360 <MX_USART2_UART_Init+0x60>)
 800133e:	2210      	movs	r2, #16
 8001340:	625a      	str	r2, [r3, #36]	; 0x24
  huart2.AdvancedInit.OverrunDisable = UART_ADVFEATURE_OVERRUN_DISABLE;
 8001342:	4b07      	ldr	r3, [pc, #28]	; (8001360 <MX_USART2_UART_Init+0x60>)
 8001344:	f44f 5280 	mov.w	r2, #4096	; 0x1000
 8001348:	639a      	str	r2, [r3, #56]	; 0x38
  if (HAL_UART_Init(&huart2) != HAL_OK)
 800134a:	4805      	ldr	r0, [pc, #20]	; (8001360 <MX_USART2_UART_Init+0x60>)
 800134c:	f006 fb3c 	bl	80079c8 <HAL_UART_Init>
 8001350:	4603      	mov	r3, r0
 8001352:	2b00      	cmp	r3, #0
 8001354:	d001      	beq.n	800135a <MX_USART2_UART_Init+0x5a>
  {
    Error_Handler();
 8001356:	f000 f9a3 	bl	80016a0 <Error_Handler>
  }
  /* USER CODE BEGIN USART2_Init 2 */

  /* USER CODE END USART2_Init 2 */

}
 800135a:	bf00      	nop
 800135c:	bd80      	pop	{r7, pc}
 800135e:	bf00      	nop
 8001360:	20001c64 	.word	0x20001c64
 8001364:	40004400 	.word	0x40004400

08001368 <MX_GPIO_Init>:
  * @brief GPIO Initialization Function
  * @param None
  * @retval None
  */
static void MX_GPIO_Init(void)
{
 8001368:	b580      	push	{r7, lr}
 800136a:	b08a      	sub	sp, #40	; 0x28
 800136c:	af00      	add	r7, sp, #0
  GPIO_InitTypeDef GPIO_InitStruct = {0};
 800136e:	f107 0314 	add.w	r3, r7, #20
 8001372:	2200      	movs	r2, #0
 8001374:	601a      	str	r2, [r3, #0]
 8001376:	605a      	str	r2, [r3, #4]
 8001378:	609a      	str	r2, [r3, #8]
 800137a:	60da      	str	r2, [r3, #12]
 800137c:	611a      	str	r2, [r3, #16]

  /* GPIO Ports Clock Enable */
  __HAL_RCC_GPIOC_CLK_ENABLE();
 800137e:	4b70      	ldr	r3, [pc, #448]	; (8001540 <MX_GPIO_Init+0x1d8>)
 8001380:	695b      	ldr	r3, [r3, #20]
 8001382:	4a6f      	ldr	r2, [pc, #444]	; (8001540 <MX_GPIO_Init+0x1d8>)
 8001384:	f443 2300 	orr.w	r3, r3, #524288	; 0x80000
 8001388:	6153      	str	r3, [r2, #20]
 800138a:	4b6d      	ldr	r3, [pc, #436]	; (8001540 <MX_GPIO_Init+0x1d8>)
 800138c:	695b      	ldr	r3, [r3, #20]
 800138e:	f403 2300 	and.w	r3, r3, #524288	; 0x80000
 8001392:	613b      	str	r3, [r7, #16]
 8001394:	693b      	ldr	r3, [r7, #16]
  __HAL_RCC_GPIOF_CLK_ENABLE();
 8001396:	4b6a      	ldr	r3, [pc, #424]	; (8001540 <MX_GPIO_Init+0x1d8>)
 8001398:	695b      	ldr	r3, [r3, #20]
 800139a:	4a69      	ldr	r2, [pc, #420]	; (8001540 <MX_GPIO_Init+0x1d8>)
 800139c:	f443 0380 	orr.w	r3, r3, #4194304	; 0x400000
 80013a0:	6153      	str	r3, [r2, #20]
 80013a2:	4b67      	ldr	r3, [pc, #412]	; (8001540 <MX_GPIO_Init+0x1d8>)
 80013a4:	695b      	ldr	r3, [r3, #20]
 80013a6:	f403 0380 	and.w	r3, r3, #4194304	; 0x400000
 80013aa:	60fb      	str	r3, [r7, #12]
 80013ac:	68fb      	ldr	r3, [r7, #12]
  __HAL_RCC_GPIOA_CLK_ENABLE();
 80013ae:	4b64      	ldr	r3, [pc, #400]	; (8001540 <MX_GPIO_Init+0x1d8>)
 80013b0:	695b      	ldr	r3, [r3, #20]
 80013b2:	4a63      	ldr	r2, [pc, #396]	; (8001540 <MX_GPIO_Init+0x1d8>)
 80013b4:	f443 3300 	orr.w	r3, r3, #131072	; 0x20000
 80013b8:	6153      	str	r3, [r2, #20]
 80013ba:	4b61      	ldr	r3, [pc, #388]	; (8001540 <MX_GPIO_Init+0x1d8>)
 80013bc:	695b      	ldr	r3, [r3, #20]
 80013be:	f403 3300 	and.w	r3, r3, #131072	; 0x20000
 80013c2:	60bb      	str	r3, [r7, #8]
 80013c4:	68bb      	ldr	r3, [r7, #8]
  __HAL_RCC_GPIOB_CLK_ENABLE();
 80013c6:	4b5e      	ldr	r3, [pc, #376]	; (8001540 <MX_GPIO_Init+0x1d8>)
 80013c8:	695b      	ldr	r3, [r3, #20]
 80013ca:	4a5d      	ldr	r2, [pc, #372]	; (8001540 <MX_GPIO_Init+0x1d8>)
 80013cc:	f443 2380 	orr.w	r3, r3, #262144	; 0x40000
 80013d0:	6153      	str	r3, [r2, #20]
 80013d2:	4b5b      	ldr	r3, [pc, #364]	; (8001540 <MX_GPIO_Init+0x1d8>)
 80013d4:	695b      	ldr	r3, [r3, #20]
 80013d6:	f403 2380 	and.w	r3, r3, #262144	; 0x40000
 80013da:	607b      	str	r3, [r7, #4]
 80013dc:	687b      	ldr	r3, [r7, #4]

  /*Configure GPIO pin Output Level */
  HAL_GPIO_WritePin(FCT_TRIG_LED_GPIO_Port, FCT_TRIG_LED_Pin, GPIO_PIN_RESET);
 80013de:	2200      	movs	r2, #0
 80013e0:	f44f 5100 	mov.w	r1, #8192	; 0x2000
 80013e4:	4857      	ldr	r0, [pc, #348]	; (8001544 <MX_GPIO_Init+0x1dc>)
 80013e6:	f002 fe43 	bl	8004070 <HAL_GPIO_WritePin>

  /*Configure GPIO pin Output Level */
  HAL_GPIO_WritePin(GPIOA, LA_TRIG_LED_Pin|CA_TRIG_LED_Pin|WR_TRIG_LED_Pin, GPIO_PIN_RESET);
 80013ea:	2200      	movs	r2, #0
 80013ec:	f241 0190 	movw	r1, #4240	; 0x1090
 80013f0:	f04f 4090 	mov.w	r0, #1207959552	; 0x48000000
 80013f4:	f002 fe3c 	bl	8004070 <HAL_GPIO_WritePin>

  /*Configure GPIO pin Output Level */
  HAL_GPIO_WritePin(GPIOB, LAN_CS_Pin|CA_OP_Pin|LA_OP_Pin, GPIO_PIN_SET);
 80013f8:	2201      	movs	r2, #1
 80013fa:	f240 3101 	movw	r1, #769	; 0x301
 80013fe:	4852      	ldr	r0, [pc, #328]	; (8001548 <MX_GPIO_Init+0x1e0>)
 8001400:	f002 fe36 	bl	8004070 <HAL_GPIO_WritePin>

  /*Configure GPIO pin Output Level */
  HAL_GPIO_WritePin(GPIOB, GPIO_PIN_12|WL_TRIG_LED_Pin, GPIO_PIN_RESET);
 8001404:	2200      	movs	r2, #0
 8001406:	f44f 4110 	mov.w	r1, #36864	; 0x9000
 800140a:	484f      	ldr	r0, [pc, #316]	; (8001548 <MX_GPIO_Init+0x1e0>)
 800140c:	f002 fe30 	bl	8004070 <HAL_GPIO_WritePin>

  /*Configure GPIO pin Output Level */
  HAL_GPIO_WritePin(GPIOA, CA_OP1_Pin|LA_OP1_Pin|LAN_RESET_Pin, GPIO_PIN_SET);
 8001410:	2201      	movs	r2, #1
 8001412:	f44f 4103 	mov.w	r1, #33536	; 0x8300
 8001416:	f04f 4090 	mov.w	r0, #1207959552	; 0x48000000
 800141a:	f002 fe29 	bl	8004070 <HAL_GPIO_WritePin>

  /*Configure GPIO pin : FCT_TRIG_LED_Pin */
  GPIO_InitStruct.Pin = FCT_TRIG_LED_Pin;
 800141e:	f44f 5300 	mov.w	r3, #8192	; 0x2000
 8001422:	617b      	str	r3, [r7, #20]
  GPIO_InitStruct.Mode = GPIO_MODE_OUTPUT_PP;
 8001424:	2301      	movs	r3, #1
 8001426:	61bb      	str	r3, [r7, #24]
  GPIO_InitStruct.Pull = GPIO_PULLDOWN;
 8001428:	2302      	movs	r3, #2
 800142a:	61fb      	str	r3, [r7, #28]
  GPIO_InitStruct.Speed = GPIO_SPEED_FREQ_LOW;
 800142c:	2300      	movs	r3, #0
 800142e:	623b      	str	r3, [r7, #32]
  HAL_GPIO_Init(FCT_TRIG_LED_GPIO_Port, &GPIO_InitStruct);
 8001430:	f107 0314 	add.w	r3, r7, #20
 8001434:	4619      	mov	r1, r3
 8001436:	4843      	ldr	r0, [pc, #268]	; (8001544 <MX_GPIO_Init+0x1dc>)
 8001438:	f002 fca8 	bl	8003d8c <HAL_GPIO_Init>

  /*Configure GPIO pins : WR_IP_Pin WL_IP_Pin F_IP_Pin */
  GPIO_InitStruct.Pin = WR_IP_Pin|WL_IP_Pin|F_IP_Pin;
 800143c:	2323      	movs	r3, #35	; 0x23
 800143e:	617b      	str	r3, [r7, #20]
  GPIO_InitStruct.Mode = GPIO_MODE_IT_FALLING;
 8001440:	f44f 1304 	mov.w	r3, #2162688	; 0x210000
 8001444:	61bb      	str	r3, [r7, #24]
  GPIO_InitStruct.Pull = GPIO_PULLUP;
 8001446:	2301      	movs	r3, #1
 8001448:	61fb      	str	r3, [r7, #28]
  HAL_GPIO_Init(GPIOA, &GPIO_InitStruct);
 800144a:	f107 0314 	add.w	r3, r7, #20
 800144e:	4619      	mov	r1, r3
 8001450:	f04f 4090 	mov.w	r0, #1207959552	; 0x48000000
 8001454:	f002 fc9a 	bl	8003d8c <HAL_GPIO_Init>

  /*Configure GPIO pins : LA_TRIG_LED_Pin CA_TRIG_LED_Pin CA_OP1_Pin LA_OP1_Pin
                           LAN_RESET_Pin */
  GPIO_InitStruct.Pin = LA_TRIG_LED_Pin|CA_TRIG_LED_Pin|CA_OP1_Pin|LA_OP1_Pin
 8001458:	f248 3390 	movw	r3, #33680	; 0x8390
 800145c:	617b      	str	r3, [r7, #20]
                          |LAN_RESET_Pin;
  GPIO_InitStruct.Mode = GPIO_MODE_OUTPUT_PP;
 800145e:	2301      	movs	r3, #1
 8001460:	61bb      	str	r3, [r7, #24]
  GPIO_InitStruct.Pull = GPIO_NOPULL;
 8001462:	2300      	movs	r3, #0
 8001464:	61fb      	str	r3, [r7, #28]
  GPIO_InitStruct.Speed = GPIO_SPEED_FREQ_LOW;
 8001466:	2300      	movs	r3, #0
 8001468:	623b      	str	r3, [r7, #32]
  HAL_GPIO_Init(GPIOA, &GPIO_InitStruct);
 800146a:	f107 0314 	add.w	r3, r7, #20
 800146e:	4619      	mov	r1, r3
 8001470:	f04f 4090 	mov.w	r0, #1207959552	; 0x48000000
 8001474:	f002 fc8a 	bl	8003d8c <HAL_GPIO_Init>

  /*Configure GPIO pin : LAN_CS_Pin */
  GPIO_InitStruct.Pin = LAN_CS_Pin;
 8001478:	2301      	movs	r3, #1
 800147a:	617b      	str	r3, [r7, #20]
  GPIO_InitStruct.Mode = GPIO_MODE_OUTPUT_PP;
 800147c:	2301      	movs	r3, #1
 800147e:	61bb      	str	r3, [r7, #24]
  GPIO_InitStruct.Pull = GPIO_PULLUP;
 8001480:	2301      	movs	r3, #1
 8001482:	61fb      	str	r3, [r7, #28]
  GPIO_InitStruct.Speed = GPIO_SPEED_FREQ_LOW;
 8001484:	2300      	movs	r3, #0
 8001486:	623b      	str	r3, [r7, #32]
  HAL_GPIO_Init(LAN_CS_GPIO_Port, &GPIO_InitStruct);
 8001488:	f107 0314 	add.w	r3, r7, #20
 800148c:	4619      	mov	r1, r3
 800148e:	482e      	ldr	r0, [pc, #184]	; (8001548 <MX_GPIO_Init+0x1e0>)
 8001490:	f002 fc7c 	bl	8003d8c <HAL_GPIO_Init>

  /*Configure GPIO pin : LAN_INT_Pin */
  GPIO_InitStruct.Pin = LAN_INT_Pin;
 8001494:	2304      	movs	r3, #4
 8001496:	617b      	str	r3, [r7, #20]
  GPIO_InitStruct.Mode = GPIO_MODE_INPUT;
 8001498:	2300      	movs	r3, #0
 800149a:	61bb      	str	r3, [r7, #24]
  GPIO_InitStruct.Pull = GPIO_PULLUP;
 800149c:	2301      	movs	r3, #1
 800149e:	61fb      	str	r3, [r7, #28]
  HAL_GPIO_Init(LAN_INT_GPIO_Port, &GPIO_InitStruct);
 80014a0:	f107 0314 	add.w	r3, r7, #20
 80014a4:	4619      	mov	r1, r3
 80014a6:	4828      	ldr	r0, [pc, #160]	; (8001548 <MX_GPIO_Init+0x1e0>)
 80014a8:	f002 fc70 	bl	8003d8c <HAL_GPIO_Init>

  /*Configure GPIO pins : PB12 CA_OP_Pin LA_OP_Pin */
  GPIO_InitStruct.Pin = GPIO_PIN_12|CA_OP_Pin|LA_OP_Pin;
 80014ac:	f44f 5398 	mov.w	r3, #4864	; 0x1300
 80014b0:	617b      	str	r3, [r7, #20]
  GPIO_InitStruct.Mode = GPIO_MODE_OUTPUT_PP;
 80014b2:	2301      	movs	r3, #1
 80014b4:	61bb      	str	r3, [r7, #24]
  GPIO_InitStruct.Pull = GPIO_NOPULL;
 80014b6:	2300      	movs	r3, #0
 80014b8:	61fb      	str	r3, [r7, #28]
  GPIO_InitStruct.Speed = GPIO_SPEED_FREQ_LOW;
 80014ba:	2300      	movs	r3, #0
 80014bc:	623b      	str	r3, [r7, #32]
  HAL_GPIO_Init(GPIOB, &GPIO_InitStruct);
 80014be:	f107 0314 	add.w	r3, r7, #20
 80014c2:	4619      	mov	r1, r3
 80014c4:	4820      	ldr	r0, [pc, #128]	; (8001548 <MX_GPIO_Init+0x1e0>)
 80014c6:	f002 fc61 	bl	8003d8c <HAL_GPIO_Init>

  /*Configure GPIO pin : WL_TRIG_LED_Pin */
  GPIO_InitStruct.Pin = WL_TRIG_LED_Pin;
 80014ca:	f44f 4300 	mov.w	r3, #32768	; 0x8000
 80014ce:	617b      	str	r3, [r7, #20]
  GPIO_InitStruct.Mode = GPIO_MODE_OUTPUT_PP;
 80014d0:	2301      	movs	r3, #1
 80014d2:	61bb      	str	r3, [r7, #24]
  GPIO_InitStruct.Pull = GPIO_PULLDOWN;
 80014d4:	2302      	movs	r3, #2
 80014d6:	61fb      	str	r3, [r7, #28]
  GPIO_InitStruct.Speed = GPIO_SPEED_FREQ_LOW;
 80014d8:	2300      	movs	r3, #0
 80014da:	623b      	str	r3, [r7, #32]
  HAL_GPIO_Init(WL_TRIG_LED_GPIO_Port, &GPIO_InitStruct);
 80014dc:	f107 0314 	add.w	r3, r7, #20
 80014e0:	4619      	mov	r1, r3
 80014e2:	4819      	ldr	r0, [pc, #100]	; (8001548 <MX_GPIO_Init+0x1e0>)
 80014e4:	f002 fc52 	bl	8003d8c <HAL_GPIO_Init>

  /*Configure GPIO pin : WR_TRIG_LED_Pin */
  GPIO_InitStruct.Pin = WR_TRIG_LED_Pin;
 80014e8:	f44f 5380 	mov.w	r3, #4096	; 0x1000
 80014ec:	617b      	str	r3, [r7, #20]
  GPIO_InitStruct.Mode = GPIO_MODE_OUTPUT_PP;
 80014ee:	2301      	movs	r3, #1
 80014f0:	61bb      	str	r3, [r7, #24]
  GPIO_InitStruct.Pull = GPIO_PULLDOWN;
 80014f2:	2302      	movs	r3, #2
 80014f4:	61fb      	str	r3, [r7, #28]
  GPIO_InitStruct.Speed = GPIO_SPEED_FREQ_LOW;
 80014f6:	2300      	movs	r3, #0
 80014f8:	623b      	str	r3, [r7, #32]
  HAL_GPIO_Init(WR_TRIG_LED_GPIO_Port, &GPIO_InitStruct);
 80014fa:	f107 0314 	add.w	r3, r7, #20
 80014fe:	4619      	mov	r1, r3
 8001500:	f04f 4090 	mov.w	r0, #1207959552	; 0x48000000
 8001504:	f002 fc42 	bl	8003d8c <HAL_GPIO_Init>

  /* EXTI interrupt init*/
  HAL_NVIC_SetPriority(EXTI0_IRQn, 0, 0);
 8001508:	2200      	movs	r2, #0
 800150a:	2100      	movs	r1, #0
 800150c:	2006      	movs	r0, #6
 800150e:	f002 fbf8 	bl	8003d02 <HAL_NVIC_SetPriority>
  HAL_NVIC_EnableIRQ(EXTI0_IRQn);
 8001512:	2006      	movs	r0, #6
 8001514:	f002 fc11 	bl	8003d3a <HAL_NVIC_EnableIRQ>

  HAL_NVIC_SetPriority(EXTI1_IRQn, 0, 0);
 8001518:	2200      	movs	r2, #0
 800151a:	2100      	movs	r1, #0
 800151c:	2007      	movs	r0, #7
 800151e:	f002 fbf0 	bl	8003d02 <HAL_NVIC_SetPriority>
  HAL_NVIC_EnableIRQ(EXTI1_IRQn);
 8001522:	2007      	movs	r0, #7
 8001524:	f002 fc09 	bl	8003d3a <HAL_NVIC_EnableIRQ>

  HAL_NVIC_SetPriority(EXTI9_5_IRQn, 0, 0);
 8001528:	2200      	movs	r2, #0
 800152a:	2100      	movs	r1, #0
 800152c:	2017      	movs	r0, #23
 800152e:	f002 fbe8 	bl	8003d02 <HAL_NVIC_SetPriority>
  HAL_NVIC_EnableIRQ(EXTI9_5_IRQn);
 8001532:	2017      	movs	r0, #23
 8001534:	f002 fc01 	bl	8003d3a <HAL_NVIC_EnableIRQ>

}
 8001538:	bf00      	nop
 800153a:	3728      	adds	r7, #40	; 0x28
 800153c:	46bd      	mov	sp, r7
 800153e:	bd80      	pop	{r7, pc}
 8001540:	40021000 	.word	0x40021000
 8001544:	48000800 	.word	0x48000800
 8001548:	48000400 	.word	0x48000400

0800154c <HAL_GPIO_EXTI_Callback>:

/* USER CODE BEGIN 4 */
void HAL_GPIO_EXTI_Callback(uint16_t GPIO_Pin)
{
 800154c:	b580      	push	{r7, lr}
 800154e:	b082      	sub	sp, #8
 8001550:	af00      	add	r7, sp, #0
 8001552:	4603      	mov	r3, r0
 8001554:	80fb      	strh	r3, [r7, #6]
  UNUSED(GPIO_Pin);

  /* NOTE: This function should not be modified, when the callback is needed
   */

  switch(GPIO_Pin)
 8001556:	88fb      	ldrh	r3, [r7, #6]
 8001558:	3b01      	subs	r3, #1
 800155a:	2b1f      	cmp	r3, #31
 800155c:	f200 8097 	bhi.w	800168e <HAL_GPIO_EXTI_Callback+0x142>
 8001560:	a201      	add	r2, pc, #4	; (adr r2, 8001568 <HAL_GPIO_EXTI_Callback+0x1c>)
 8001562:	f852 f023 	ldr.w	pc, [r2, r3, lsl #2]
 8001566:	bf00      	nop
 8001568:	080015e9 	.word	0x080015e9
 800156c:	08001627 	.word	0x08001627
 8001570:	0800168f 	.word	0x0800168f
 8001574:	08001683 	.word	0x08001683
 8001578:	0800168f 	.word	0x0800168f
 800157c:	0800168f 	.word	0x0800168f
 8001580:	0800168f 	.word	0x0800168f
 8001584:	0800168f 	.word	0x0800168f
 8001588:	0800168f 	.word	0x0800168f
 800158c:	0800168f 	.word	0x0800168f
 8001590:	0800168f 	.word	0x0800168f
 8001594:	0800168f 	.word	0x0800168f
 8001598:	0800168f 	.word	0x0800168f
 800159c:	0800168f 	.word	0x0800168f
 80015a0:	0800168f 	.word	0x0800168f
 80015a4:	0800168f 	.word	0x0800168f
 80015a8:	0800168f 	.word	0x0800168f
 80015ac:	0800168f 	.word	0x0800168f
 80015b0:	0800168f 	.word	0x0800168f
 80015b4:	0800168f 	.word	0x0800168f
 80015b8:	0800168f 	.word	0x0800168f
 80015bc:	0800168f 	.word	0x0800168f
 80015c0:	0800168f 	.word	0x0800168f
 80015c4:	0800168f 	.word	0x0800168f
 80015c8:	0800168f 	.word	0x0800168f
 80015cc:	0800168f 	.word	0x0800168f
 80015d0:	0800168f 	.word	0x0800168f
 80015d4:	0800168f 	.word	0x0800168f
 80015d8:	0800168f 	.word	0x0800168f
 80015dc:	0800168f 	.word	0x0800168f
 80015e0:	0800168f 	.word	0x0800168f
 80015e4:	08001665 	.word	0x08001665
  {
  case WR_IP_Pin:
	  switch(Get_state()){
 80015e8:	f000 fe9c 	bl	8002324 <Get_state>
 80015ec:	4603      	mov	r3, r0
 80015ee:	2b05      	cmp	r3, #5
 80015f0:	d00c      	beq.n	800160c <HAL_GPIO_EXTI_Callback+0xc0>
 80015f2:	2b05      	cmp	r3, #5
 80015f4:	dc0d      	bgt.n	8001612 <HAL_GPIO_EXTI_Callback+0xc6>
 80015f6:	2b03      	cmp	r3, #3
 80015f8:	d002      	beq.n	8001600 <HAL_GPIO_EXTI_Callback+0xb4>
 80015fa:	2b04      	cmp	r3, #4
 80015fc:	d003      	beq.n	8001606 <HAL_GPIO_EXTI_Callback+0xba>
 80015fe:	e008      	b.n	8001612 <HAL_GPIO_EXTI_Callback+0xc6>
	  case Idle_State:
		  Set_event(WRSide_Train_Detect_Event);
 8001600:	2003      	movs	r0, #3
 8001602:	f7ff fa19 	bl	8000a38 <Set_event>
	  case WRSide_Train_Presence_State:
		  WR_Interrupt_Service();
 8001606:	f7fe fe3b 	bl	8000280 <WR_Interrupt_Service>
		  break;
 800160a:	e002      	b.n	8001612 <HAL_GPIO_EXTI_Callback+0xc6>
	  case WLSide_Train_Presence_State:
		  WR_Interrupt_Service();
 800160c:	f7fe fe38 	bl	8000280 <WR_Interrupt_Service>
		  break;
 8001610:	bf00      	nop
	  }

	  if (WR_Counts==WL_Counts)//(Counts of WL_Counts==WR_Counts)
 8001612:	4b21      	ldr	r3, [pc, #132]	; (8001698 <HAL_GPIO_EXTI_Callback+0x14c>)
 8001614:	681a      	ldr	r2, [r3, #0]
 8001616:	4b21      	ldr	r3, [pc, #132]	; (800169c <HAL_GPIO_EXTI_Callback+0x150>)
 8001618:	681b      	ldr	r3, [r3, #0]
 800161a:	429a      	cmp	r2, r3
 800161c:	d134      	bne.n	8001688 <HAL_GPIO_EXTI_Callback+0x13c>
	  {
		  Set_event(Train_Exit_Event);
 800161e:	2005      	movs	r0, #5
 8001620:	f7ff fa0a 	bl	8000a38 <Set_event>
	  }
	  break;
 8001624:	e030      	b.n	8001688 <HAL_GPIO_EXTI_Callback+0x13c>

  case WL_IP_Pin:

	  switch(Get_state()){
 8001626:	f000 fe7d 	bl	8002324 <Get_state>
 800162a:	4603      	mov	r3, r0
 800162c:	2b05      	cmp	r3, #5
 800162e:	d00c      	beq.n	800164a <HAL_GPIO_EXTI_Callback+0xfe>
 8001630:	2b05      	cmp	r3, #5
 8001632:	dc0d      	bgt.n	8001650 <HAL_GPIO_EXTI_Callback+0x104>
 8001634:	2b03      	cmp	r3, #3
 8001636:	d002      	beq.n	800163e <HAL_GPIO_EXTI_Callback+0xf2>
 8001638:	2b04      	cmp	r3, #4
 800163a:	d003      	beq.n	8001644 <HAL_GPIO_EXTI_Callback+0xf8>
 800163c:	e008      	b.n	8001650 <HAL_GPIO_EXTI_Callback+0x104>
	  case Idle_State:
		  Set_event(WLSide_Train_Detect_Event);
 800163e:	2004      	movs	r0, #4
 8001640:	f7ff f9fa 	bl	8000a38 <Set_event>
	  case WRSide_Train_Presence_State:
		  WL_Interrupt_Service();
 8001644:	f7fe ff38 	bl	80004b8 <WL_Interrupt_Service>
		  break;
 8001648:	e002      	b.n	8001650 <HAL_GPIO_EXTI_Callback+0x104>
	  case WLSide_Train_Presence_State:
		  WL_Interrupt_Service();
 800164a:	f7fe ff35 	bl	80004b8 <WL_Interrupt_Service>
		  break;
 800164e:	bf00      	nop
	  }

	  if (WR_Counts==WL_Counts)
 8001650:	4b11      	ldr	r3, [pc, #68]	; (8001698 <HAL_GPIO_EXTI_Callback+0x14c>)
 8001652:	681a      	ldr	r2, [r3, #0]
 8001654:	4b11      	ldr	r3, [pc, #68]	; (800169c <HAL_GPIO_EXTI_Callback+0x150>)
 8001656:	681b      	ldr	r3, [r3, #0]
 8001658:	429a      	cmp	r2, r3
 800165a:	d117      	bne.n	800168c <HAL_GPIO_EXTI_Callback+0x140>
	  {
		  Set_event(Train_Exit_Event);
 800165c:	2005      	movs	r0, #5
 800165e:	f7ff f9eb 	bl	8000a38 <Set_event>
	  }

	  break;
 8001662:	e013      	b.n	800168c <HAL_GPIO_EXTI_Callback+0x140>


  case F_IP_Pin:


	  switch(Get_state())
 8001664:	f000 fe5e 	bl	8002324 <Get_state>
 8001668:	4603      	mov	r3, r0
 800166a:	2b04      	cmp	r3, #4
 800166c:	d002      	beq.n	8001674 <HAL_GPIO_EXTI_Callback+0x128>
 800166e:	2b05      	cmp	r3, #5
 8001670:	d003      	beq.n	800167a <HAL_GPIO_EXTI_Callback+0x12e>
		  break;
	  case WLSide_Train_Presence_State:
		  FCT_Interrupt_Service();
		  break;
	  }
	  break;
 8001672:	e00c      	b.n	800168e <HAL_GPIO_EXTI_Callback+0x142>
		  FCT_Interrupt_Service();
 8001674:	f7fe fe78 	bl	8000368 <FCT_Interrupt_Service>
		  break;
 8001678:	e002      	b.n	8001680 <HAL_GPIO_EXTI_Callback+0x134>
		  FCT_Interrupt_Service();
 800167a:	f7fe fe75 	bl	8000368 <FCT_Interrupt_Service>
		  break;
 800167e:	bf00      	nop
	  break;
 8001680:	e005      	b.n	800168e <HAL_GPIO_EXTI_Callback+0x142>

  case LAN_INT_Pin:

	  Lan_Interrupt_Service();
 8001682:	f7fe fdc7 	bl	8000214 <Lan_Interrupt_Service>
	  break;
 8001686:	e002      	b.n	800168e <HAL_GPIO_EXTI_Callback+0x142>
	  break;
 8001688:	bf00      	nop
 800168a:	e000      	b.n	800168e <HAL_GPIO_EXTI_Callback+0x142>
	  break;
 800168c:	bf00      	nop
  }
}
 800168e:	bf00      	nop
 8001690:	3708      	adds	r7, #8
 8001692:	46bd      	mov	sp, r7
 8001694:	bd80      	pop	{r7, pc}
 8001696:	bf00      	nop
 8001698:	200018c4 	.word	0x200018c4
 800169c:	200018cc 	.word	0x200018cc

080016a0 <Error_Handler>:
/**
  * @brief  This function is executed in case of error occurrence.
  * @retval None
  */
void Error_Handler(void)
{
 80016a0:	b480      	push	{r7}
 80016a2:	af00      	add	r7, sp, #0
  /* USER CODE BEGIN Error_Handler_Debug */
  /* User can add his own implementation to report the HAL error return state */

  /* USER CODE END Error_Handler_Debug */
}
 80016a4:	bf00      	nop
 80016a6:	46bd      	mov	sp, r7
 80016a8:	f85d 7b04 	ldr.w	r7, [sp], #4
 80016ac:	4770      	bx	lr

080016ae <RingInit>:
uint32_t RingGetDataCnt (RingBuffer_t* buffer){
	return buffer -> size - RingGetSpace(buffer);
}

/* DONE: Add null pointer exceptions. */
RingStatus_t RingInit (RingBuffer_t* buffer, void* arrayBuffer, size_t bufferSize, size_t elementSize){
 80016ae:	b580      	push	{r7, lr}
 80016b0:	b084      	sub	sp, #16
 80016b2:	af00      	add	r7, sp, #0
 80016b4:	60f8      	str	r0, [r7, #12]
 80016b6:	60b9      	str	r1, [r7, #8]
 80016b8:	607a      	str	r2, [r7, #4]
 80016ba:	603b      	str	r3, [r7, #0]
	if(NULL == buffer) return NO_PTR;
 80016bc:	68fb      	ldr	r3, [r7, #12]
 80016be:	2b00      	cmp	r3, #0
 80016c0:	d102      	bne.n	80016c8 <RingInit+0x1a>
 80016c2:	f06f 0302 	mvn.w	r3, #2
 80016c6:	e03b      	b.n	8001740 <RingInit+0x92>
	if(NULL == arrayBuffer) return NO_PTR;
 80016c8:	68bb      	ldr	r3, [r7, #8]
 80016ca:	2b00      	cmp	r3, #0
 80016cc:	d102      	bne.n	80016d4 <RingInit+0x26>
 80016ce:	f06f 0302 	mvn.w	r3, #2
 80016d2:	e035      	b.n	8001740 <RingInit+0x92>

	memset(buffer, 0, sizeof(RingBuffer_t));
 80016d4:	2220      	movs	r2, #32
 80016d6:	2100      	movs	r1, #0
 80016d8:	68f8      	ldr	r0, [r7, #12]
 80016da:	f006 fd0b 	bl	80080f4 <memset>

	if(arrayBuffer == NULL) return NO_PTR;
 80016de:	68bb      	ldr	r3, [r7, #8]
 80016e0:	2b00      	cmp	r3, #0
 80016e2:	d102      	bne.n	80016ea <RingInit+0x3c>
 80016e4:	f06f 0302 	mvn.w	r3, #2
 80016e8:	e02a      	b.n	8001740 <RingInit+0x92>
	if(bufferSize <= 0) return NO_DATA;
 80016ea:	687b      	ldr	r3, [r7, #4]
 80016ec:	2b00      	cmp	r3, #0
 80016ee:	d102      	bne.n	80016f6 <RingInit+0x48>
 80016f0:	f06f 0301 	mvn.w	r3, #1
 80016f4:	e024      	b.n	8001740 <RingInit+0x92>

	buffer -> buffer = arrayBuffer;
 80016f6:	68fb      	ldr	r3, [r7, #12]
 80016f8:	68ba      	ldr	r2, [r7, #8]
 80016fa:	61da      	str	r2, [r3, #28]
	buffer -> size = bufferSize;
 80016fc:	68fb      	ldr	r3, [r7, #12]
 80016fe:	687a      	ldr	r2, [r7, #4]
 8001700:	601a      	str	r2, [r3, #0]
	buffer -> place = buffer -> size - 1;
 8001702:	68fb      	ldr	r3, [r7, #12]
 8001704:	681b      	ldr	r3, [r3, #0]
 8001706:	1e5a      	subs	r2, r3, #1
 8001708:	68fb      	ldr	r3, [r7, #12]
 800170a:	619a      	str	r2, [r3, #24]
	buffer -> writePtr = 0;
 800170c:	68fb      	ldr	r3, [r7, #12]
 800170e:	2200      	movs	r2, #0
 8001710:	611a      	str	r2, [r3, #16]
	buffer -> readPtr = 0;
 8001712:	68fb      	ldr	r3, [r7, #12]
 8001714:	2200      	movs	r2, #0
 8001716:	615a      	str	r2, [r3, #20]
	buffer -> elementSize = elementSize;
 8001718:	68fb      	ldr	r3, [r7, #12]
 800171a:	683a      	ldr	r2, [r7, #0]
 800171c:	605a      	str	r2, [r3, #4]
	buffer -> sizeB = buffer -> elementSize * buffer -> size;
 800171e:	68fb      	ldr	r3, [r7, #12]
 8001720:	685b      	ldr	r3, [r3, #4]
 8001722:	68fa      	ldr	r2, [r7, #12]
 8001724:	6812      	ldr	r2, [r2, #0]
 8001726:	fb03 f202 	mul.w	r2, r3, r2
 800172a:	68fb      	ldr	r3, [r7, #12]
 800172c:	609a      	str	r2, [r3, #8]

	memset(buffer -> buffer, 0, buffer -> sizeB);
 800172e:	68fb      	ldr	r3, [r7, #12]
 8001730:	69d8      	ldr	r0, [r3, #28]
 8001732:	68fb      	ldr	r3, [r7, #12]
 8001734:	689b      	ldr	r3, [r3, #8]
 8001736:	461a      	mov	r2, r3
 8001738:	2100      	movs	r1, #0
 800173a:	f006 fcdb 	bl	80080f4 <memset>
	return OK;
 800173e:	2301      	movs	r3, #1
}
 8001740:	4618      	mov	r0, r3
 8001742:	3710      	adds	r7, #16
 8001744:	46bd      	mov	sp, r7
 8001746:	bd80      	pop	{r7, pc}

08001748 <RingWriteElement>:
		return NO_PTR;
	}
	return RingInit(buffer, ptr, bufferSize, elementSize);
}

RingStatus_t RingWriteElement (RingBuffer_t* buffer, void* data){
 8001748:	b580      	push	{r7, lr}
 800174a:	b088      	sub	sp, #32
 800174c:	af00      	add	r7, sp, #0
 800174e:	6078      	str	r0, [r7, #4]
 8001750:	6039      	str	r1, [r7, #0]
	RingStatus_t retval = OK;
 8001752:	2301      	movs	r3, #1
 8001754:	77fb      	strb	r3, [r7, #31]

	if(buffer == NULL) return NO_PTR;
 8001756:	687b      	ldr	r3, [r7, #4]
 8001758:	2b00      	cmp	r3, #0
 800175a:	d102      	bne.n	8001762 <RingWriteElement+0x1a>
 800175c:	f06f 0302 	mvn.w	r3, #2
 8001760:	e03e      	b.n	80017e0 <RingWriteElement+0x98>
	if(data == NULL) return NO_PTR;
 8001762:	683b      	ldr	r3, [r7, #0]
 8001764:	2b00      	cmp	r3, #0
 8001766:	d102      	bne.n	800176e <RingWriteElement+0x26>
 8001768:	f06f 0302 	mvn.w	r3, #2
 800176c:	e038      	b.n	80017e0 <RingWriteElement+0x98>
	if(buffer -> buffer == NULL) return NO_PTR;
 800176e:	687b      	ldr	r3, [r7, #4]
 8001770:	69db      	ldr	r3, [r3, #28]
 8001772:	2b00      	cmp	r3, #0
 8001774:	d102      	bne.n	800177c <RingWriteElement+0x34>
 8001776:	f06f 0302 	mvn.w	r3, #2
 800177a:	e031      	b.n	80017e0 <RingWriteElement+0x98>

	uint32_t tempHead = buffer -> writePtr;
 800177c:	687b      	ldr	r3, [r7, #4]
 800177e:	691b      	ldr	r3, [r3, #16]
 8001780:	61bb      	str	r3, [r7, #24]
	uint32_t tempTail = buffer -> readPtr;
 8001782:	687b      	ldr	r3, [r7, #4]
 8001784:	695b      	ldr	r3, [r3, #20]
 8001786:	617b      	str	r3, [r7, #20]
	size_t elSize = buffer -> elementSize;
 8001788:	687b      	ldr	r3, [r7, #4]
 800178a:	685b      	ldr	r3, [r3, #4]
 800178c:	613b      	str	r3, [r7, #16]
	size_t bufferSize = buffer -> sizeB;
 800178e:	687b      	ldr	r3, [r7, #4]
 8001790:	689b      	ldr	r3, [r3, #8]
 8001792:	60fb      	str	r3, [r7, #12]

	void* wrPtr;
	wrPtr = buffer -> buffer + tempHead;
 8001794:	687b      	ldr	r3, [r7, #4]
 8001796:	69da      	ldr	r2, [r3, #28]
 8001798:	69bb      	ldr	r3, [r7, #24]
 800179a:	4413      	add	r3, r2
 800179c:	60bb      	str	r3, [r7, #8]

	tempHead = MODULO_BUF(tempHead + elSize, bufferSize);
 800179e:	69ba      	ldr	r2, [r7, #24]
 80017a0:	693b      	ldr	r3, [r7, #16]
 80017a2:	4413      	add	r3, r2
 80017a4:	68fa      	ldr	r2, [r7, #12]
 80017a6:	fbb3 f2f2 	udiv	r2, r3, r2
 80017aa:	68f9      	ldr	r1, [r7, #12]
 80017ac:	fb01 f202 	mul.w	r2, r1, r2
 80017b0:	1a9b      	subs	r3, r3, r2
 80017b2:	61bb      	str	r3, [r7, #24]
	if(tempHead != tempTail){
 80017b4:	69ba      	ldr	r2, [r7, #24]
 80017b6:	697b      	ldr	r3, [r7, #20]
 80017b8:	429a      	cmp	r2, r3
 80017ba:	d00d      	beq.n	80017d8 <RingWriteElement+0x90>
		memcpy(wrPtr, data, elSize);
 80017bc:	693a      	ldr	r2, [r7, #16]
 80017be:	6839      	ldr	r1, [r7, #0]
 80017c0:	68b8      	ldr	r0, [r7, #8]
 80017c2:	f006 fc89 	bl	80080d8 <memcpy>
		buffer -> writePtr = tempHead;
 80017c6:	687b      	ldr	r3, [r7, #4]
 80017c8:	69ba      	ldr	r2, [r7, #24]
 80017ca:	611a      	str	r2, [r3, #16]
		buffer -> place --;
 80017cc:	687b      	ldr	r3, [r7, #4]
 80017ce:	699b      	ldr	r3, [r3, #24]
 80017d0:	1e5a      	subs	r2, r3, #1
 80017d2:	687b      	ldr	r3, [r7, #4]
 80017d4:	619a      	str	r2, [r3, #24]
 80017d6:	e001      	b.n	80017dc <RingWriteElement+0x94>
	}else{
		retval = NO_PLACE;
 80017d8:	23ff      	movs	r3, #255	; 0xff
 80017da:	77fb      	strb	r3, [r7, #31]
	}
	return retval;
 80017dc:	f997 301f 	ldrsb.w	r3, [r7, #31]
}
 80017e0:	4618      	mov	r0, r3
 80017e2:	3720      	adds	r7, #32
 80017e4:	46bd      	mov	sp, r7
 80017e6:	bd80      	pop	{r7, pc}

080017e8 <RingReadElement>:
	}

	return retval;
}

RingStatus_t RingReadElement (RingBuffer_t* buffer, void* data){
 80017e8:	b580      	push	{r7, lr}
 80017ea:	b08a      	sub	sp, #40	; 0x28
 80017ec:	af00      	add	r7, sp, #0
 80017ee:	6078      	str	r0, [r7, #4]
 80017f0:	6039      	str	r1, [r7, #0]
	RingStatus_t retval = OK;
 80017f2:	2301      	movs	r3, #1
 80017f4:	f887 3027 	strb.w	r3, [r7, #39]	; 0x27
	uint32_t tempHead = buffer -> writePtr;
 80017f8:	687b      	ldr	r3, [r7, #4]
 80017fa:	691b      	ldr	r3, [r3, #16]
 80017fc:	623b      	str	r3, [r7, #32]
	uint32_t tempTail = buffer -> readPtr;
 80017fe:	687b      	ldr	r3, [r7, #4]
 8001800:	695b      	ldr	r3, [r3, #20]
 8001802:	61fb      	str	r3, [r7, #28]
	uint32_t tempPlace = buffer -> place;
 8001804:	687b      	ldr	r3, [r7, #4]
 8001806:	699b      	ldr	r3, [r3, #24]
 8001808:	61bb      	str	r3, [r7, #24]
	size_t bufferSize = buffer -> sizeB;
 800180a:	687b      	ldr	r3, [r7, #4]
 800180c:	689b      	ldr	r3, [r3, #8]
 800180e:	617b      	str	r3, [r7, #20]
	size_t elSize = buffer -> elementSize;
 8001810:	687b      	ldr	r3, [r7, #4]
 8001812:	685b      	ldr	r3, [r3, #4]
 8001814:	613b      	str	r3, [r7, #16]
	void* wrPtr;
	wrPtr = buffer -> buffer + tempTail;
 8001816:	687b      	ldr	r3, [r7, #4]
 8001818:	69da      	ldr	r2, [r3, #28]
 800181a:	69fb      	ldr	r3, [r7, #28]
 800181c:	4413      	add	r3, r2
 800181e:	60fb      	str	r3, [r7, #12]

	if(tempHead != tempTail){
 8001820:	6a3a      	ldr	r2, [r7, #32]
 8001822:	69fb      	ldr	r3, [r7, #28]
 8001824:	429a      	cmp	r2, r3
 8001826:	d019      	beq.n	800185c <RingReadElement+0x74>
		memcpy(data, wrPtr, elSize);
 8001828:	693a      	ldr	r2, [r7, #16]
 800182a:	68f9      	ldr	r1, [r7, #12]
 800182c:	6838      	ldr	r0, [r7, #0]
 800182e:	f006 fc53 	bl	80080d8 <memcpy>
		tempTail = MODULO_BUF(tempTail + elSize, bufferSize);
 8001832:	69fa      	ldr	r2, [r7, #28]
 8001834:	693b      	ldr	r3, [r7, #16]
 8001836:	4413      	add	r3, r2
 8001838:	697a      	ldr	r2, [r7, #20]
 800183a:	fbb3 f2f2 	udiv	r2, r3, r2
 800183e:	6979      	ldr	r1, [r7, #20]
 8001840:	fb01 f202 	mul.w	r2, r1, r2
 8001844:	1a9b      	subs	r3, r3, r2
 8001846:	61fb      	str	r3, [r7, #28]
		tempPlace++;
 8001848:	69bb      	ldr	r3, [r7, #24]
 800184a:	3301      	adds	r3, #1
 800184c:	61bb      	str	r3, [r7, #24]
		buffer -> readPtr = tempTail;
 800184e:	687b      	ldr	r3, [r7, #4]
 8001850:	69fa      	ldr	r2, [r7, #28]
 8001852:	615a      	str	r2, [r3, #20]
		buffer -> place = tempPlace;
 8001854:	687b      	ldr	r3, [r7, #4]
 8001856:	69ba      	ldr	r2, [r7, #24]
 8001858:	619a      	str	r2, [r3, #24]
 800185a:	e002      	b.n	8001862 <RingReadElement+0x7a>
	}else{
		retval = NO_DATA;
 800185c:	23fe      	movs	r3, #254	; 0xfe
 800185e:	f887 3027 	strb.w	r3, [r7, #39]	; 0x27
	}
	return retval;
 8001862:	f997 3027 	ldrsb.w	r3, [r7, #39]	; 0x27
}
 8001866:	4618      	mov	r0, r3
 8001868:	3728      	adds	r7, #40	; 0x28
 800186a:	46bd      	mov	sp, r7
 800186c:	bd80      	pop	{r7, pc}
	...

08001870 <socket>:
   }while(0);              \



int8_t socket(uint8_t sn, uint8_t protocol, uint16_t port, uint8_t flag)
{
 8001870:	b590      	push	{r4, r7, lr}
 8001872:	b085      	sub	sp, #20
 8001874:	af00      	add	r7, sp, #0
 8001876:	4604      	mov	r4, r0
 8001878:	4608      	mov	r0, r1
 800187a:	4611      	mov	r1, r2
 800187c:	461a      	mov	r2, r3
 800187e:	4623      	mov	r3, r4
 8001880:	71fb      	strb	r3, [r7, #7]
 8001882:	4603      	mov	r3, r0
 8001884:	71bb      	strb	r3, [r7, #6]
 8001886:	460b      	mov	r3, r1
 8001888:	80bb      	strh	r3, [r7, #4]
 800188a:	4613      	mov	r3, r2
 800188c:	70fb      	strb	r3, [r7, #3]
	CHECK_SOCKNUM();
 800188e:	79fb      	ldrb	r3, [r7, #7]
 8001890:	2b08      	cmp	r3, #8
 8001892:	d902      	bls.n	800189a <socket+0x2a>
 8001894:	f04f 33ff 	mov.w	r3, #4294967295
 8001898:	e0f2      	b.n	8001a80 <socket+0x210>
	switch(protocol)
 800189a:	79bb      	ldrb	r3, [r7, #6]
 800189c:	2b01      	cmp	r3, #1
 800189e:	d005      	beq.n	80018ac <socket+0x3c>
 80018a0:	2b00      	cmp	r3, #0
 80018a2:	dd11      	ble.n	80018c8 <socket+0x58>
 80018a4:	3b02      	subs	r3, #2
 80018a6:	2b02      	cmp	r3, #2
 80018a8:	d80e      	bhi.n	80018c8 <socket+0x58>
	    break;
         }
      case Sn_MR_UDP :
      case Sn_MR_MACRAW :
	  case Sn_MR_IPRAW :
         break;
 80018aa:	e011      	b.n	80018d0 <socket+0x60>
            getSIPR((uint8_t*)&taddr);
 80018ac:	f107 030c 	add.w	r3, r7, #12
 80018b0:	2204      	movs	r2, #4
 80018b2:	4619      	mov	r1, r3
 80018b4:	f44f 6070 	mov.w	r0, #3840	; 0xf00
 80018b8:	f001 f9ac 	bl	8002c14 <WIZCHIP_READ_BUF>
            if(taddr == 0) return SOCKERR_SOCKINIT;
 80018bc:	68fb      	ldr	r3, [r7, #12]
 80018be:	2b00      	cmp	r3, #0
 80018c0:	d105      	bne.n	80018ce <socket+0x5e>
 80018c2:	f06f 0302 	mvn.w	r3, #2
 80018c6:	e0db      	b.n	8001a80 <socket+0x210>
   #if ( _WIZCHIP_ < 5200 )
      case Sn_MR_PPPoE :
         break;
   #endif
      default :
         return SOCKERR_SOCKMODE;
 80018c8:	f06f 0304 	mvn.w	r3, #4
 80018cc:	e0d8      	b.n	8001a80 <socket+0x210>
	    break;
 80018ce:	bf00      	nop
	}
	//M20150601 : For SF_TCP_ALIGN & W5300
	//if((flag & 0x06) != 0) return SOCKERR_SOCKFLAG;
	if((flag & 0x04) != 0) return SOCKERR_SOCKFLAG;
 80018d0:	78fb      	ldrb	r3, [r7, #3]
 80018d2:	f003 0304 	and.w	r3, r3, #4
 80018d6:	2b00      	cmp	r3, #0
 80018d8:	d002      	beq.n	80018e0 <socket+0x70>
 80018da:	f06f 0305 	mvn.w	r3, #5
 80018de:	e0cf      	b.n	8001a80 <socket+0x210>
#if _WIZCHIP_ == 5200
   if(flag & 0x10) return SOCKERR_SOCKFLAG;
#endif
	   
	if(flag != 0)
 80018e0:	78fb      	ldrb	r3, [r7, #3]
 80018e2:	2b00      	cmp	r3, #0
 80018e4:	d025      	beq.n	8001932 <socket+0xc2>
	{
   	switch(protocol)
 80018e6:	79bb      	ldrb	r3, [r7, #6]
 80018e8:	2b01      	cmp	r3, #1
 80018ea:	d002      	beq.n	80018f2 <socket+0x82>
 80018ec:	2b02      	cmp	r3, #2
 80018ee:	d008      	beq.n	8001902 <socket+0x92>
      	         if((flag & SF_MULTI_ENABLE) == 0) return SOCKERR_SOCKFLAG;
      	      }
   	      #endif
   	      break;
   	   default:
   	      break;
 80018f0:	e024      	b.n	800193c <socket+0xcc>
   		     if((flag & (SF_TCP_NODELAY|SF_IO_NONBLOCK))==0) return SOCKERR_SOCKFLAG;
 80018f2:	78fb      	ldrb	r3, [r7, #3]
 80018f4:	f003 0321 	and.w	r3, r3, #33	; 0x21
 80018f8:	2b00      	cmp	r3, #0
 80018fa:	d11c      	bne.n	8001936 <socket+0xc6>
 80018fc:	f06f 0305 	mvn.w	r3, #5
 8001900:	e0be      	b.n	8001a80 <socket+0x210>
   	      if(flag & SF_IGMP_VER2)
 8001902:	78fb      	ldrb	r3, [r7, #3]
 8001904:	f003 0320 	and.w	r3, r3, #32
 8001908:	2b00      	cmp	r3, #0
 800190a:	d006      	beq.n	800191a <socket+0xaa>
   	         if((flag & SF_MULTI_ENABLE)==0) return SOCKERR_SOCKFLAG;
 800190c:	f997 3003 	ldrsb.w	r3, [r7, #3]
 8001910:	2b00      	cmp	r3, #0
 8001912:	db02      	blt.n	800191a <socket+0xaa>
 8001914:	f06f 0305 	mvn.w	r3, #5
 8001918:	e0b2      	b.n	8001a80 <socket+0x210>
      	      if(flag & SF_UNI_BLOCK)
 800191a:	78fb      	ldrb	r3, [r7, #3]
 800191c:	f003 0310 	and.w	r3, r3, #16
 8001920:	2b00      	cmp	r3, #0
 8001922:	d00a      	beq.n	800193a <socket+0xca>
      	         if((flag & SF_MULTI_ENABLE) == 0) return SOCKERR_SOCKFLAG;
 8001924:	f997 3003 	ldrsb.w	r3, [r7, #3]
 8001928:	2b00      	cmp	r3, #0
 800192a:	db06      	blt.n	800193a <socket+0xca>
 800192c:	f06f 0305 	mvn.w	r3, #5
 8001930:	e0a6      	b.n	8001a80 <socket+0x210>
   	}
   }
 8001932:	bf00      	nop
 8001934:	e002      	b.n	800193c <socket+0xcc>
   	      break;
 8001936:	bf00      	nop
 8001938:	e000      	b.n	800193c <socket+0xcc>
   	      break;
 800193a:	bf00      	nop
	close(sn);
 800193c:	79fb      	ldrb	r3, [r7, #7]
 800193e:	4618      	mov	r0, r3
 8001940:	f000 f8ac 	bl	8001a9c <close>
	//M20150601
	#if _WIZCHIP_ == 5300
	   setSn_MR(sn, ((uint16_t)(protocol | (flag & 0xF0))) | (((uint16_t)(flag & 0x02)) << 7) );
    #else
	   setSn_MR(sn, (protocol | (flag & 0xF0)));
 8001944:	79fb      	ldrb	r3, [r7, #7]
 8001946:	009b      	lsls	r3, r3, #2
 8001948:	3301      	adds	r3, #1
 800194a:	00db      	lsls	r3, r3, #3
 800194c:	4618      	mov	r0, r3
 800194e:	f997 3003 	ldrsb.w	r3, [r7, #3]
 8001952:	f023 030f 	bic.w	r3, r3, #15
 8001956:	b25a      	sxtb	r2, r3
 8001958:	f997 3006 	ldrsb.w	r3, [r7, #6]
 800195c:	4313      	orrs	r3, r2
 800195e:	b25b      	sxtb	r3, r3
 8001960:	b2db      	uxtb	r3, r3
 8001962:	4619      	mov	r1, r3
 8001964:	f001 f908 	bl	8002b78 <WIZCHIP_WRITE>
    #endif
	if(!port)
 8001968:	88bb      	ldrh	r3, [r7, #4]
 800196a:	2b00      	cmp	r3, #0
 800196c:	d110      	bne.n	8001990 <socket+0x120>
	{
	   port = sock_any_port++;
 800196e:	4b46      	ldr	r3, [pc, #280]	; (8001a88 <socket+0x218>)
 8001970:	881b      	ldrh	r3, [r3, #0]
 8001972:	1c5a      	adds	r2, r3, #1
 8001974:	b291      	uxth	r1, r2
 8001976:	4a44      	ldr	r2, [pc, #272]	; (8001a88 <socket+0x218>)
 8001978:	8011      	strh	r1, [r2, #0]
 800197a:	80bb      	strh	r3, [r7, #4]
	   if(sock_any_port == 0xFFF0) sock_any_port = SOCK_ANY_PORT_NUM;
 800197c:	4b42      	ldr	r3, [pc, #264]	; (8001a88 <socket+0x218>)
 800197e:	881b      	ldrh	r3, [r3, #0]
 8001980:	f64f 72f0 	movw	r2, #65520	; 0xfff0
 8001984:	4293      	cmp	r3, r2
 8001986:	d103      	bne.n	8001990 <socket+0x120>
 8001988:	4b3f      	ldr	r3, [pc, #252]	; (8001a88 <socket+0x218>)
 800198a:	f44f 4240 	mov.w	r2, #49152	; 0xc000
 800198e:	801a      	strh	r2, [r3, #0]
	}
   setSn_PORT(sn,port);	
 8001990:	79fb      	ldrb	r3, [r7, #7]
 8001992:	009b      	lsls	r3, r3, #2
 8001994:	3301      	adds	r3, #1
 8001996:	00db      	lsls	r3, r3, #3
 8001998:	f503 6380 	add.w	r3, r3, #1024	; 0x400
 800199c:	461a      	mov	r2, r3
 800199e:	88bb      	ldrh	r3, [r7, #4]
 80019a0:	0a1b      	lsrs	r3, r3, #8
 80019a2:	b29b      	uxth	r3, r3
 80019a4:	b2db      	uxtb	r3, r3
 80019a6:	4619      	mov	r1, r3
 80019a8:	4610      	mov	r0, r2
 80019aa:	f001 f8e5 	bl	8002b78 <WIZCHIP_WRITE>
 80019ae:	79fb      	ldrb	r3, [r7, #7]
 80019b0:	009b      	lsls	r3, r3, #2
 80019b2:	3301      	adds	r3, #1
 80019b4:	00db      	lsls	r3, r3, #3
 80019b6:	f503 63a0 	add.w	r3, r3, #1280	; 0x500
 80019ba:	461a      	mov	r2, r3
 80019bc:	88bb      	ldrh	r3, [r7, #4]
 80019be:	b2db      	uxtb	r3, r3
 80019c0:	4619      	mov	r1, r3
 80019c2:	4610      	mov	r0, r2
 80019c4:	f001 f8d8 	bl	8002b78 <WIZCHIP_WRITE>
   setSn_CR(sn,Sn_CR_OPEN);
 80019c8:	79fb      	ldrb	r3, [r7, #7]
 80019ca:	009b      	lsls	r3, r3, #2
 80019cc:	3301      	adds	r3, #1
 80019ce:	00db      	lsls	r3, r3, #3
 80019d0:	f503 7380 	add.w	r3, r3, #256	; 0x100
 80019d4:	2101      	movs	r1, #1
 80019d6:	4618      	mov	r0, r3
 80019d8:	f001 f8ce 	bl	8002b78 <WIZCHIP_WRITE>
   while(getSn_CR(sn));
 80019dc:	bf00      	nop
 80019de:	79fb      	ldrb	r3, [r7, #7]
 80019e0:	009b      	lsls	r3, r3, #2
 80019e2:	3301      	adds	r3, #1
 80019e4:	00db      	lsls	r3, r3, #3
 80019e6:	f503 7380 	add.w	r3, r3, #256	; 0x100
 80019ea:	4618      	mov	r0, r3
 80019ec:	f001 f878 	bl	8002ae0 <WIZCHIP_READ>
 80019f0:	4603      	mov	r3, r0
 80019f2:	2b00      	cmp	r3, #0
 80019f4:	d1f3      	bne.n	80019de <socket+0x16e>
   //A20150401 : For release the previous sock_io_mode
   sock_io_mode &= ~(1 <<sn);
 80019f6:	79fb      	ldrb	r3, [r7, #7]
 80019f8:	2201      	movs	r2, #1
 80019fa:	fa02 f303 	lsl.w	r3, r2, r3
 80019fe:	b21b      	sxth	r3, r3
 8001a00:	43db      	mvns	r3, r3
 8001a02:	b21a      	sxth	r2, r3
 8001a04:	4b21      	ldr	r3, [pc, #132]	; (8001a8c <socket+0x21c>)
 8001a06:	881b      	ldrh	r3, [r3, #0]
 8001a08:	b21b      	sxth	r3, r3
 8001a0a:	4013      	ands	r3, r2
 8001a0c:	b21b      	sxth	r3, r3
 8001a0e:	b29a      	uxth	r2, r3
 8001a10:	4b1e      	ldr	r3, [pc, #120]	; (8001a8c <socket+0x21c>)
 8001a12:	801a      	strh	r2, [r3, #0]
   //
	sock_io_mode |= ((flag & SF_IO_NONBLOCK) << sn);   
 8001a14:	78fb      	ldrb	r3, [r7, #3]
 8001a16:	f003 0201 	and.w	r2, r3, #1
 8001a1a:	79fb      	ldrb	r3, [r7, #7]
 8001a1c:	fa02 f303 	lsl.w	r3, r2, r3
 8001a20:	b21a      	sxth	r2, r3
 8001a22:	4b1a      	ldr	r3, [pc, #104]	; (8001a8c <socket+0x21c>)
 8001a24:	881b      	ldrh	r3, [r3, #0]
 8001a26:	b21b      	sxth	r3, r3
 8001a28:	4313      	orrs	r3, r2
 8001a2a:	b21b      	sxth	r3, r3
 8001a2c:	b29a      	uxth	r2, r3
 8001a2e:	4b17      	ldr	r3, [pc, #92]	; (8001a8c <socket+0x21c>)
 8001a30:	801a      	strh	r2, [r3, #0]
   sock_is_sending &= ~(1<<sn);
 8001a32:	79fb      	ldrb	r3, [r7, #7]
 8001a34:	2201      	movs	r2, #1
 8001a36:	fa02 f303 	lsl.w	r3, r2, r3
 8001a3a:	b21b      	sxth	r3, r3
 8001a3c:	43db      	mvns	r3, r3
 8001a3e:	b21a      	sxth	r2, r3
 8001a40:	4b13      	ldr	r3, [pc, #76]	; (8001a90 <socket+0x220>)
 8001a42:	881b      	ldrh	r3, [r3, #0]
 8001a44:	b21b      	sxth	r3, r3
 8001a46:	4013      	ands	r3, r2
 8001a48:	b21b      	sxth	r3, r3
 8001a4a:	b29a      	uxth	r2, r3
 8001a4c:	4b10      	ldr	r3, [pc, #64]	; (8001a90 <socket+0x220>)
 8001a4e:	801a      	strh	r2, [r3, #0]
   sock_remained_size[sn] = 0;
 8001a50:	79fb      	ldrb	r3, [r7, #7]
 8001a52:	4a10      	ldr	r2, [pc, #64]	; (8001a94 <socket+0x224>)
 8001a54:	2100      	movs	r1, #0
 8001a56:	f822 1013 	strh.w	r1, [r2, r3, lsl #1]
   //M20150601 : repalce 0 with PACK_COMPLETED
   //sock_pack_info[sn] = 0;
   sock_pack_info[sn] = PACK_COMPLETED;
 8001a5a:	79fb      	ldrb	r3, [r7, #7]
 8001a5c:	4a0e      	ldr	r2, [pc, #56]	; (8001a98 <socket+0x228>)
 8001a5e:	2100      	movs	r1, #0
 8001a60:	54d1      	strb	r1, [r2, r3]
   //
   while(getSn_SR(sn) == SOCK_CLOSED);
 8001a62:	bf00      	nop
 8001a64:	79fb      	ldrb	r3, [r7, #7]
 8001a66:	009b      	lsls	r3, r3, #2
 8001a68:	3301      	adds	r3, #1
 8001a6a:	00db      	lsls	r3, r3, #3
 8001a6c:	f503 7340 	add.w	r3, r3, #768	; 0x300
 8001a70:	4618      	mov	r0, r3
 8001a72:	f001 f835 	bl	8002ae0 <WIZCHIP_READ>
 8001a76:	4603      	mov	r3, r0
 8001a78:	2b00      	cmp	r3, #0
 8001a7a:	d0f3      	beq.n	8001a64 <socket+0x1f4>
   return (int8_t)sn;
 8001a7c:	f997 3007 	ldrsb.w	r3, [r7, #7]
}	   
 8001a80:	4618      	mov	r0, r3
 8001a82:	3714      	adds	r7, #20
 8001a84:	46bd      	mov	sp, r7
 8001a86:	bd90      	pop	{r4, r7, pc}
 8001a88:	20001004 	.word	0x20001004
 8001a8c:	200024fc 	.word	0x200024fc
 8001a90:	200024fe 	.word	0x200024fe
 8001a94:	20002500 	.word	0x20002500
 8001a98:	20002514 	.word	0x20002514

08001a9c <close>:

int8_t close(uint8_t sn)
{
 8001a9c:	b580      	push	{r7, lr}
 8001a9e:	b082      	sub	sp, #8
 8001aa0:	af00      	add	r7, sp, #0
 8001aa2:	4603      	mov	r3, r0
 8001aa4:	71fb      	strb	r3, [r7, #7]
	CHECK_SOCKNUM();
 8001aa6:	79fb      	ldrb	r3, [r7, #7]
 8001aa8:	2b08      	cmp	r3, #8
 8001aaa:	d902      	bls.n	8001ab2 <close+0x16>
 8001aac:	f04f 33ff 	mov.w	r3, #4294967295
 8001ab0:	e055      	b.n	8001b5e <close+0xc2>
      while(getSn_CR(sn) != 0);
      while(getSn_SR(sn) != SOCK_UDP);
      sendto(sn,destip,1,destip,0x3000); // send the dummy data to an unknown destination(0.0.0.1).
   };   
#endif 
	setSn_CR(sn,Sn_CR_CLOSE);
 8001ab2:	79fb      	ldrb	r3, [r7, #7]
 8001ab4:	009b      	lsls	r3, r3, #2
 8001ab6:	3301      	adds	r3, #1
 8001ab8:	00db      	lsls	r3, r3, #3
 8001aba:	f503 7380 	add.w	r3, r3, #256	; 0x100
 8001abe:	2110      	movs	r1, #16
 8001ac0:	4618      	mov	r0, r3
 8001ac2:	f001 f859 	bl	8002b78 <WIZCHIP_WRITE>
   /* wait to process the command... */
	while( getSn_CR(sn) );
 8001ac6:	bf00      	nop
 8001ac8:	79fb      	ldrb	r3, [r7, #7]
 8001aca:	009b      	lsls	r3, r3, #2
 8001acc:	3301      	adds	r3, #1
 8001ace:	00db      	lsls	r3, r3, #3
 8001ad0:	f503 7380 	add.w	r3, r3, #256	; 0x100
 8001ad4:	4618      	mov	r0, r3
 8001ad6:	f001 f803 	bl	8002ae0 <WIZCHIP_READ>
 8001ada:	4603      	mov	r3, r0
 8001adc:	2b00      	cmp	r3, #0
 8001ade:	d1f3      	bne.n	8001ac8 <close+0x2c>
	/* clear all interrupt of the socket. */
	setSn_IR(sn, 0xFF);
 8001ae0:	79fb      	ldrb	r3, [r7, #7]
 8001ae2:	009b      	lsls	r3, r3, #2
 8001ae4:	3301      	adds	r3, #1
 8001ae6:	00db      	lsls	r3, r3, #3
 8001ae8:	f503 7300 	add.w	r3, r3, #512	; 0x200
 8001aec:	211f      	movs	r1, #31
 8001aee:	4618      	mov	r0, r3
 8001af0:	f001 f842 	bl	8002b78 <WIZCHIP_WRITE>
	//A20150401 : Release the sock_io_mode of socket n.
	sock_io_mode &= ~(1<<sn);
 8001af4:	79fb      	ldrb	r3, [r7, #7]
 8001af6:	2201      	movs	r2, #1
 8001af8:	fa02 f303 	lsl.w	r3, r2, r3
 8001afc:	b21b      	sxth	r3, r3
 8001afe:	43db      	mvns	r3, r3
 8001b00:	b21a      	sxth	r2, r3
 8001b02:	4b19      	ldr	r3, [pc, #100]	; (8001b68 <close+0xcc>)
 8001b04:	881b      	ldrh	r3, [r3, #0]
 8001b06:	b21b      	sxth	r3, r3
 8001b08:	4013      	ands	r3, r2
 8001b0a:	b21b      	sxth	r3, r3
 8001b0c:	b29a      	uxth	r2, r3
 8001b0e:	4b16      	ldr	r3, [pc, #88]	; (8001b68 <close+0xcc>)
 8001b10:	801a      	strh	r2, [r3, #0]
	//
	sock_is_sending &= ~(1<<sn);
 8001b12:	79fb      	ldrb	r3, [r7, #7]
 8001b14:	2201      	movs	r2, #1
 8001b16:	fa02 f303 	lsl.w	r3, r2, r3
 8001b1a:	b21b      	sxth	r3, r3
 8001b1c:	43db      	mvns	r3, r3
 8001b1e:	b21a      	sxth	r2, r3
 8001b20:	4b12      	ldr	r3, [pc, #72]	; (8001b6c <close+0xd0>)
 8001b22:	881b      	ldrh	r3, [r3, #0]
 8001b24:	b21b      	sxth	r3, r3
 8001b26:	4013      	ands	r3, r2
 8001b28:	b21b      	sxth	r3, r3
 8001b2a:	b29a      	uxth	r2, r3
 8001b2c:	4b0f      	ldr	r3, [pc, #60]	; (8001b6c <close+0xd0>)
 8001b2e:	801a      	strh	r2, [r3, #0]
	sock_remained_size[sn] = 0;
 8001b30:	79fb      	ldrb	r3, [r7, #7]
 8001b32:	4a0f      	ldr	r2, [pc, #60]	; (8001b70 <close+0xd4>)
 8001b34:	2100      	movs	r1, #0
 8001b36:	f822 1013 	strh.w	r1, [r2, r3, lsl #1]
	sock_pack_info[sn] = 0;
 8001b3a:	79fb      	ldrb	r3, [r7, #7]
 8001b3c:	4a0d      	ldr	r2, [pc, #52]	; (8001b74 <close+0xd8>)
 8001b3e:	2100      	movs	r1, #0
 8001b40:	54d1      	strb	r1, [r2, r3]
	while(getSn_SR(sn) != SOCK_CLOSED);
 8001b42:	bf00      	nop
 8001b44:	79fb      	ldrb	r3, [r7, #7]
 8001b46:	009b      	lsls	r3, r3, #2
 8001b48:	3301      	adds	r3, #1
 8001b4a:	00db      	lsls	r3, r3, #3
 8001b4c:	f503 7340 	add.w	r3, r3, #768	; 0x300
 8001b50:	4618      	mov	r0, r3
 8001b52:	f000 ffc5 	bl	8002ae0 <WIZCHIP_READ>
 8001b56:	4603      	mov	r3, r0
 8001b58:	2b00      	cmp	r3, #0
 8001b5a:	d1f3      	bne.n	8001b44 <close+0xa8>
	return SOCK_OK;
 8001b5c:	2301      	movs	r3, #1
}
 8001b5e:	4618      	mov	r0, r3
 8001b60:	3708      	adds	r7, #8
 8001b62:	46bd      	mov	sp, r7
 8001b64:	bd80      	pop	{r7, pc}
 8001b66:	bf00      	nop
 8001b68:	200024fc 	.word	0x200024fc
 8001b6c:	200024fe 	.word	0x200024fe
 8001b70:	20002500 	.word	0x20002500
 8001b74:	20002514 	.word	0x20002514

08001b78 <connect>:
   return SOCK_OK;
}


int8_t connect(uint8_t sn, uint8_t * addr, uint16_t port)
{
 8001b78:	b580      	push	{r7, lr}
 8001b7a:	b084      	sub	sp, #16
 8001b7c:	af00      	add	r7, sp, #0
 8001b7e:	4603      	mov	r3, r0
 8001b80:	6039      	str	r1, [r7, #0]
 8001b82:	71fb      	strb	r3, [r7, #7]
 8001b84:	4613      	mov	r3, r2
 8001b86:	80bb      	strh	r3, [r7, #4]
   CHECK_SOCKNUM();
 8001b88:	79fb      	ldrb	r3, [r7, #7]
 8001b8a:	2b08      	cmp	r3, #8
 8001b8c:	d902      	bls.n	8001b94 <connect+0x1c>
 8001b8e:	f04f 33ff 	mov.w	r3, #4294967295
 8001b92:	e0c6      	b.n	8001d22 <connect+0x1aa>
   CHECK_SOCKMODE(Sn_MR_TCP);
 8001b94:	79fb      	ldrb	r3, [r7, #7]
 8001b96:	009b      	lsls	r3, r3, #2
 8001b98:	3301      	adds	r3, #1
 8001b9a:	00db      	lsls	r3, r3, #3
 8001b9c:	4618      	mov	r0, r3
 8001b9e:	f000 ff9f 	bl	8002ae0 <WIZCHIP_READ>
 8001ba2:	4603      	mov	r3, r0
 8001ba4:	f003 030f 	and.w	r3, r3, #15
 8001ba8:	2b01      	cmp	r3, #1
 8001baa:	d002      	beq.n	8001bb2 <connect+0x3a>
 8001bac:	f06f 0304 	mvn.w	r3, #4
 8001bb0:	e0b7      	b.n	8001d22 <connect+0x1aa>
   CHECK_SOCKINIT();
 8001bb2:	79fb      	ldrb	r3, [r7, #7]
 8001bb4:	009b      	lsls	r3, r3, #2
 8001bb6:	3301      	adds	r3, #1
 8001bb8:	00db      	lsls	r3, r3, #3
 8001bba:	f503 7340 	add.w	r3, r3, #768	; 0x300
 8001bbe:	4618      	mov	r0, r3
 8001bc0:	f000 ff8e 	bl	8002ae0 <WIZCHIP_READ>
 8001bc4:	4603      	mov	r3, r0
 8001bc6:	2b13      	cmp	r3, #19
 8001bc8:	d002      	beq.n	8001bd0 <connect+0x58>
 8001bca:	f06f 0302 	mvn.w	r3, #2
 8001bce:	e0a8      	b.n	8001d22 <connect+0x1aa>
   //M20140501 : For avoiding fatal error on memory align mismatched
   //if( *((uint32_t*)addr) == 0xFFFFFFFF || *((uint32_t*)addr) == 0) return SOCKERR_IPINVALID;
   {
      uint32_t taddr;
      taddr = ((uint32_t)addr[0] & 0x000000FF);
 8001bd0:	683b      	ldr	r3, [r7, #0]
 8001bd2:	781b      	ldrb	r3, [r3, #0]
 8001bd4:	60fb      	str	r3, [r7, #12]
      taddr = (taddr << 8) + ((uint32_t)addr[1] & 0x000000FF);
 8001bd6:	68fb      	ldr	r3, [r7, #12]
 8001bd8:	021b      	lsls	r3, r3, #8
 8001bda:	683a      	ldr	r2, [r7, #0]
 8001bdc:	3201      	adds	r2, #1
 8001bde:	7812      	ldrb	r2, [r2, #0]
 8001be0:	4413      	add	r3, r2
 8001be2:	60fb      	str	r3, [r7, #12]
      taddr = (taddr << 8) + ((uint32_t)addr[2] & 0x000000FF);
 8001be4:	68fb      	ldr	r3, [r7, #12]
 8001be6:	021b      	lsls	r3, r3, #8
 8001be8:	683a      	ldr	r2, [r7, #0]
 8001bea:	3202      	adds	r2, #2
 8001bec:	7812      	ldrb	r2, [r2, #0]
 8001bee:	4413      	add	r3, r2
 8001bf0:	60fb      	str	r3, [r7, #12]
      taddr = (taddr << 8) + ((uint32_t)addr[3] & 0x000000FF);
 8001bf2:	68fb      	ldr	r3, [r7, #12]
 8001bf4:	021b      	lsls	r3, r3, #8
 8001bf6:	683a      	ldr	r2, [r7, #0]
 8001bf8:	3203      	adds	r2, #3
 8001bfa:	7812      	ldrb	r2, [r2, #0]
 8001bfc:	4413      	add	r3, r2
 8001bfe:	60fb      	str	r3, [r7, #12]
      if( taddr == 0xFFFFFFFF || taddr == 0) return SOCKERR_IPINVALID;
 8001c00:	68fb      	ldr	r3, [r7, #12]
 8001c02:	f1b3 3fff 	cmp.w	r3, #4294967295
 8001c06:	d002      	beq.n	8001c0e <connect+0x96>
 8001c08:	68fb      	ldr	r3, [r7, #12]
 8001c0a:	2b00      	cmp	r3, #0
 8001c0c:	d102      	bne.n	8001c14 <connect+0x9c>
 8001c0e:	f06f 030b 	mvn.w	r3, #11
 8001c12:	e086      	b.n	8001d22 <connect+0x1aa>
   }

	if(port == 0) return SOCKERR_PORTZERO;
 8001c14:	88bb      	ldrh	r3, [r7, #4]
 8001c16:	2b00      	cmp	r3, #0
 8001c18:	d102      	bne.n	8001c20 <connect+0xa8>
 8001c1a:	f06f 030a 	mvn.w	r3, #10
 8001c1e:	e080      	b.n	8001d22 <connect+0x1aa>
	setSn_DIPR(sn,addr);
 8001c20:	79fb      	ldrb	r3, [r7, #7]
 8001c22:	009b      	lsls	r3, r3, #2
 8001c24:	3301      	adds	r3, #1
 8001c26:	00db      	lsls	r3, r3, #3
 8001c28:	f503 6340 	add.w	r3, r3, #3072	; 0xc00
 8001c2c:	2204      	movs	r2, #4
 8001c2e:	6839      	ldr	r1, [r7, #0]
 8001c30:	4618      	mov	r0, r3
 8001c32:	f001 f84f 	bl	8002cd4 <WIZCHIP_WRITE_BUF>
	setSn_DPORT(sn,port);
 8001c36:	79fb      	ldrb	r3, [r7, #7]
 8001c38:	009b      	lsls	r3, r3, #2
 8001c3a:	3301      	adds	r3, #1
 8001c3c:	00db      	lsls	r3, r3, #3
 8001c3e:	f503 5380 	add.w	r3, r3, #4096	; 0x1000
 8001c42:	461a      	mov	r2, r3
 8001c44:	88bb      	ldrh	r3, [r7, #4]
 8001c46:	0a1b      	lsrs	r3, r3, #8
 8001c48:	b29b      	uxth	r3, r3
 8001c4a:	b2db      	uxtb	r3, r3
 8001c4c:	4619      	mov	r1, r3
 8001c4e:	4610      	mov	r0, r2
 8001c50:	f000 ff92 	bl	8002b78 <WIZCHIP_WRITE>
 8001c54:	79fb      	ldrb	r3, [r7, #7]
 8001c56:	009b      	lsls	r3, r3, #2
 8001c58:	3301      	adds	r3, #1
 8001c5a:	00db      	lsls	r3, r3, #3
 8001c5c:	f503 5388 	add.w	r3, r3, #4352	; 0x1100
 8001c60:	461a      	mov	r2, r3
 8001c62:	88bb      	ldrh	r3, [r7, #4]
 8001c64:	b2db      	uxtb	r3, r3
 8001c66:	4619      	mov	r1, r3
 8001c68:	4610      	mov	r0, r2
 8001c6a:	f000 ff85 	bl	8002b78 <WIZCHIP_WRITE>
	setSn_CR(sn,Sn_CR_CONNECT);
 8001c6e:	79fb      	ldrb	r3, [r7, #7]
 8001c70:	009b      	lsls	r3, r3, #2
 8001c72:	3301      	adds	r3, #1
 8001c74:	00db      	lsls	r3, r3, #3
 8001c76:	f503 7380 	add.w	r3, r3, #256	; 0x100
 8001c7a:	2104      	movs	r1, #4
 8001c7c:	4618      	mov	r0, r3
 8001c7e:	f000 ff7b 	bl	8002b78 <WIZCHIP_WRITE>
   while(getSn_CR(sn));
 8001c82:	bf00      	nop
 8001c84:	79fb      	ldrb	r3, [r7, #7]
 8001c86:	009b      	lsls	r3, r3, #2
 8001c88:	3301      	adds	r3, #1
 8001c8a:	00db      	lsls	r3, r3, #3
 8001c8c:	f503 7380 	add.w	r3, r3, #256	; 0x100
 8001c90:	4618      	mov	r0, r3
 8001c92:	f000 ff25 	bl	8002ae0 <WIZCHIP_READ>
 8001c96:	4603      	mov	r3, r0
 8001c98:	2b00      	cmp	r3, #0
 8001c9a:	d1f3      	bne.n	8001c84 <connect+0x10c>
   if(sock_io_mode & (1<<sn)) return SOCK_BUSY;
 8001c9c:	4b23      	ldr	r3, [pc, #140]	; (8001d2c <connect+0x1b4>)
 8001c9e:	881b      	ldrh	r3, [r3, #0]
 8001ca0:	461a      	mov	r2, r3
 8001ca2:	79fb      	ldrb	r3, [r7, #7]
 8001ca4:	fa42 f303 	asr.w	r3, r2, r3
 8001ca8:	f003 0301 	and.w	r3, r3, #1
 8001cac:	2b00      	cmp	r3, #0
 8001cae:	d02b      	beq.n	8001d08 <connect+0x190>
 8001cb0:	2300      	movs	r3, #0
 8001cb2:	e036      	b.n	8001d22 <connect+0x1aa>
   while(getSn_SR(sn) != SOCK_ESTABLISHED)
   {
//	    Refresh_Watchdog();
		if (getSn_IR(sn) & Sn_IR_TIMEOUT)
 8001cb4:	79fb      	ldrb	r3, [r7, #7]
 8001cb6:	009b      	lsls	r3, r3, #2
 8001cb8:	3301      	adds	r3, #1
 8001cba:	00db      	lsls	r3, r3, #3
 8001cbc:	f503 7300 	add.w	r3, r3, #512	; 0x200
 8001cc0:	4618      	mov	r0, r3
 8001cc2:	f000 ff0d 	bl	8002ae0 <WIZCHIP_READ>
 8001cc6:	4603      	mov	r3, r0
 8001cc8:	f003 0308 	and.w	r3, r3, #8
 8001ccc:	2b00      	cmp	r3, #0
 8001cce:	d00c      	beq.n	8001cea <connect+0x172>
		{
			setSn_IR(sn, Sn_IR_TIMEOUT);
 8001cd0:	79fb      	ldrb	r3, [r7, #7]
 8001cd2:	009b      	lsls	r3, r3, #2
 8001cd4:	3301      	adds	r3, #1
 8001cd6:	00db      	lsls	r3, r3, #3
 8001cd8:	f503 7300 	add.w	r3, r3, #512	; 0x200
 8001cdc:	2108      	movs	r1, #8
 8001cde:	4618      	mov	r0, r3
 8001ce0:	f000 ff4a 	bl	8002b78 <WIZCHIP_WRITE>
			return SOCKERR_TIMEOUT;
 8001ce4:	f06f 030c 	mvn.w	r3, #12
 8001ce8:	e01b      	b.n	8001d22 <connect+0x1aa>
		}

		if (getSn_SR(sn) == SOCK_CLOSED)
 8001cea:	79fb      	ldrb	r3, [r7, #7]
 8001cec:	009b      	lsls	r3, r3, #2
 8001cee:	3301      	adds	r3, #1
 8001cf0:	00db      	lsls	r3, r3, #3
 8001cf2:	f503 7340 	add.w	r3, r3, #768	; 0x300
 8001cf6:	4618      	mov	r0, r3
 8001cf8:	f000 fef2 	bl	8002ae0 <WIZCHIP_READ>
 8001cfc:	4603      	mov	r3, r0
 8001cfe:	2b00      	cmp	r3, #0
 8001d00:	d102      	bne.n	8001d08 <connect+0x190>
		{
			return SOCKERR_SOCKCLOSED;
 8001d02:	f06f 0303 	mvn.w	r3, #3
 8001d06:	e00c      	b.n	8001d22 <connect+0x1aa>
   while(getSn_SR(sn) != SOCK_ESTABLISHED)
 8001d08:	79fb      	ldrb	r3, [r7, #7]
 8001d0a:	009b      	lsls	r3, r3, #2
 8001d0c:	3301      	adds	r3, #1
 8001d0e:	00db      	lsls	r3, r3, #3
 8001d10:	f503 7340 	add.w	r3, r3, #768	; 0x300
 8001d14:	4618      	mov	r0, r3
 8001d16:	f000 fee3 	bl	8002ae0 <WIZCHIP_READ>
 8001d1a:	4603      	mov	r3, r0
 8001d1c:	2b17      	cmp	r3, #23
 8001d1e:	d1c9      	bne.n	8001cb4 <connect+0x13c>
		}
	}
   
   return SOCK_OK;
 8001d20:	2301      	movs	r3, #1
}
 8001d22:	4618      	mov	r0, r3
 8001d24:	3710      	adds	r7, #16
 8001d26:	46bd      	mov	sp, r7
 8001d28:	bd80      	pop	{r7, pc}
 8001d2a:	bf00      	nop
 8001d2c:	200024fc 	.word	0x200024fc

08001d30 <send>:
	return SOCK_OK;
}


int32_t send(uint8_t sn, uint8_t * buf, uint16_t len)
{
 8001d30:	b580      	push	{r7, lr}
 8001d32:	b084      	sub	sp, #16
 8001d34:	af00      	add	r7, sp, #0
 8001d36:	4603      	mov	r3, r0
 8001d38:	6039      	str	r1, [r7, #0]
 8001d3a:	71fb      	strb	r3, [r7, #7]
 8001d3c:	4613      	mov	r3, r2
 8001d3e:	80bb      	strh	r3, [r7, #4]
   uint8_t tmp=0;
 8001d40:	2300      	movs	r3, #0
 8001d42:	73fb      	strb	r3, [r7, #15]
   uint16_t freesize=0;
 8001d44:	2300      	movs	r3, #0
 8001d46:	81bb      	strh	r3, [r7, #12]
   
   CHECK_SOCKNUM();
 8001d48:	79fb      	ldrb	r3, [r7, #7]
 8001d4a:	2b08      	cmp	r3, #8
 8001d4c:	d902      	bls.n	8001d54 <send+0x24>
 8001d4e:	f04f 33ff 	mov.w	r3, #4294967295
 8001d52:	e0de      	b.n	8001f12 <send+0x1e2>
   CHECK_SOCKMODE(Sn_MR_TCP);
 8001d54:	79fb      	ldrb	r3, [r7, #7]
 8001d56:	009b      	lsls	r3, r3, #2
 8001d58:	3301      	adds	r3, #1
 8001d5a:	00db      	lsls	r3, r3, #3
 8001d5c:	4618      	mov	r0, r3
 8001d5e:	f000 febf 	bl	8002ae0 <WIZCHIP_READ>
 8001d62:	4603      	mov	r3, r0
 8001d64:	f003 030f 	and.w	r3, r3, #15
 8001d68:	2b01      	cmp	r3, #1
 8001d6a:	d002      	beq.n	8001d72 <send+0x42>
 8001d6c:	f06f 0304 	mvn.w	r3, #4
 8001d70:	e0cf      	b.n	8001f12 <send+0x1e2>
   CHECK_SOCKDATA();
 8001d72:	88bb      	ldrh	r3, [r7, #4]
 8001d74:	2b00      	cmp	r3, #0
 8001d76:	d102      	bne.n	8001d7e <send+0x4e>
 8001d78:	f06f 030d 	mvn.w	r3, #13
 8001d7c:	e0c9      	b.n	8001f12 <send+0x1e2>
   tmp = getSn_SR(sn);
 8001d7e:	79fb      	ldrb	r3, [r7, #7]
 8001d80:	009b      	lsls	r3, r3, #2
 8001d82:	3301      	adds	r3, #1
 8001d84:	00db      	lsls	r3, r3, #3
 8001d86:	f503 7340 	add.w	r3, r3, #768	; 0x300
 8001d8a:	4618      	mov	r0, r3
 8001d8c:	f000 fea8 	bl	8002ae0 <WIZCHIP_READ>
 8001d90:	4603      	mov	r3, r0
 8001d92:	73fb      	strb	r3, [r7, #15]
   if(tmp != SOCK_ESTABLISHED && tmp != SOCK_CLOSE_WAIT) return SOCKERR_SOCKSTATUS;
 8001d94:	7bfb      	ldrb	r3, [r7, #15]
 8001d96:	2b17      	cmp	r3, #23
 8001d98:	d005      	beq.n	8001da6 <send+0x76>
 8001d9a:	7bfb      	ldrb	r3, [r7, #15]
 8001d9c:	2b1c      	cmp	r3, #28
 8001d9e:	d002      	beq.n	8001da6 <send+0x76>
 8001da0:	f06f 0306 	mvn.w	r3, #6
 8001da4:	e0b5      	b.n	8001f12 <send+0x1e2>
   if( sock_is_sending & (1<<sn) )
 8001da6:	4b5d      	ldr	r3, [pc, #372]	; (8001f1c <send+0x1ec>)
 8001da8:	881b      	ldrh	r3, [r3, #0]
 8001daa:	461a      	mov	r2, r3
 8001dac:	79fb      	ldrb	r3, [r7, #7]
 8001dae:	fa42 f303 	asr.w	r3, r2, r3
 8001db2:	f003 0301 	and.w	r3, r3, #1
 8001db6:	2b00      	cmp	r3, #0
 8001db8:	d039      	beq.n	8001e2e <send+0xfe>
   {
      tmp = getSn_IR(sn);
 8001dba:	79fb      	ldrb	r3, [r7, #7]
 8001dbc:	009b      	lsls	r3, r3, #2
 8001dbe:	3301      	adds	r3, #1
 8001dc0:	00db      	lsls	r3, r3, #3
 8001dc2:	f503 7300 	add.w	r3, r3, #512	; 0x200
 8001dc6:	4618      	mov	r0, r3
 8001dc8:	f000 fe8a 	bl	8002ae0 <WIZCHIP_READ>
 8001dcc:	4603      	mov	r3, r0
 8001dce:	f003 031f 	and.w	r3, r3, #31
 8001dd2:	73fb      	strb	r3, [r7, #15]
      if(tmp & Sn_IR_SENDOK)
 8001dd4:	7bfb      	ldrb	r3, [r7, #15]
 8001dd6:	f003 0310 	and.w	r3, r3, #16
 8001dda:	2b00      	cmp	r3, #0
 8001ddc:	d019      	beq.n	8001e12 <send+0xe2>
      {
         setSn_IR(sn, Sn_IR_SENDOK);
 8001dde:	79fb      	ldrb	r3, [r7, #7]
 8001de0:	009b      	lsls	r3, r3, #2
 8001de2:	3301      	adds	r3, #1
 8001de4:	00db      	lsls	r3, r3, #3
 8001de6:	f503 7300 	add.w	r3, r3, #512	; 0x200
 8001dea:	2110      	movs	r1, #16
 8001dec:	4618      	mov	r0, r3
 8001dee:	f000 fec3 	bl	8002b78 <WIZCHIP_WRITE>
               setSn_CR(sn,Sn_CR_SEND);
               while(getSn_CR(sn));
               return SOCK_BUSY;
            }
         #endif
         sock_is_sending &= ~(1<<sn);         
 8001df2:	79fb      	ldrb	r3, [r7, #7]
 8001df4:	2201      	movs	r2, #1
 8001df6:	fa02 f303 	lsl.w	r3, r2, r3
 8001dfa:	b21b      	sxth	r3, r3
 8001dfc:	43db      	mvns	r3, r3
 8001dfe:	b21a      	sxth	r2, r3
 8001e00:	4b46      	ldr	r3, [pc, #280]	; (8001f1c <send+0x1ec>)
 8001e02:	881b      	ldrh	r3, [r3, #0]
 8001e04:	b21b      	sxth	r3, r3
 8001e06:	4013      	ands	r3, r2
 8001e08:	b21b      	sxth	r3, r3
 8001e0a:	b29a      	uxth	r2, r3
 8001e0c:	4b43      	ldr	r3, [pc, #268]	; (8001f1c <send+0x1ec>)
 8001e0e:	801a      	strh	r2, [r3, #0]
 8001e10:	e00d      	b.n	8001e2e <send+0xfe>
      }
      else if(tmp & Sn_IR_TIMEOUT)
 8001e12:	7bfb      	ldrb	r3, [r7, #15]
 8001e14:	f003 0308 	and.w	r3, r3, #8
 8001e18:	2b00      	cmp	r3, #0
 8001e1a:	d006      	beq.n	8001e2a <send+0xfa>
      {
         close(sn);
 8001e1c:	79fb      	ldrb	r3, [r7, #7]
 8001e1e:	4618      	mov	r0, r3
 8001e20:	f7ff fe3c 	bl	8001a9c <close>
         return SOCKERR_TIMEOUT;
 8001e24:	f06f 030c 	mvn.w	r3, #12
 8001e28:	e073      	b.n	8001f12 <send+0x1e2>
      }
      else return SOCK_BUSY;
 8001e2a:	2300      	movs	r3, #0
 8001e2c:	e071      	b.n	8001f12 <send+0x1e2>
   }
   freesize = getSn_TxMAX(sn);
 8001e2e:	79fb      	ldrb	r3, [r7, #7]
 8001e30:	009b      	lsls	r3, r3, #2
 8001e32:	3301      	adds	r3, #1
 8001e34:	00db      	lsls	r3, r3, #3
 8001e36:	f503 53f8 	add.w	r3, r3, #7936	; 0x1f00
 8001e3a:	4618      	mov	r0, r3
 8001e3c:	f000 fe50 	bl	8002ae0 <WIZCHIP_READ>
 8001e40:	4603      	mov	r3, r0
 8001e42:	b29b      	uxth	r3, r3
 8001e44:	029b      	lsls	r3, r3, #10
 8001e46:	81bb      	strh	r3, [r7, #12]
   if (len > freesize) len = freesize; // check size not to exceed MAX size.
 8001e48:	88ba      	ldrh	r2, [r7, #4]
 8001e4a:	89bb      	ldrh	r3, [r7, #12]
 8001e4c:	429a      	cmp	r2, r3
 8001e4e:	d901      	bls.n	8001e54 <send+0x124>
 8001e50:	89bb      	ldrh	r3, [r7, #12]
 8001e52:	80bb      	strh	r3, [r7, #4]
   while(1)
   {
      freesize = getSn_TX_FSR(sn);
 8001e54:	79fb      	ldrb	r3, [r7, #7]
 8001e56:	4618      	mov	r0, r3
 8001e58:	f000 ff9c 	bl	8002d94 <getSn_TX_FSR>
 8001e5c:	4603      	mov	r3, r0
 8001e5e:	81bb      	strh	r3, [r7, #12]
      tmp = getSn_SR(sn);
 8001e60:	79fb      	ldrb	r3, [r7, #7]
 8001e62:	009b      	lsls	r3, r3, #2
 8001e64:	3301      	adds	r3, #1
 8001e66:	00db      	lsls	r3, r3, #3
 8001e68:	f503 7340 	add.w	r3, r3, #768	; 0x300
 8001e6c:	4618      	mov	r0, r3
 8001e6e:	f000 fe37 	bl	8002ae0 <WIZCHIP_READ>
 8001e72:	4603      	mov	r3, r0
 8001e74:	73fb      	strb	r3, [r7, #15]
      if ((tmp != SOCK_ESTABLISHED) && (tmp != SOCK_CLOSE_WAIT))
 8001e76:	7bfb      	ldrb	r3, [r7, #15]
 8001e78:	2b17      	cmp	r3, #23
 8001e7a:	d009      	beq.n	8001e90 <send+0x160>
 8001e7c:	7bfb      	ldrb	r3, [r7, #15]
 8001e7e:	2b1c      	cmp	r3, #28
 8001e80:	d006      	beq.n	8001e90 <send+0x160>
      {
         close(sn);
 8001e82:	79fb      	ldrb	r3, [r7, #7]
 8001e84:	4618      	mov	r0, r3
 8001e86:	f7ff fe09 	bl	8001a9c <close>
         return SOCKERR_SOCKSTATUS;
 8001e8a:	f06f 0306 	mvn.w	r3, #6
 8001e8e:	e040      	b.n	8001f12 <send+0x1e2>
      }
      if( (sock_io_mode & (1<<sn)) && (len > freesize) ) return SOCK_BUSY;
 8001e90:	4b23      	ldr	r3, [pc, #140]	; (8001f20 <send+0x1f0>)
 8001e92:	881b      	ldrh	r3, [r3, #0]
 8001e94:	461a      	mov	r2, r3
 8001e96:	79fb      	ldrb	r3, [r7, #7]
 8001e98:	fa42 f303 	asr.w	r3, r2, r3
 8001e9c:	f003 0301 	and.w	r3, r3, #1
 8001ea0:	2b00      	cmp	r3, #0
 8001ea2:	d005      	beq.n	8001eb0 <send+0x180>
 8001ea4:	88ba      	ldrh	r2, [r7, #4]
 8001ea6:	89bb      	ldrh	r3, [r7, #12]
 8001ea8:	429a      	cmp	r2, r3
 8001eaa:	d901      	bls.n	8001eb0 <send+0x180>
 8001eac:	2300      	movs	r3, #0
 8001eae:	e030      	b.n	8001f12 <send+0x1e2>
      if(len <= freesize) break;
 8001eb0:	88ba      	ldrh	r2, [r7, #4]
 8001eb2:	89bb      	ldrh	r3, [r7, #12]
 8001eb4:	429a      	cmp	r2, r3
 8001eb6:	d900      	bls.n	8001eba <send+0x18a>
      freesize = getSn_TX_FSR(sn);
 8001eb8:	e7cc      	b.n	8001e54 <send+0x124>
      if(len <= freesize) break;
 8001eba:	bf00      	nop
   }
   wiz_send_data(sn, buf, len);
 8001ebc:	88ba      	ldrh	r2, [r7, #4]
 8001ebe:	79fb      	ldrb	r3, [r7, #7]
 8001ec0:	6839      	ldr	r1, [r7, #0]
 8001ec2:	4618      	mov	r0, r3
 8001ec4:	f000 fffc 	bl	8002ec0 <wiz_send_data>

   #if _WIZCHIP_ == 5300
      setSn_TX_WRSR(sn,len);
   #endif
   
   setSn_CR(sn,Sn_CR_SEND);
 8001ec8:	79fb      	ldrb	r3, [r7, #7]
 8001eca:	009b      	lsls	r3, r3, #2
 8001ecc:	3301      	adds	r3, #1
 8001ece:	00db      	lsls	r3, r3, #3
 8001ed0:	f503 7380 	add.w	r3, r3, #256	; 0x100
 8001ed4:	2120      	movs	r1, #32
 8001ed6:	4618      	mov	r0, r3
 8001ed8:	f000 fe4e 	bl	8002b78 <WIZCHIP_WRITE>
   /* wait to process the command... */
   while(getSn_CR(sn));
 8001edc:	bf00      	nop
 8001ede:	79fb      	ldrb	r3, [r7, #7]
 8001ee0:	009b      	lsls	r3, r3, #2
 8001ee2:	3301      	adds	r3, #1
 8001ee4:	00db      	lsls	r3, r3, #3
 8001ee6:	f503 7380 	add.w	r3, r3, #256	; 0x100
 8001eea:	4618      	mov	r0, r3
 8001eec:	f000 fdf8 	bl	8002ae0 <WIZCHIP_READ>
 8001ef0:	4603      	mov	r3, r0
 8001ef2:	2b00      	cmp	r3, #0
 8001ef4:	d1f3      	bne.n	8001ede <send+0x1ae>
   sock_is_sending |= (1 << sn);
 8001ef6:	79fb      	ldrb	r3, [r7, #7]
 8001ef8:	2201      	movs	r2, #1
 8001efa:	fa02 f303 	lsl.w	r3, r2, r3
 8001efe:	b21a      	sxth	r2, r3
 8001f00:	4b06      	ldr	r3, [pc, #24]	; (8001f1c <send+0x1ec>)
 8001f02:	881b      	ldrh	r3, [r3, #0]
 8001f04:	b21b      	sxth	r3, r3
 8001f06:	4313      	orrs	r3, r2
 8001f08:	b21b      	sxth	r3, r3
 8001f0a:	b29a      	uxth	r2, r3
 8001f0c:	4b03      	ldr	r3, [pc, #12]	; (8001f1c <send+0x1ec>)
 8001f0e:	801a      	strh	r2, [r3, #0]
   //M20150409 : Explicit Type Casting
   //return len;
   return (int32_t)len;
 8001f10:	88bb      	ldrh	r3, [r7, #4]
}
 8001f12:	4618      	mov	r0, r3
 8001f14:	3710      	adds	r7, #16
 8001f16:	46bd      	mov	sp, r7
 8001f18:	bd80      	pop	{r7, pc}
 8001f1a:	bf00      	nop
 8001f1c:	200024fe 	.word	0x200024fe
 8001f20:	200024fc 	.word	0x200024fc

08001f24 <recv>:


int32_t recv(uint8_t sn, uint8_t * buf, uint16_t len)
{
 8001f24:	b590      	push	{r4, r7, lr}
 8001f26:	b085      	sub	sp, #20
 8001f28:	af00      	add	r7, sp, #0
 8001f2a:	4603      	mov	r3, r0
 8001f2c:	6039      	str	r1, [r7, #0]
 8001f2e:	71fb      	strb	r3, [r7, #7]
 8001f30:	4613      	mov	r3, r2
 8001f32:	80bb      	strh	r3, [r7, #4]
   uint8_t  tmp = 0;
 8001f34:	2300      	movs	r3, #0
 8001f36:	73fb      	strb	r3, [r7, #15]
   uint16_t recvsize = 0;
 8001f38:	2300      	movs	r3, #0
 8001f3a:	81bb      	strh	r3, [r7, #12]
#if   _WIZCHIP_ == 5300
   uint8_t head[2];
   uint16_t mr;
#endif
//
   CHECK_SOCKNUM();
 8001f3c:	79fb      	ldrb	r3, [r7, #7]
 8001f3e:	2b08      	cmp	r3, #8
 8001f40:	d902      	bls.n	8001f48 <recv+0x24>
 8001f42:	f04f 33ff 	mov.w	r3, #4294967295
 8001f46:	e0c6      	b.n	80020d6 <recv+0x1b2>
   CHECK_SOCKMODE(Sn_MR_TCP);
 8001f48:	79fb      	ldrb	r3, [r7, #7]
 8001f4a:	009b      	lsls	r3, r3, #2
 8001f4c:	3301      	adds	r3, #1
 8001f4e:	00db      	lsls	r3, r3, #3
 8001f50:	4618      	mov	r0, r3
 8001f52:	f000 fdc5 	bl	8002ae0 <WIZCHIP_READ>
 8001f56:	4603      	mov	r3, r0
 8001f58:	f003 030f 	and.w	r3, r3, #15
 8001f5c:	2b01      	cmp	r3, #1
 8001f5e:	d002      	beq.n	8001f66 <recv+0x42>
 8001f60:	f06f 0304 	mvn.w	r3, #4
 8001f64:	e0b7      	b.n	80020d6 <recv+0x1b2>
   CHECK_SOCKDATA();
 8001f66:	88bb      	ldrh	r3, [r7, #4]
 8001f68:	2b00      	cmp	r3, #0
 8001f6a:	d102      	bne.n	8001f72 <recv+0x4e>
 8001f6c:	f06f 030d 	mvn.w	r3, #13
 8001f70:	e0b1      	b.n	80020d6 <recv+0x1b2>
   
   recvsize = getSn_RxMAX(sn);
 8001f72:	79fb      	ldrb	r3, [r7, #7]
 8001f74:	009b      	lsls	r3, r3, #2
 8001f76:	3301      	adds	r3, #1
 8001f78:	00db      	lsls	r3, r3, #3
 8001f7a:	f503 53f0 	add.w	r3, r3, #7680	; 0x1e00
 8001f7e:	4618      	mov	r0, r3
 8001f80:	f000 fdae 	bl	8002ae0 <WIZCHIP_READ>
 8001f84:	4603      	mov	r3, r0
 8001f86:	b29b      	uxth	r3, r3
 8001f88:	029b      	lsls	r3, r3, #10
 8001f8a:	81bb      	strh	r3, [r7, #12]
   if(recvsize < len) len = recvsize;
 8001f8c:	89ba      	ldrh	r2, [r7, #12]
 8001f8e:	88bb      	ldrh	r3, [r7, #4]
 8001f90:	429a      	cmp	r2, r3
 8001f92:	d201      	bcs.n	8001f98 <recv+0x74>
 8001f94:	89bb      	ldrh	r3, [r7, #12]
 8001f96:	80bb      	strh	r3, [r7, #4]
   {
#endif
//
      while(1)
      {
         recvsize = getSn_RX_RSR(sn);
 8001f98:	79fb      	ldrb	r3, [r7, #7]
 8001f9a:	4618      	mov	r0, r3
 8001f9c:	f000 ff45 	bl	8002e2a <getSn_RX_RSR>
 8001fa0:	4603      	mov	r3, r0
 8001fa2:	81bb      	strh	r3, [r7, #12]
         tmp = getSn_SR(sn);
 8001fa4:	79fb      	ldrb	r3, [r7, #7]
 8001fa6:	009b      	lsls	r3, r3, #2
 8001fa8:	3301      	adds	r3, #1
 8001faa:	00db      	lsls	r3, r3, #3
 8001fac:	f503 7340 	add.w	r3, r3, #768	; 0x300
 8001fb0:	4618      	mov	r0, r3
 8001fb2:	f000 fd95 	bl	8002ae0 <WIZCHIP_READ>
 8001fb6:	4603      	mov	r3, r0
 8001fb8:	73fb      	strb	r3, [r7, #15]
         if (tmp != SOCK_ESTABLISHED)
 8001fba:	7bfb      	ldrb	r3, [r7, #15]
 8001fbc:	2b17      	cmp	r3, #23
 8001fbe:	d026      	beq.n	800200e <recv+0xea>
         {
            if(tmp == SOCK_CLOSE_WAIT)
 8001fc0:	7bfb      	ldrb	r3, [r7, #15]
 8001fc2:	2b1c      	cmp	r3, #28
 8001fc4:	d11c      	bne.n	8002000 <recv+0xdc>
            {
               if(recvsize != 0) break;
 8001fc6:	89bb      	ldrh	r3, [r7, #12]
 8001fc8:	2b00      	cmp	r3, #0
 8001fca:	d157      	bne.n	800207c <recv+0x158>
               else if(getSn_TX_FSR(sn) == getSn_TxMAX(sn))
 8001fcc:	79fb      	ldrb	r3, [r7, #7]
 8001fce:	4618      	mov	r0, r3
 8001fd0:	f000 fee0 	bl	8002d94 <getSn_TX_FSR>
 8001fd4:	4603      	mov	r3, r0
 8001fd6:	461c      	mov	r4, r3
 8001fd8:	79fb      	ldrb	r3, [r7, #7]
 8001fda:	009b      	lsls	r3, r3, #2
 8001fdc:	3301      	adds	r3, #1
 8001fde:	00db      	lsls	r3, r3, #3
 8001fe0:	f503 53f8 	add.w	r3, r3, #7936	; 0x1f00
 8001fe4:	4618      	mov	r0, r3
 8001fe6:	f000 fd7b 	bl	8002ae0 <WIZCHIP_READ>
 8001fea:	4603      	mov	r3, r0
 8001fec:	029b      	lsls	r3, r3, #10
 8001fee:	429c      	cmp	r4, r3
 8001ff0:	d10d      	bne.n	800200e <recv+0xea>
               {
                  close(sn);
 8001ff2:	79fb      	ldrb	r3, [r7, #7]
 8001ff4:	4618      	mov	r0, r3
 8001ff6:	f7ff fd51 	bl	8001a9c <close>
                  return SOCKERR_SOCKSTATUS;
 8001ffa:	f06f 0306 	mvn.w	r3, #6
 8001ffe:	e06a      	b.n	80020d6 <recv+0x1b2>
               }
            }
            else
            {
               close(sn);
 8002000:	79fb      	ldrb	r3, [r7, #7]
 8002002:	4618      	mov	r0, r3
 8002004:	f7ff fd4a 	bl	8001a9c <close>
               return SOCKERR_SOCKSTATUS;
 8002008:	f06f 0306 	mvn.w	r3, #6
 800200c:	e063      	b.n	80020d6 <recv+0x1b2>
            }
         }
        if((sock_io_mode & (1<<sn)) && (recvsize == 0)) return SOCK_BUSY;
 800200e:	4b34      	ldr	r3, [pc, #208]	; (80020e0 <recv+0x1bc>)
 8002010:	881b      	ldrh	r3, [r3, #0]
 8002012:	461a      	mov	r2, r3
 8002014:	79fb      	ldrb	r3, [r7, #7]
 8002016:	fa42 f303 	asr.w	r3, r2, r3
 800201a:	f003 0301 	and.w	r3, r3, #1
 800201e:	2b00      	cmp	r3, #0
 8002020:	d004      	beq.n	800202c <recv+0x108>
 8002022:	89bb      	ldrh	r3, [r7, #12]
 8002024:	2b00      	cmp	r3, #0
 8002026:	d101      	bne.n	800202c <recv+0x108>
 8002028:	2300      	movs	r3, #0
 800202a:	e054      	b.n	80020d6 <recv+0x1b2>
     	ctlwizchip(CW_GET_PHYLINK, (void*) &Physical_Connection); // gets physical status of the TCPIP
 800202c:	492d      	ldr	r1, [pc, #180]	; (80020e4 <recv+0x1c0>)
 800202e:	200f      	movs	r0, #15
 8002030:	f001 f89c 	bl	800316c <ctlwizchip>

     	if(Physical_Connection==PHY_LINK_OFF)
 8002034:	4b2b      	ldr	r3, [pc, #172]	; (80020e4 <recv+0x1c0>)
 8002036:	781b      	ldrb	r3, [r3, #0]
 8002038:	2b00      	cmp	r3, #0
 800203a:	d021      	beq.n	8002080 <recv+0x15c>
     	{
     		break;
     	}

         if(recvsize != 0) break;
 800203c:	89bb      	ldrh	r3, [r7, #12]
 800203e:	2b00      	cmp	r3, #0
 8002040:	d120      	bne.n	8002084 <recv+0x160>
         if(recvsize == 0) break;
 8002042:	89bb      	ldrh	r3, [r7, #12]
 8002044:	2b00      	cmp	r3, #0
 8002046:	d01f      	beq.n	8002088 <recv+0x164>

 		  uint8_t  server_Address[4] = {192,168,1,111};
 8002048:	4b27      	ldr	r3, [pc, #156]	; (80020e8 <recv+0x1c4>)
 800204a:	60bb      	str	r3, [r7, #8]
 		  Refresh_Watchdog();
 800204c:	f7fe fcda 	bl	8000a04 <Refresh_Watchdog>
 		  connect(0,server_Address,9099);
 8002050:	f107 0308 	add.w	r3, r7, #8
 8002054:	f242 328b 	movw	r2, #9099	; 0x238b
 8002058:	4619      	mov	r1, r3
 800205a:	2000      	movs	r0, #0
 800205c:	f7ff fd8c 	bl	8001b78 <connect>
 		  remote1 = getsockopt(0,SO_STATUS, &remotePort1);
 8002060:	4a22      	ldr	r2, [pc, #136]	; (80020ec <recv+0x1c8>)
 8002062:	210a      	movs	r1, #10
 8002064:	2000      	movs	r0, #0
 8002066:	f000 f845 	bl	80020f4 <getsockopt>
 800206a:	4603      	mov	r3, r0
 800206c:	b2da      	uxtb	r2, r3
 800206e:	4b20      	ldr	r3, [pc, #128]	; (80020f0 <recv+0x1cc>)
 8002070:	701a      	strb	r2, [r3, #0]
 		  if(remotePort1==28)
 8002072:	4b1e      	ldr	r3, [pc, #120]	; (80020ec <recv+0x1c8>)
 8002074:	781b      	ldrb	r3, [r3, #0]
 8002076:	2b1c      	cmp	r3, #28
 8002078:	d008      	beq.n	800208c <recv+0x168>
      {
 800207a:	e78d      	b.n	8001f98 <recv+0x74>
               if(recvsize != 0) break;
 800207c:	bf00      	nop
 800207e:	e006      	b.n	800208e <recv+0x16a>
     		break;
 8002080:	bf00      	nop
 8002082:	e004      	b.n	800208e <recv+0x16a>
         if(recvsize != 0) break;
 8002084:	bf00      	nop
 8002086:	e002      	b.n	800208e <recv+0x16a>
         if(recvsize == 0) break;
 8002088:	bf00      	nop
 800208a:	e000      	b.n	800208e <recv+0x16a>
 		  {
 			  break;
 800208c:	bf00      	nop
   }
   else sock_pack_info[sn] = PACK_COMPLETED;
   if(getSn_MR(sn) & Sn_MR_ALIGN) sock_remained_size[sn] = 0;
   //len = recvsize;
#else   
   if(recvsize < len) len = recvsize;   
 800208e:	89ba      	ldrh	r2, [r7, #12]
 8002090:	88bb      	ldrh	r3, [r7, #4]
 8002092:	429a      	cmp	r2, r3
 8002094:	d201      	bcs.n	800209a <recv+0x176>
 8002096:	89bb      	ldrh	r3, [r7, #12]
 8002098:	80bb      	strh	r3, [r7, #4]
   wiz_recv_data(sn, buf, len);
 800209a:	88ba      	ldrh	r2, [r7, #4]
 800209c:	79fb      	ldrb	r3, [r7, #7]
 800209e:	6839      	ldr	r1, [r7, #0]
 80020a0:	4618      	mov	r0, r3
 80020a2:	f000 ff69 	bl	8002f78 <wiz_recv_data>
   setSn_CR(sn,Sn_CR_RECV);    //Sn_CR_RECV - Update RX buffer pointer and receive data
 80020a6:	79fb      	ldrb	r3, [r7, #7]
 80020a8:	009b      	lsls	r3, r3, #2
 80020aa:	3301      	adds	r3, #1
 80020ac:	00db      	lsls	r3, r3, #3
 80020ae:	f503 7380 	add.w	r3, r3, #256	; 0x100
 80020b2:	2140      	movs	r1, #64	; 0x40
 80020b4:	4618      	mov	r0, r3
 80020b6:	f000 fd5f 	bl	8002b78 <WIZCHIP_WRITE>
   while(getSn_CR(sn));
 80020ba:	bf00      	nop
 80020bc:	79fb      	ldrb	r3, [r7, #7]
 80020be:	009b      	lsls	r3, r3, #2
 80020c0:	3301      	adds	r3, #1
 80020c2:	00db      	lsls	r3, r3, #3
 80020c4:	f503 7380 	add.w	r3, r3, #256	; 0x100
 80020c8:	4618      	mov	r0, r3
 80020ca:	f000 fd09 	bl	8002ae0 <WIZCHIP_READ>
 80020ce:	4603      	mov	r3, r0
 80020d0:	2b00      	cmp	r3, #0
 80020d2:	d1f3      	bne.n	80020bc <recv+0x198>
#endif
     
   //M20150409 : Explicit Type Casting
   //return len;
   return (int32_t)len;
 80020d4:	88bb      	ldrh	r3, [r7, #4]
}
 80020d6:	4618      	mov	r0, r3
 80020d8:	3714      	adds	r7, #20
 80020da:	46bd      	mov	sp, r7
 80020dc:	bd90      	pop	{r4, r7, pc}
 80020de:	bf00      	nop
 80020e0:	200024fc 	.word	0x200024fc
 80020e4:	20002510 	.word	0x20002510
 80020e8:	6f01a8c0 	.word	0x6f01a8c0
 80020ec:	20002512 	.word	0x20002512
 80020f0:	20002511 	.word	0x20002511

080020f4 <getsockopt>:
   }   
   return SOCK_OK;
}

int8_t  getsockopt(uint8_t sn, sockopt_type sotype, void* arg)
{
 80020f4:	b590      	push	{r4, r7, lr}
 80020f6:	b083      	sub	sp, #12
 80020f8:	af00      	add	r7, sp, #0
 80020fa:	4603      	mov	r3, r0
 80020fc:	603a      	str	r2, [r7, #0]
 80020fe:	71fb      	strb	r3, [r7, #7]
 8002100:	460b      	mov	r3, r1
 8002102:	71bb      	strb	r3, [r7, #6]
   CHECK_SOCKNUM();
 8002104:	79fb      	ldrb	r3, [r7, #7]
 8002106:	2b08      	cmp	r3, #8
 8002108:	d902      	bls.n	8002110 <getsockopt+0x1c>
 800210a:	f04f 33ff 	mov.w	r3, #4294967295
 800210e:	e101      	b.n	8002314 <getsockopt+0x220>
   switch(sotype)
 8002110:	79bb      	ldrb	r3, [r7, #6]
 8002112:	2b0c      	cmp	r3, #12
 8002114:	f200 80fa 	bhi.w	800230c <getsockopt+0x218>
 8002118:	a201      	add	r2, pc, #4	; (adr r2, 8002120 <getsockopt+0x2c>)
 800211a:	f852 f023 	ldr.w	pc, [r2, r3, lsl #2]
 800211e:	bf00      	nop
 8002120:	08002155 	.word	0x08002155
 8002124:	08002171 	.word	0x08002171
 8002128:	0800218d 	.word	0x0800218d
 800212c:	080021a9 	.word	0x080021a9
 8002130:	080021e3 	.word	0x080021e3
 8002134:	080021fb 	.word	0x080021fb
 8002138:	0800230d 	.word	0x0800230d
 800213c:	08002235 	.word	0x08002235
 8002140:	0800226f 	.word	0x0800226f
 8002144:	08002281 	.word	0x08002281
 8002148:	08002293 	.word	0x08002293
 800214c:	080022af 	.word	0x080022af
 8002150:	080022e7 	.word	0x080022e7
   {
      case SO_FLAG:
         *(uint8_t*)arg = getSn_MR(sn) & 0xF0;
 8002154:	79fb      	ldrb	r3, [r7, #7]
 8002156:	009b      	lsls	r3, r3, #2
 8002158:	3301      	adds	r3, #1
 800215a:	00db      	lsls	r3, r3, #3
 800215c:	4618      	mov	r0, r3
 800215e:	f000 fcbf 	bl	8002ae0 <WIZCHIP_READ>
 8002162:	4603      	mov	r3, r0
 8002164:	f023 030f 	bic.w	r3, r3, #15
 8002168:	b2da      	uxtb	r2, r3
 800216a:	683b      	ldr	r3, [r7, #0]
 800216c:	701a      	strb	r2, [r3, #0]
         break;
 800216e:	e0d0      	b.n	8002312 <getsockopt+0x21e>
      case SO_TTL:
         *(uint8_t*) arg = getSn_TTL(sn);
 8002170:	79fb      	ldrb	r3, [r7, #7]
 8002172:	009b      	lsls	r3, r3, #2
 8002174:	3301      	adds	r3, #1
 8002176:	00db      	lsls	r3, r3, #3
 8002178:	f503 53b0 	add.w	r3, r3, #5632	; 0x1600
 800217c:	4618      	mov	r0, r3
 800217e:	f000 fcaf 	bl	8002ae0 <WIZCHIP_READ>
 8002182:	4603      	mov	r3, r0
 8002184:	461a      	mov	r2, r3
 8002186:	683b      	ldr	r3, [r7, #0]
 8002188:	701a      	strb	r2, [r3, #0]
         break;
 800218a:	e0c2      	b.n	8002312 <getsockopt+0x21e>
      case SO_TOS:
         *(uint8_t*) arg = getSn_TOS(sn);
 800218c:	79fb      	ldrb	r3, [r7, #7]
 800218e:	009b      	lsls	r3, r3, #2
 8002190:	3301      	adds	r3, #1
 8002192:	00db      	lsls	r3, r3, #3
 8002194:	f503 53a8 	add.w	r3, r3, #5376	; 0x1500
 8002198:	4618      	mov	r0, r3
 800219a:	f000 fca1 	bl	8002ae0 <WIZCHIP_READ>
 800219e:	4603      	mov	r3, r0
 80021a0:	461a      	mov	r2, r3
 80021a2:	683b      	ldr	r3, [r7, #0]
 80021a4:	701a      	strb	r2, [r3, #0]
         break;
 80021a6:	e0b4      	b.n	8002312 <getsockopt+0x21e>
      case SO_MSS:   
         *(uint16_t*) arg = getSn_MSSR(sn);
 80021a8:	79fb      	ldrb	r3, [r7, #7]
 80021aa:	009b      	lsls	r3, r3, #2
 80021ac:	3301      	adds	r3, #1
 80021ae:	00db      	lsls	r3, r3, #3
 80021b0:	f503 5390 	add.w	r3, r3, #4608	; 0x1200
 80021b4:	4618      	mov	r0, r3
 80021b6:	f000 fc93 	bl	8002ae0 <WIZCHIP_READ>
 80021ba:	4603      	mov	r3, r0
 80021bc:	b29b      	uxth	r3, r3
 80021be:	021b      	lsls	r3, r3, #8
 80021c0:	b29c      	uxth	r4, r3
 80021c2:	79fb      	ldrb	r3, [r7, #7]
 80021c4:	009b      	lsls	r3, r3, #2
 80021c6:	3301      	adds	r3, #1
 80021c8:	00db      	lsls	r3, r3, #3
 80021ca:	f503 5398 	add.w	r3, r3, #4864	; 0x1300
 80021ce:	4618      	mov	r0, r3
 80021d0:	f000 fc86 	bl	8002ae0 <WIZCHIP_READ>
 80021d4:	4603      	mov	r3, r0
 80021d6:	b29b      	uxth	r3, r3
 80021d8:	4423      	add	r3, r4
 80021da:	b29a      	uxth	r2, r3
 80021dc:	683b      	ldr	r3, [r7, #0]
 80021de:	801a      	strh	r2, [r3, #0]
         break;
 80021e0:	e097      	b.n	8002312 <getsockopt+0x21e>
      case SO_DESTIP:
         getSn_DIPR(sn, (uint8_t*)arg);
 80021e2:	79fb      	ldrb	r3, [r7, #7]
 80021e4:	009b      	lsls	r3, r3, #2
 80021e6:	3301      	adds	r3, #1
 80021e8:	00db      	lsls	r3, r3, #3
 80021ea:	f503 6340 	add.w	r3, r3, #3072	; 0xc00
 80021ee:	2204      	movs	r2, #4
 80021f0:	6839      	ldr	r1, [r7, #0]
 80021f2:	4618      	mov	r0, r3
 80021f4:	f000 fd0e 	bl	8002c14 <WIZCHIP_READ_BUF>
         break;
 80021f8:	e08b      	b.n	8002312 <getsockopt+0x21e>
      case SO_DESTPORT:  
         *(uint16_t*) arg = getSn_DPORT(sn);
 80021fa:	79fb      	ldrb	r3, [r7, #7]
 80021fc:	009b      	lsls	r3, r3, #2
 80021fe:	3301      	adds	r3, #1
 8002200:	00db      	lsls	r3, r3, #3
 8002202:	f503 5380 	add.w	r3, r3, #4096	; 0x1000
 8002206:	4618      	mov	r0, r3
 8002208:	f000 fc6a 	bl	8002ae0 <WIZCHIP_READ>
 800220c:	4603      	mov	r3, r0
 800220e:	b29b      	uxth	r3, r3
 8002210:	021b      	lsls	r3, r3, #8
 8002212:	b29c      	uxth	r4, r3
 8002214:	79fb      	ldrb	r3, [r7, #7]
 8002216:	009b      	lsls	r3, r3, #2
 8002218:	3301      	adds	r3, #1
 800221a:	00db      	lsls	r3, r3, #3
 800221c:	f503 5388 	add.w	r3, r3, #4352	; 0x1100
 8002220:	4618      	mov	r0, r3
 8002222:	f000 fc5d 	bl	8002ae0 <WIZCHIP_READ>
 8002226:	4603      	mov	r3, r0
 8002228:	b29b      	uxth	r3, r3
 800222a:	4423      	add	r3, r4
 800222c:	b29a      	uxth	r2, r3
 800222e:	683b      	ldr	r3, [r7, #0]
 8002230:	801a      	strh	r2, [r3, #0]
         break;
 8002232:	e06e      	b.n	8002312 <getsockopt+0x21e>
   #if _WIZCHIP_ > 5200   
      case SO_KEEPALIVEAUTO:
         CHECK_SOCKMODE(Sn_MR_TCP);
 8002234:	79fb      	ldrb	r3, [r7, #7]
 8002236:	009b      	lsls	r3, r3, #2
 8002238:	3301      	adds	r3, #1
 800223a:	00db      	lsls	r3, r3, #3
 800223c:	4618      	mov	r0, r3
 800223e:	f000 fc4f 	bl	8002ae0 <WIZCHIP_READ>
 8002242:	4603      	mov	r3, r0
 8002244:	f003 030f 	and.w	r3, r3, #15
 8002248:	2b01      	cmp	r3, #1
 800224a:	d002      	beq.n	8002252 <getsockopt+0x15e>
 800224c:	f06f 0304 	mvn.w	r3, #4
 8002250:	e060      	b.n	8002314 <getsockopt+0x220>
         *(uint16_t*) arg = getSn_KPALVTR(sn);
 8002252:	79fb      	ldrb	r3, [r7, #7]
 8002254:	009b      	lsls	r3, r3, #2
 8002256:	3301      	adds	r3, #1
 8002258:	00db      	lsls	r3, r3, #3
 800225a:	f503 533c 	add.w	r3, r3, #12032	; 0x2f00
 800225e:	4618      	mov	r0, r3
 8002260:	f000 fc3e 	bl	8002ae0 <WIZCHIP_READ>
 8002264:	4603      	mov	r3, r0
 8002266:	b29a      	uxth	r2, r3
 8002268:	683b      	ldr	r3, [r7, #0]
 800226a:	801a      	strh	r2, [r3, #0]
         break;
 800226c:	e051      	b.n	8002312 <getsockopt+0x21e>
   #endif      
      case SO_SENDBUF:
         *(uint16_t*) arg = getSn_TX_FSR(sn);
 800226e:	79fb      	ldrb	r3, [r7, #7]
 8002270:	4618      	mov	r0, r3
 8002272:	f000 fd8f 	bl	8002d94 <getSn_TX_FSR>
 8002276:	4603      	mov	r3, r0
 8002278:	461a      	mov	r2, r3
 800227a:	683b      	ldr	r3, [r7, #0]
 800227c:	801a      	strh	r2, [r3, #0]
         break;
 800227e:	e048      	b.n	8002312 <getsockopt+0x21e>
      case SO_RECVBUF:
         *(uint16_t*) arg = getSn_RX_RSR(sn);
 8002280:	79fb      	ldrb	r3, [r7, #7]
 8002282:	4618      	mov	r0, r3
 8002284:	f000 fdd1 	bl	8002e2a <getSn_RX_RSR>
 8002288:	4603      	mov	r3, r0
 800228a:	461a      	mov	r2, r3
 800228c:	683b      	ldr	r3, [r7, #0]
 800228e:	801a      	strh	r2, [r3, #0]
         break;
 8002290:	e03f      	b.n	8002312 <getsockopt+0x21e>
      case SO_STATUS:
         *(uint8_t*) arg = getSn_SR(sn);
 8002292:	79fb      	ldrb	r3, [r7, #7]
 8002294:	009b      	lsls	r3, r3, #2
 8002296:	3301      	adds	r3, #1
 8002298:	00db      	lsls	r3, r3, #3
 800229a:	f503 7340 	add.w	r3, r3, #768	; 0x300
 800229e:	4618      	mov	r0, r3
 80022a0:	f000 fc1e 	bl	8002ae0 <WIZCHIP_READ>
 80022a4:	4603      	mov	r3, r0
 80022a6:	461a      	mov	r2, r3
 80022a8:	683b      	ldr	r3, [r7, #0]
 80022aa:	701a      	strb	r2, [r3, #0]
         break;
 80022ac:	e031      	b.n	8002312 <getsockopt+0x21e>
      case SO_REMAINSIZE:
         if(getSn_MR(sn) & Sn_MR_TCP)
 80022ae:	79fb      	ldrb	r3, [r7, #7]
 80022b0:	009b      	lsls	r3, r3, #2
 80022b2:	3301      	adds	r3, #1
 80022b4:	00db      	lsls	r3, r3, #3
 80022b6:	4618      	mov	r0, r3
 80022b8:	f000 fc12 	bl	8002ae0 <WIZCHIP_READ>
 80022bc:	4603      	mov	r3, r0
 80022be:	f003 0301 	and.w	r3, r3, #1
 80022c2:	2b00      	cmp	r3, #0
 80022c4:	d008      	beq.n	80022d8 <getsockopt+0x1e4>
            *(uint16_t*)arg = getSn_RX_RSR(sn);
 80022c6:	79fb      	ldrb	r3, [r7, #7]
 80022c8:	4618      	mov	r0, r3
 80022ca:	f000 fdae 	bl	8002e2a <getSn_RX_RSR>
 80022ce:	4603      	mov	r3, r0
 80022d0:	461a      	mov	r2, r3
 80022d2:	683b      	ldr	r3, [r7, #0]
 80022d4:	801a      	strh	r2, [r3, #0]
         else
            *(uint16_t*)arg = sock_remained_size[sn];
         break;
 80022d6:	e01c      	b.n	8002312 <getsockopt+0x21e>
            *(uint16_t*)arg = sock_remained_size[sn];
 80022d8:	79fb      	ldrb	r3, [r7, #7]
 80022da:	4a10      	ldr	r2, [pc, #64]	; (800231c <getsockopt+0x228>)
 80022dc:	f832 2013 	ldrh.w	r2, [r2, r3, lsl #1]
 80022e0:	683b      	ldr	r3, [r7, #0]
 80022e2:	801a      	strh	r2, [r3, #0]
         break;
 80022e4:	e015      	b.n	8002312 <getsockopt+0x21e>
      case SO_PACKINFO:
         //CHECK_SOCKMODE(Sn_MR_TCP);
#if _WIZCHIP_ != 5300
         if((getSn_MR(sn) == Sn_MR_TCP))
 80022e6:	79fb      	ldrb	r3, [r7, #7]
 80022e8:	009b      	lsls	r3, r3, #2
 80022ea:	3301      	adds	r3, #1
 80022ec:	00db      	lsls	r3, r3, #3
 80022ee:	4618      	mov	r0, r3
 80022f0:	f000 fbf6 	bl	8002ae0 <WIZCHIP_READ>
 80022f4:	4603      	mov	r3, r0
 80022f6:	2b01      	cmp	r3, #1
 80022f8:	d102      	bne.n	8002300 <getsockopt+0x20c>
             return SOCKERR_SOCKMODE;
 80022fa:	f06f 0304 	mvn.w	r3, #4
 80022fe:	e009      	b.n	8002314 <getsockopt+0x220>
#endif
         *(uint8_t*)arg = sock_pack_info[sn];
 8002300:	79fb      	ldrb	r3, [r7, #7]
 8002302:	4a07      	ldr	r2, [pc, #28]	; (8002320 <getsockopt+0x22c>)
 8002304:	5cd2      	ldrb	r2, [r2, r3]
 8002306:	683b      	ldr	r3, [r7, #0]
 8002308:	701a      	strb	r2, [r3, #0]
         break;
 800230a:	e002      	b.n	8002312 <getsockopt+0x21e>
      default:
         return SOCKERR_SOCKOPT;
 800230c:	f06f 0301 	mvn.w	r3, #1
 8002310:	e000      	b.n	8002314 <getsockopt+0x220>
   }
   return SOCK_OK;
 8002312:	2301      	movs	r3, #1
}
 8002314:	4618      	mov	r0, r3
 8002316:	370c      	adds	r7, #12
 8002318:	46bd      	mov	sp, r7
 800231a:	bd90      	pop	{r4, r7, pc}
 800231c:	20002500 	.word	0x20002500
 8002320:	20002514 	.word	0x20002514

08002324 <Get_state>:


struct StatesStruct test_states={Initilisation_State, NULL_State}; // current state defined as initilisation state, next state defined as NULL state

myStates Get_state()
{
 8002324:	b480      	push	{r7}
 8002326:	af00      	add	r7, sp, #0
	return	 test_states.Current_State;
 8002328:	4b03      	ldr	r3, [pc, #12]	; (8002338 <Get_state+0x14>)
 800232a:	781b      	ldrb	r3, [r3, #0]
}
 800232c:	4618      	mov	r0, r3
 800232e:	46bd      	mov	sp, r7
 8002330:	f85d 7b04 	ldr.w	r7, [sp], #4
 8002334:	4770      	bx	lr
 8002336:	bf00      	nop
 8002338:	20001008 	.word	0x20001008

0800233c <Set_state>:

void Set_state(myStates N_S)
{
 800233c:	b480      	push	{r7}
 800233e:	b083      	sub	sp, #12
 8002340:	af00      	add	r7, sp, #0
 8002342:	4603      	mov	r3, r0
 8002344:	71fb      	strb	r3, [r7, #7]
test_states.Current_State = N_S;
 8002346:	4a04      	ldr	r2, [pc, #16]	; (8002358 <Set_state+0x1c>)
 8002348:	79fb      	ldrb	r3, [r7, #7]
 800234a:	7013      	strb	r3, [r2, #0]
}
 800234c:	bf00      	nop
 800234e:	370c      	adds	r7, #12
 8002350:	46bd      	mov	sp, r7
 8002352:	f85d 7b04 	ldr.w	r7, [sp], #4
 8002356:	4770      	bx	lr
 8002358:	20001008 	.word	0x20001008

0800235c <Initilisation_State_Handler>:
 800235c:	b580      	push	{r7, lr}
 800235e:	af00      	add	r7, sp, #0
 8002360:	2001      	movs	r0, #1
 8002362:	f7ff ffeb 	bl	800233c <Set_state>
 8002366:	f7fe fb77 	bl	8000a58 <Reset_event>
 800236a:	f7fe fabf 	bl	80008ec <Init_Ethernet>
 800236e:	490f      	ldr	r1, [pc, #60]	; (80023ac <Initilisation_State_Handler+0x50>)
 8002370:	200f      	movs	r0, #15
 8002372:	f000 fefb 	bl	800316c <ctlwizchip>
 8002376:	4b0d      	ldr	r3, [pc, #52]	; (80023ac <Initilisation_State_Handler+0x50>)
 8002378:	781b      	ldrb	r3, [r3, #0]
 800237a:	2b00      	cmp	r3, #0
 800237c:	d103      	bne.n	8002386 <Initilisation_State_Handler+0x2a>
 800237e:	2001      	movs	r0, #1
 8002380:	f7ff ffdc 	bl	800233c <Set_state>
 8002384:	e00f      	b.n	80023a6 <Initilisation_State_Handler+0x4a>
 8002386:	4b09      	ldr	r3, [pc, #36]	; (80023ac <Initilisation_State_Handler+0x50>)
 8002388:	781b      	ldrb	r3, [r3, #0]
 800238a:	2b01      	cmp	r3, #1
 800238c:	d10b      	bne.n	80023a6 <Initilisation_State_Handler+0x4a>
 800238e:	f7fe fb39 	bl	8000a04 <Refresh_Watchdog>
 8002392:	f7fe fb07 	bl	80009a4 <Ethernet_Connect>
 8002396:	2209      	movs	r2, #9
 8002398:	4905      	ldr	r1, [pc, #20]	; (80023b0 <Initilisation_State_Handler+0x54>)
 800239a:	2000      	movs	r0, #0
 800239c:	f7ff fcc8 	bl	8001d30 <send>
 80023a0:	2001      	movs	r0, #1
 80023a2:	f7fe fb49 	bl	8000a38 <Set_event>
 80023a6:	bf00      	nop
 80023a8:	bd80      	pop	{r7, pc}
 80023aa:	bf00      	nop
 80023ac:	20001a45 	.word	0x20001a45
 80023b0:	08008464 	.word	0x08008464

080023b4 <Reset_State_Handler>:
 80023b4:	b580      	push	{r7, lr}
 80023b6:	af00      	add	r7, sp, #0
 80023b8:	2002      	movs	r0, #2
 80023ba:	f7ff ffbf 	bl	800233c <Set_state>
 80023be:	f7fe fb4b 	bl	8000a58 <Reset_event>
 80023c2:	2304      	movs	r3, #4
 80023c4:	22c8      	movs	r2, #200	; 0xc8
 80023c6:	4938      	ldr	r1, [pc, #224]	; (80024a8 <Reset_State_Handler+0xf4>)
 80023c8:	4838      	ldr	r0, [pc, #224]	; (80024ac <Reset_State_Handler+0xf8>)
 80023ca:	f7ff f970 	bl	80016ae <RingInit>
 80023ce:	2304      	movs	r3, #4
 80023d0:	22c8      	movs	r2, #200	; 0xc8
 80023d2:	4937      	ldr	r1, [pc, #220]	; (80024b0 <Reset_State_Handler+0xfc>)
 80023d4:	4837      	ldr	r0, [pc, #220]	; (80024b4 <Reset_State_Handler+0x100>)
 80023d6:	f7ff f96a 	bl	80016ae <RingInit>
 80023da:	2304      	movs	r3, #4
 80023dc:	22c8      	movs	r2, #200	; 0xc8
 80023de:	4936      	ldr	r1, [pc, #216]	; (80024b8 <Reset_State_Handler+0x104>)
 80023e0:	4836      	ldr	r0, [pc, #216]	; (80024bc <Reset_State_Handler+0x108>)
 80023e2:	f7ff f964 	bl	80016ae <RingInit>
 80023e6:	4b36      	ldr	r3, [pc, #216]	; (80024c0 <Reset_State_Handler+0x10c>)
 80023e8:	2200      	movs	r2, #0
 80023ea:	601a      	str	r2, [r3, #0]
 80023ec:	4b35      	ldr	r3, [pc, #212]	; (80024c4 <Reset_State_Handler+0x110>)
 80023ee:	2200      	movs	r2, #0
 80023f0:	601a      	str	r2, [r3, #0]
 80023f2:	4b35      	ldr	r3, [pc, #212]	; (80024c8 <Reset_State_Handler+0x114>)
 80023f4:	2200      	movs	r2, #0
 80023f6:	601a      	str	r2, [r3, #0]
 80023f8:	f7fe fb5e 	bl	8000ab8 <Timer2_Stop>
 80023fc:	f7fe fbaa 	bl	8000b54 <Timer6_Stop>
 8002400:	f7fe fb64 	bl	8000acc <Timer2_DeInitilized>
 8002404:	f7fe fb7a 	bl	8000afc <Timer2_Initilized>
 8002408:	4b30      	ldr	r3, [pc, #192]	; (80024cc <Reset_State_Handler+0x118>)
 800240a:	2200      	movs	r2, #0
 800240c:	801a      	strh	r2, [r3, #0]
 800240e:	4b30      	ldr	r3, [pc, #192]	; (80024d0 <Reset_State_Handler+0x11c>)
 8002410:	2200      	movs	r2, #0
 8002412:	801a      	strh	r2, [r3, #0]
 8002414:	4b2f      	ldr	r3, [pc, #188]	; (80024d4 <Reset_State_Handler+0x120>)
 8002416:	2200      	movs	r2, #0
 8002418:	801a      	strh	r2, [r3, #0]
 800241a:	f44f 6200 	mov.w	r2, #2048	; 0x800
 800241e:	2100      	movs	r1, #0
 8002420:	482d      	ldr	r0, [pc, #180]	; (80024d8 <Reset_State_Handler+0x124>)
 8002422:	f005 fe67 	bl	80080f4 <memset>
 8002426:	4b2d      	ldr	r3, [pc, #180]	; (80024dc <Reset_State_Handler+0x128>)
 8002428:	781b      	ldrb	r3, [r3, #0]
 800242a:	2b00      	cmp	r3, #0
 800242c:	d103      	bne.n	8002436 <Reset_State_Handler+0x82>
 800242e:	2001      	movs	r0, #1
 8002430:	f7ff ff84 	bl	800233c <Set_state>
 8002434:	e032      	b.n	800249c <Reset_State_Handler+0xe8>
 8002436:	4b29      	ldr	r3, [pc, #164]	; (80024dc <Reset_State_Handler+0x128>)
 8002438:	781b      	ldrb	r3, [r3, #0]
 800243a:	2b01      	cmp	r3, #1
 800243c:	d12e      	bne.n	800249c <Reset_State_Handler+0xe8>
 800243e:	f44f 6200 	mov.w	r2, #2048	; 0x800
 8002442:	2100      	movs	r1, #0
 8002444:	4824      	ldr	r0, [pc, #144]	; (80024d8 <Reset_State_Handler+0x124>)
 8002446:	f005 fe55 	bl	80080f4 <memset>
 800244a:	e01c      	b.n	8002486 <Reset_State_Handler+0xd2>
 800244c:	f44f 6200 	mov.w	r2, #2048	; 0x800
 8002450:	2100      	movs	r1, #0
 8002452:	4821      	ldr	r0, [pc, #132]	; (80024d8 <Reset_State_Handler+0x124>)
 8002454:	f005 fe4e 	bl	80080f4 <memset>
 8002458:	f44f 6200 	mov.w	r2, #2048	; 0x800
 800245c:	491e      	ldr	r1, [pc, #120]	; (80024d8 <Reset_State_Handler+0x124>)
 800245e:	2000      	movs	r0, #0
 8002460:	f7ff fd60 	bl	8001f24 <recv>
 8002464:	4603      	mov	r3, r0
 8002466:	461a      	mov	r2, r3
 8002468:	4b1d      	ldr	r3, [pc, #116]	; (80024e0 <Reset_State_Handler+0x12c>)
 800246a:	601a      	str	r2, [r3, #0]
 800246c:	491b      	ldr	r1, [pc, #108]	; (80024dc <Reset_State_Handler+0x128>)
 800246e:	200f      	movs	r0, #15
 8002470:	f000 fe7c 	bl	800316c <ctlwizchip>
 8002474:	4b1a      	ldr	r3, [pc, #104]	; (80024e0 <Reset_State_Handler+0x12c>)
 8002476:	681b      	ldr	r3, [r3, #0]
 8002478:	f113 0f07 	cmn.w	r3, #7
 800247c:	d00b      	beq.n	8002496 <Reset_State_Handler+0xe2>
 800247e:	4b17      	ldr	r3, [pc, #92]	; (80024dc <Reset_State_Handler+0x128>)
 8002480:	781b      	ldrb	r3, [r3, #0]
 8002482:	2b00      	cmp	r3, #0
 8002484:	d009      	beq.n	800249a <Reset_State_Handler+0xe6>
 8002486:	4917      	ldr	r1, [pc, #92]	; (80024e4 <Reset_State_Handler+0x130>)
 8002488:	4813      	ldr	r0, [pc, #76]	; (80024d8 <Reset_State_Handler+0x124>)
 800248a:	f7fd fe9d 	bl	80001c8 <strcmp>
 800248e:	4603      	mov	r3, r0
 8002490:	2b00      	cmp	r3, #0
 8002492:	d1db      	bne.n	800244c <Reset_State_Handler+0x98>
 8002494:	e002      	b.n	800249c <Reset_State_Handler+0xe8>
 8002496:	bf00      	nop
 8002498:	e000      	b.n	800249c <Reset_State_Handler+0xe8>
 800249a:	bf00      	nop
 800249c:	2002      	movs	r0, #2
 800249e:	f7fe facb 	bl	8000a38 <Set_event>
 80024a2:	bf00      	nop
 80024a4:	bd80      	pop	{r7, pc}
 80024a6:	bf00      	nop
 80024a8:	2000251c 	.word	0x2000251c
 80024ac:	20002e7c 	.word	0x20002e7c
 80024b0:	20002b5c 	.word	0x20002b5c
 80024b4:	20002ebc 	.word	0x20002ebc
 80024b8:	2000283c 	.word	0x2000283c
 80024bc:	20002e9c 	.word	0x20002e9c
 80024c0:	200018c4 	.word	0x200018c4
 80024c4:	200018cc 	.word	0x200018cc
 80024c8:	200018c8 	.word	0x200018c8
 80024cc:	200018e0 	.word	0x200018e0
 80024d0:	200018dc 	.word	0x200018dc
 80024d4:	200018de 	.word	0x200018de
 80024d8:	20002edc 	.word	0x20002edc
 80024dc:	20001a45 	.word	0x20001a45
 80024e0:	20001cf4 	.word	0x20001cf4
 80024e4:	2000100c 	.word	0x2000100c

080024e8 <Idle_State_Handler>:
 80024e8:	b580      	push	{r7, lr}
 80024ea:	af00      	add	r7, sp, #0
 80024ec:	2003      	movs	r0, #3
 80024ee:	f7ff ff25 	bl	800233c <Set_state>
 80024f2:	f7fe fab1 	bl	8000a58 <Reset_event>
 80024f6:	bf00      	nop
 80024f8:	bd80      	pop	{r7, pc}
	...

080024fc <WRSide_Train_Presence_State_Handler>:
 80024fc:	b580      	push	{r7, lr}
 80024fe:	af00      	add	r7, sp, #0
 8002500:	4b04      	ldr	r3, [pc, #16]	; (8002514 <WRSide_Train_Presence_State_Handler+0x18>)
 8002502:	2b04      	cmp	r3, #4
 8002504:	d004      	beq.n	8002510 <WRSide_Train_Presence_State_Handler+0x14>
 8002506:	2004      	movs	r0, #4
 8002508:	f7ff ff18 	bl	800233c <Set_state>
 800250c:	f7fe faa4 	bl	8000a58 <Reset_event>
 8002510:	bf00      	nop
 8002512:	bd80      	pop	{r7, pc}
 8002514:	08002325 	.word	0x08002325

08002518 <WLSide_Train_Presence_State_Handler>:
 8002518:	b580      	push	{r7, lr}
 800251a:	af00      	add	r7, sp, #0
 800251c:	4b04      	ldr	r3, [pc, #16]	; (8002530 <WLSide_Train_Presence_State_Handler+0x18>)
 800251e:	2b05      	cmp	r3, #5
 8002520:	d004      	beq.n	800252c <WLSide_Train_Presence_State_Handler+0x14>
 8002522:	2005      	movs	r0, #5
 8002524:	f7ff ff0a 	bl	800233c <Set_state>
 8002528:	f7fe fa96 	bl	8000a58 <Reset_event>
 800252c:	bf00      	nop
 800252e:	bd80      	pop	{r7, pc}
 8002530:	08002325 	.word	0x08002325

08002534 <Train_Exit_State_Handler>:
 8002534:	b580      	push	{r7, lr}
 8002536:	af00      	add	r7, sp, #0
 8002538:	2006      	movs	r0, #6
 800253a:	f7ff feff 	bl	800233c <Set_state>
 800253e:	f7fe fa8b 	bl	8000a58 <Reset_event>
 8002542:	2006      	movs	r0, #6
 8002544:	f7fe fa78 	bl	8000a38 <Set_event>
 8002548:	bf00      	nop
 800254a:	bd80      	pop	{r7, pc}

0800254c <Log_Data_State_Handler>:
 800254c:	b580      	push	{r7, lr}
 800254e:	af00      	add	r7, sp, #0
 8002550:	2007      	movs	r0, #7
 8002552:	f7ff fef3 	bl	800233c <Set_state>
 8002556:	f7fe fa7f 	bl	8000a58 <Reset_event>
 800255a:	f7fe f8d9 	bl	8000710 <Send_Data>
 800255e:	2001      	movs	r0, #1
 8002560:	f7fe fa6a 	bl	8000a38 <Set_event>
 8002564:	bf00      	nop
 8002566:	bd80      	pop	{r7, pc}

08002568 <HAL_MspInit>:
/* USER CODE END 0 */
/**
  * Initializes the Global MSP.
  */
void HAL_MspInit(void)
{
 8002568:	b480      	push	{r7}
 800256a:	b083      	sub	sp, #12
 800256c:	af00      	add	r7, sp, #0
  /* USER CODE BEGIN MspInit 0 */

  /* USER CODE END MspInit 0 */

  __HAL_RCC_SYSCFG_CLK_ENABLE();
 800256e:	4b0f      	ldr	r3, [pc, #60]	; (80025ac <HAL_MspInit+0x44>)
 8002570:	699b      	ldr	r3, [r3, #24]
 8002572:	4a0e      	ldr	r2, [pc, #56]	; (80025ac <HAL_MspInit+0x44>)
 8002574:	f043 0301 	orr.w	r3, r3, #1
 8002578:	6193      	str	r3, [r2, #24]
 800257a:	4b0c      	ldr	r3, [pc, #48]	; (80025ac <HAL_MspInit+0x44>)
 800257c:	699b      	ldr	r3, [r3, #24]
 800257e:	f003 0301 	and.w	r3, r3, #1
 8002582:	607b      	str	r3, [r7, #4]
 8002584:	687b      	ldr	r3, [r7, #4]
  __HAL_RCC_PWR_CLK_ENABLE();
 8002586:	4b09      	ldr	r3, [pc, #36]	; (80025ac <HAL_MspInit+0x44>)
 8002588:	69db      	ldr	r3, [r3, #28]
 800258a:	4a08      	ldr	r2, [pc, #32]	; (80025ac <HAL_MspInit+0x44>)
 800258c:	f043 5380 	orr.w	r3, r3, #268435456	; 0x10000000
 8002590:	61d3      	str	r3, [r2, #28]
 8002592:	4b06      	ldr	r3, [pc, #24]	; (80025ac <HAL_MspInit+0x44>)
 8002594:	69db      	ldr	r3, [r3, #28]
 8002596:	f003 5380 	and.w	r3, r3, #268435456	; 0x10000000
 800259a:	603b      	str	r3, [r7, #0]
 800259c:	683b      	ldr	r3, [r7, #0]
  /* System interrupt init*/

  /* USER CODE BEGIN MspInit 1 */

  /* USER CODE END MspInit 1 */
}
 800259e:	bf00      	nop
 80025a0:	370c      	adds	r7, #12
 80025a2:	46bd      	mov	sp, r7
 80025a4:	f85d 7b04 	ldr.w	r7, [sp], #4
 80025a8:	4770      	bx	lr
 80025aa:	bf00      	nop
 80025ac:	40021000 	.word	0x40021000

080025b0 <HAL_RTC_MspInit>:
* This function configures the hardware resources used in this example
* @param hrtc: RTC handle pointer
* @retval None
*/
void HAL_RTC_MspInit(RTC_HandleTypeDef* hrtc)
{
 80025b0:	b480      	push	{r7}
 80025b2:	b085      	sub	sp, #20
 80025b4:	af00      	add	r7, sp, #0
 80025b6:	6078      	str	r0, [r7, #4]
  if(hrtc->Instance==RTC)
 80025b8:	687b      	ldr	r3, [r7, #4]
 80025ba:	681b      	ldr	r3, [r3, #0]
 80025bc:	4a0d      	ldr	r2, [pc, #52]	; (80025f4 <HAL_RTC_MspInit+0x44>)
 80025be:	4293      	cmp	r3, r2
 80025c0:	d111      	bne.n	80025e6 <HAL_RTC_MspInit+0x36>
 80025c2:	f44f 4300 	mov.w	r3, #32768	; 0x8000
 80025c6:	60fb      	str	r3, [r7, #12]
  uint32_t result;

#if ((defined (__ARM_ARCH_7M__      ) && (__ARM_ARCH_7M__      == 1)) || \
     (defined (__ARM_ARCH_7EM__     ) && (__ARM_ARCH_7EM__     == 1)) || \
     (defined (__ARM_ARCH_8M_MAIN__ ) && (__ARM_ARCH_8M_MAIN__ == 1))    )
   __ASM volatile ("rbit %0, %1" : "=r" (result) : "r" (value) );
 80025c8:	68fb      	ldr	r3, [r7, #12]
 80025ca:	fa93 f3a3 	rbit	r3, r3
 80025ce:	60bb      	str	r3, [r7, #8]
    result |= value & 1U;
    s--;
  }
  result <<= s;                        /* shift when v's highest bits are zero */
#endif
  return result;
 80025d0:	68bb      	ldr	r3, [r7, #8]
  {
  /* USER CODE BEGIN RTC_MspInit 0 */

  /* USER CODE END RTC_MspInit 0 */
    /* Peripheral clock enable */
    __HAL_RCC_RTC_ENABLE();
 80025d2:	fab3 f383 	clz	r3, r3
 80025d6:	b2db      	uxtb	r3, r3
 80025d8:	461a      	mov	r2, r3
 80025da:	4b07      	ldr	r3, [pc, #28]	; (80025f8 <HAL_RTC_MspInit+0x48>)
 80025dc:	4413      	add	r3, r2
 80025de:	009b      	lsls	r3, r3, #2
 80025e0:	461a      	mov	r2, r3
 80025e2:	2301      	movs	r3, #1
 80025e4:	6013      	str	r3, [r2, #0]
  /* USER CODE BEGIN RTC_MspInit 1 */

  /* USER CODE END RTC_MspInit 1 */
  }

}
 80025e6:	bf00      	nop
 80025e8:	3714      	adds	r7, #20
 80025ea:	46bd      	mov	sp, r7
 80025ec:	f85d 7b04 	ldr.w	r7, [sp], #4
 80025f0:	4770      	bx	lr
 80025f2:	bf00      	nop
 80025f4:	40002800 	.word	0x40002800
 80025f8:	10908100 	.word	0x10908100

080025fc <HAL_SPI_MspInit>:
* This function configures the hardware resources used in this example
* @param hspi: SPI handle pointer
* @retval None
*/
void HAL_SPI_MspInit(SPI_HandleTypeDef* hspi)
{
 80025fc:	b580      	push	{r7, lr}
 80025fe:	b08c      	sub	sp, #48	; 0x30
 8002600:	af00      	add	r7, sp, #0
 8002602:	6078      	str	r0, [r7, #4]
  GPIO_InitTypeDef GPIO_InitStruct = {0};
 8002604:	f107 031c 	add.w	r3, r7, #28
 8002608:	2200      	movs	r2, #0
 800260a:	601a      	str	r2, [r3, #0]
 800260c:	605a      	str	r2, [r3, #4]
 800260e:	609a      	str	r2, [r3, #8]
 8002610:	60da      	str	r2, [r3, #12]
 8002612:	611a      	str	r2, [r3, #16]
  if(hspi->Instance==SPI2)
 8002614:	687b      	ldr	r3, [r7, #4]
 8002616:	681b      	ldr	r3, [r3, #0]
 8002618:	4a3d      	ldr	r2, [pc, #244]	; (8002710 <HAL_SPI_MspInit+0x114>)
 800261a:	4293      	cmp	r3, r2
 800261c:	d147      	bne.n	80026ae <HAL_SPI_MspInit+0xb2>
  {
  /* USER CODE BEGIN SPI2_MspInit 0 */

  /* USER CODE END SPI2_MspInit 0 */
    /* Peripheral clock enable */
    __HAL_RCC_SPI2_CLK_ENABLE();
 800261e:	4b3d      	ldr	r3, [pc, #244]	; (8002714 <HAL_SPI_MspInit+0x118>)
 8002620:	69db      	ldr	r3, [r3, #28]
 8002622:	4a3c      	ldr	r2, [pc, #240]	; (8002714 <HAL_SPI_MspInit+0x118>)
 8002624:	f443 4380 	orr.w	r3, r3, #16384	; 0x4000
 8002628:	61d3      	str	r3, [r2, #28]
 800262a:	4b3a      	ldr	r3, [pc, #232]	; (8002714 <HAL_SPI_MspInit+0x118>)
 800262c:	69db      	ldr	r3, [r3, #28]
 800262e:	f403 4380 	and.w	r3, r3, #16384	; 0x4000
 8002632:	61bb      	str	r3, [r7, #24]
 8002634:	69bb      	ldr	r3, [r7, #24]

    __HAL_RCC_GPIOB_CLK_ENABLE();
 8002636:	4b37      	ldr	r3, [pc, #220]	; (8002714 <HAL_SPI_MspInit+0x118>)
 8002638:	695b      	ldr	r3, [r3, #20]
 800263a:	4a36      	ldr	r2, [pc, #216]	; (8002714 <HAL_SPI_MspInit+0x118>)
 800263c:	f443 2380 	orr.w	r3, r3, #262144	; 0x40000
 8002640:	6153      	str	r3, [r2, #20]
 8002642:	4b34      	ldr	r3, [pc, #208]	; (8002714 <HAL_SPI_MspInit+0x118>)
 8002644:	695b      	ldr	r3, [r3, #20]
 8002646:	f403 2380 	and.w	r3, r3, #262144	; 0x40000
 800264a:	617b      	str	r3, [r7, #20]
 800264c:	697b      	ldr	r3, [r7, #20]
    __HAL_RCC_GPIOA_CLK_ENABLE();
 800264e:	4b31      	ldr	r3, [pc, #196]	; (8002714 <HAL_SPI_MspInit+0x118>)
 8002650:	695b      	ldr	r3, [r3, #20]
 8002652:	4a30      	ldr	r2, [pc, #192]	; (8002714 <HAL_SPI_MspInit+0x118>)
 8002654:	f443 3300 	orr.w	r3, r3, #131072	; 0x20000
 8002658:	6153      	str	r3, [r2, #20]
 800265a:	4b2e      	ldr	r3, [pc, #184]	; (8002714 <HAL_SPI_MspInit+0x118>)
 800265c:	695b      	ldr	r3, [r3, #20]
 800265e:	f403 3300 	and.w	r3, r3, #131072	; 0x20000
 8002662:	613b      	str	r3, [r7, #16]
 8002664:	693b      	ldr	r3, [r7, #16]
    /**SPI2 GPIO Configuration
    PB13     ------> SPI2_SCK
    PA10     ------> SPI2_MISO
    PA11     ------> SPI2_MOSI
    */
    GPIO_InitStruct.Pin = GPIO_PIN_13;
 8002666:	f44f 5300 	mov.w	r3, #8192	; 0x2000
 800266a:	61fb      	str	r3, [r7, #28]
    GPIO_InitStruct.Mode = GPIO_MODE_AF_PP;
 800266c:	2302      	movs	r3, #2
 800266e:	623b      	str	r3, [r7, #32]
    GPIO_InitStruct.Pull = GPIO_NOPULL;
 8002670:	2300      	movs	r3, #0
 8002672:	627b      	str	r3, [r7, #36]	; 0x24
    GPIO_InitStruct.Speed = GPIO_SPEED_FREQ_HIGH;
 8002674:	2303      	movs	r3, #3
 8002676:	62bb      	str	r3, [r7, #40]	; 0x28
    GPIO_InitStruct.Alternate = GPIO_AF5_SPI2;
 8002678:	2305      	movs	r3, #5
 800267a:	62fb      	str	r3, [r7, #44]	; 0x2c
    HAL_GPIO_Init(GPIOB, &GPIO_InitStruct);
 800267c:	f107 031c 	add.w	r3, r7, #28
 8002680:	4619      	mov	r1, r3
 8002682:	4825      	ldr	r0, [pc, #148]	; (8002718 <HAL_SPI_MspInit+0x11c>)
 8002684:	f001 fb82 	bl	8003d8c <HAL_GPIO_Init>

    GPIO_InitStruct.Pin = GPIO_PIN_10|GPIO_PIN_11;
 8002688:	f44f 6340 	mov.w	r3, #3072	; 0xc00
 800268c:	61fb      	str	r3, [r7, #28]
    GPIO_InitStruct.Mode = GPIO_MODE_AF_PP;
 800268e:	2302      	movs	r3, #2
 8002690:	623b      	str	r3, [r7, #32]
    GPIO_InitStruct.Pull = GPIO_NOPULL;
 8002692:	2300      	movs	r3, #0
 8002694:	627b      	str	r3, [r7, #36]	; 0x24
    GPIO_InitStruct.Speed = GPIO_SPEED_FREQ_HIGH;
 8002696:	2303      	movs	r3, #3
 8002698:	62bb      	str	r3, [r7, #40]	; 0x28
    GPIO_InitStruct.Alternate = GPIO_AF5_SPI2;
 800269a:	2305      	movs	r3, #5
 800269c:	62fb      	str	r3, [r7, #44]	; 0x2c
    HAL_GPIO_Init(GPIOA, &GPIO_InitStruct);
 800269e:	f107 031c 	add.w	r3, r7, #28
 80026a2:	4619      	mov	r1, r3
 80026a4:	f04f 4090 	mov.w	r0, #1207959552	; 0x48000000
 80026a8:	f001 fb70 	bl	8003d8c <HAL_GPIO_Init>
  /* USER CODE BEGIN SPI3_MspInit 1 */

  /* USER CODE END SPI3_MspInit 1 */
  }

}
 80026ac:	e02c      	b.n	8002708 <HAL_SPI_MspInit+0x10c>
  else if(hspi->Instance==SPI3)
 80026ae:	687b      	ldr	r3, [r7, #4]
 80026b0:	681b      	ldr	r3, [r3, #0]
 80026b2:	4a1a      	ldr	r2, [pc, #104]	; (800271c <HAL_SPI_MspInit+0x120>)
 80026b4:	4293      	cmp	r3, r2
 80026b6:	d127      	bne.n	8002708 <HAL_SPI_MspInit+0x10c>
    __HAL_RCC_SPI3_CLK_ENABLE();
 80026b8:	4b16      	ldr	r3, [pc, #88]	; (8002714 <HAL_SPI_MspInit+0x118>)
 80026ba:	69db      	ldr	r3, [r3, #28]
 80026bc:	4a15      	ldr	r2, [pc, #84]	; (8002714 <HAL_SPI_MspInit+0x118>)
 80026be:	f443 4300 	orr.w	r3, r3, #32768	; 0x8000
 80026c2:	61d3      	str	r3, [r2, #28]
 80026c4:	4b13      	ldr	r3, [pc, #76]	; (8002714 <HAL_SPI_MspInit+0x118>)
 80026c6:	69db      	ldr	r3, [r3, #28]
 80026c8:	f403 4300 	and.w	r3, r3, #32768	; 0x8000
 80026cc:	60fb      	str	r3, [r7, #12]
 80026ce:	68fb      	ldr	r3, [r7, #12]
    __HAL_RCC_GPIOB_CLK_ENABLE();
 80026d0:	4b10      	ldr	r3, [pc, #64]	; (8002714 <HAL_SPI_MspInit+0x118>)
 80026d2:	695b      	ldr	r3, [r3, #20]
 80026d4:	4a0f      	ldr	r2, [pc, #60]	; (8002714 <HAL_SPI_MspInit+0x118>)
 80026d6:	f443 2380 	orr.w	r3, r3, #262144	; 0x40000
 80026da:	6153      	str	r3, [r2, #20]
 80026dc:	4b0d      	ldr	r3, [pc, #52]	; (8002714 <HAL_SPI_MspInit+0x118>)
 80026de:	695b      	ldr	r3, [r3, #20]
 80026e0:	f403 2380 	and.w	r3, r3, #262144	; 0x40000
 80026e4:	60bb      	str	r3, [r7, #8]
 80026e6:	68bb      	ldr	r3, [r7, #8]
    GPIO_InitStruct.Pin = GPIO_PIN_3|GPIO_PIN_4|GPIO_PIN_5;
 80026e8:	2338      	movs	r3, #56	; 0x38
 80026ea:	61fb      	str	r3, [r7, #28]
    GPIO_InitStruct.Mode = GPIO_MODE_AF_PP;
 80026ec:	2302      	movs	r3, #2
 80026ee:	623b      	str	r3, [r7, #32]
    GPIO_InitStruct.Pull = GPIO_NOPULL;
 80026f0:	2300      	movs	r3, #0
 80026f2:	627b      	str	r3, [r7, #36]	; 0x24
    GPIO_InitStruct.Speed = GPIO_SPEED_FREQ_HIGH;
 80026f4:	2303      	movs	r3, #3
 80026f6:	62bb      	str	r3, [r7, #40]	; 0x28
    GPIO_InitStruct.Alternate = GPIO_AF6_SPI3;
 80026f8:	2306      	movs	r3, #6
 80026fa:	62fb      	str	r3, [r7, #44]	; 0x2c
    HAL_GPIO_Init(GPIOB, &GPIO_InitStruct);
 80026fc:	f107 031c 	add.w	r3, r7, #28
 8002700:	4619      	mov	r1, r3
 8002702:	4805      	ldr	r0, [pc, #20]	; (8002718 <HAL_SPI_MspInit+0x11c>)
 8002704:	f001 fb42 	bl	8003d8c <HAL_GPIO_Init>
}
 8002708:	bf00      	nop
 800270a:	3730      	adds	r7, #48	; 0x30
 800270c:	46bd      	mov	sp, r7
 800270e:	bd80      	pop	{r7, pc}
 8002710:	40003800 	.word	0x40003800
 8002714:	40021000 	.word	0x40021000
 8002718:	48000400 	.word	0x48000400
 800271c:	40003c00 	.word	0x40003c00

08002720 <HAL_TIM_Base_MspInit>:
* This function configures the hardware resources used in this example
* @param htim_base: TIM_Base handle pointer
* @retval None
*/
void HAL_TIM_Base_MspInit(TIM_HandleTypeDef* htim_base)
{
 8002720:	b580      	push	{r7, lr}
 8002722:	b086      	sub	sp, #24
 8002724:	af00      	add	r7, sp, #0
 8002726:	6078      	str	r0, [r7, #4]
  if(htim_base->Instance==TIM2)
 8002728:	687b      	ldr	r3, [r7, #4]
 800272a:	681b      	ldr	r3, [r3, #0]
 800272c:	f1b3 4f80 	cmp.w	r3, #1073741824	; 0x40000000
 8002730:	d10c      	bne.n	800274c <HAL_TIM_Base_MspInit+0x2c>
  {
  /* USER CODE BEGIN TIM2_MspInit 0 */

  /* USER CODE END TIM2_MspInit 0 */
    /* Peripheral clock enable */
    __HAL_RCC_TIM2_CLK_ENABLE();
 8002732:	4b2f      	ldr	r3, [pc, #188]	; (80027f0 <HAL_TIM_Base_MspInit+0xd0>)
 8002734:	69db      	ldr	r3, [r3, #28]
 8002736:	4a2e      	ldr	r2, [pc, #184]	; (80027f0 <HAL_TIM_Base_MspInit+0xd0>)
 8002738:	f043 0301 	orr.w	r3, r3, #1
 800273c:	61d3      	str	r3, [r2, #28]
 800273e:	4b2c      	ldr	r3, [pc, #176]	; (80027f0 <HAL_TIM_Base_MspInit+0xd0>)
 8002740:	69db      	ldr	r3, [r3, #28]
 8002742:	f003 0301 	and.w	r3, r3, #1
 8002746:	617b      	str	r3, [r7, #20]
 8002748:	697b      	ldr	r3, [r7, #20]
  /* USER CODE BEGIN TIM17_MspInit 1 */

  /* USER CODE END TIM17_MspInit 1 */
  }

}
 800274a:	e04c      	b.n	80027e6 <HAL_TIM_Base_MspInit+0xc6>
  else if(htim_base->Instance==TIM6)
 800274c:	687b      	ldr	r3, [r7, #4]
 800274e:	681b      	ldr	r3, [r3, #0]
 8002750:	4a28      	ldr	r2, [pc, #160]	; (80027f4 <HAL_TIM_Base_MspInit+0xd4>)
 8002752:	4293      	cmp	r3, r2
 8002754:	d114      	bne.n	8002780 <HAL_TIM_Base_MspInit+0x60>
    __HAL_RCC_TIM6_CLK_ENABLE();
 8002756:	4b26      	ldr	r3, [pc, #152]	; (80027f0 <HAL_TIM_Base_MspInit+0xd0>)
 8002758:	69db      	ldr	r3, [r3, #28]
 800275a:	4a25      	ldr	r2, [pc, #148]	; (80027f0 <HAL_TIM_Base_MspInit+0xd0>)
 800275c:	f043 0310 	orr.w	r3, r3, #16
 8002760:	61d3      	str	r3, [r2, #28]
 8002762:	4b23      	ldr	r3, [pc, #140]	; (80027f0 <HAL_TIM_Base_MspInit+0xd0>)
 8002764:	69db      	ldr	r3, [r3, #28]
 8002766:	f003 0310 	and.w	r3, r3, #16
 800276a:	613b      	str	r3, [r7, #16]
 800276c:	693b      	ldr	r3, [r7, #16]
    HAL_NVIC_SetPriority(TIM6_DAC_IRQn, 0, 0);
 800276e:	2200      	movs	r2, #0
 8002770:	2100      	movs	r1, #0
 8002772:	2036      	movs	r0, #54	; 0x36
 8002774:	f001 fac5 	bl	8003d02 <HAL_NVIC_SetPriority>
    HAL_NVIC_EnableIRQ(TIM6_DAC_IRQn);
 8002778:	2036      	movs	r0, #54	; 0x36
 800277a:	f001 fade 	bl	8003d3a <HAL_NVIC_EnableIRQ>
}
 800277e:	e032      	b.n	80027e6 <HAL_TIM_Base_MspInit+0xc6>
  else if(htim_base->Instance==TIM16)
 8002780:	687b      	ldr	r3, [r7, #4]
 8002782:	681b      	ldr	r3, [r3, #0]
 8002784:	4a1c      	ldr	r2, [pc, #112]	; (80027f8 <HAL_TIM_Base_MspInit+0xd8>)
 8002786:	4293      	cmp	r3, r2
 8002788:	d114      	bne.n	80027b4 <HAL_TIM_Base_MspInit+0x94>
    __HAL_RCC_TIM16_CLK_ENABLE();
 800278a:	4b19      	ldr	r3, [pc, #100]	; (80027f0 <HAL_TIM_Base_MspInit+0xd0>)
 800278c:	699b      	ldr	r3, [r3, #24]
 800278e:	4a18      	ldr	r2, [pc, #96]	; (80027f0 <HAL_TIM_Base_MspInit+0xd0>)
 8002790:	f443 3300 	orr.w	r3, r3, #131072	; 0x20000
 8002794:	6193      	str	r3, [r2, #24]
 8002796:	4b16      	ldr	r3, [pc, #88]	; (80027f0 <HAL_TIM_Base_MspInit+0xd0>)
 8002798:	699b      	ldr	r3, [r3, #24]
 800279a:	f403 3300 	and.w	r3, r3, #131072	; 0x20000
 800279e:	60fb      	str	r3, [r7, #12]
 80027a0:	68fb      	ldr	r3, [r7, #12]
    HAL_NVIC_SetPriority(TIM1_UP_TIM16_IRQn, 0, 0);
 80027a2:	2200      	movs	r2, #0
 80027a4:	2100      	movs	r1, #0
 80027a6:	2019      	movs	r0, #25
 80027a8:	f001 faab 	bl	8003d02 <HAL_NVIC_SetPriority>
    HAL_NVIC_EnableIRQ(TIM1_UP_TIM16_IRQn);
 80027ac:	2019      	movs	r0, #25
 80027ae:	f001 fac4 	bl	8003d3a <HAL_NVIC_EnableIRQ>
}
 80027b2:	e018      	b.n	80027e6 <HAL_TIM_Base_MspInit+0xc6>
  else if(htim_base->Instance==TIM17)
 80027b4:	687b      	ldr	r3, [r7, #4]
 80027b6:	681b      	ldr	r3, [r3, #0]
 80027b8:	4a10      	ldr	r2, [pc, #64]	; (80027fc <HAL_TIM_Base_MspInit+0xdc>)
 80027ba:	4293      	cmp	r3, r2
 80027bc:	d113      	bne.n	80027e6 <HAL_TIM_Base_MspInit+0xc6>
    __HAL_RCC_TIM17_CLK_ENABLE();
 80027be:	4b0c      	ldr	r3, [pc, #48]	; (80027f0 <HAL_TIM_Base_MspInit+0xd0>)
 80027c0:	699b      	ldr	r3, [r3, #24]
 80027c2:	4a0b      	ldr	r2, [pc, #44]	; (80027f0 <HAL_TIM_Base_MspInit+0xd0>)
 80027c4:	f443 2380 	orr.w	r3, r3, #262144	; 0x40000
 80027c8:	6193      	str	r3, [r2, #24]
 80027ca:	4b09      	ldr	r3, [pc, #36]	; (80027f0 <HAL_TIM_Base_MspInit+0xd0>)
 80027cc:	699b      	ldr	r3, [r3, #24]
 80027ce:	f403 2380 	and.w	r3, r3, #262144	; 0x40000
 80027d2:	60bb      	str	r3, [r7, #8]
 80027d4:	68bb      	ldr	r3, [r7, #8]
    HAL_NVIC_SetPriority(TIM1_TRG_COM_TIM17_IRQn, 0, 0);
 80027d6:	2200      	movs	r2, #0
 80027d8:	2100      	movs	r1, #0
 80027da:	201a      	movs	r0, #26
 80027dc:	f001 fa91 	bl	8003d02 <HAL_NVIC_SetPriority>
    HAL_NVIC_EnableIRQ(TIM1_TRG_COM_TIM17_IRQn);
 80027e0:	201a      	movs	r0, #26
 80027e2:	f001 faaa 	bl	8003d3a <HAL_NVIC_EnableIRQ>
}
 80027e6:	bf00      	nop
 80027e8:	3718      	adds	r7, #24
 80027ea:	46bd      	mov	sp, r7
 80027ec:	bd80      	pop	{r7, pc}
 80027ee:	bf00      	nop
 80027f0:	40021000 	.word	0x40021000
 80027f4:	40001000 	.word	0x40001000
 80027f8:	40014400 	.word	0x40014400
 80027fc:	40014800 	.word	0x40014800

08002800 <HAL_TIM_Base_MspDeInit>:
* This function freeze the hardware resources used in this example
* @param htim_base: TIM_Base handle pointer
* @retval None
*/
void HAL_TIM_Base_MspDeInit(TIM_HandleTypeDef* htim_base)
{
 8002800:	b580      	push	{r7, lr}
 8002802:	b082      	sub	sp, #8
 8002804:	af00      	add	r7, sp, #0
 8002806:	6078      	str	r0, [r7, #4]
  if(htim_base->Instance==TIM2)
 8002808:	687b      	ldr	r3, [r7, #4]
 800280a:	681b      	ldr	r3, [r3, #0]
 800280c:	f1b3 4f80 	cmp.w	r3, #1073741824	; 0x40000000
 8002810:	d106      	bne.n	8002820 <HAL_TIM_Base_MspDeInit+0x20>
  {
  /* USER CODE BEGIN TIM2_MspDeInit 0 */

  /* USER CODE END TIM2_MspDeInit 0 */
    /* Peripheral clock disable */
    __HAL_RCC_TIM2_CLK_DISABLE();
 8002812:	4b1b      	ldr	r3, [pc, #108]	; (8002880 <HAL_TIM_Base_MspDeInit+0x80>)
 8002814:	69db      	ldr	r3, [r3, #28]
 8002816:	4a1a      	ldr	r2, [pc, #104]	; (8002880 <HAL_TIM_Base_MspDeInit+0x80>)
 8002818:	f023 0301 	bic.w	r3, r3, #1
 800281c:	61d3      	str	r3, [r2, #28]
  /* USER CODE BEGIN TIM17_MspDeInit 1 */

  /* USER CODE END TIM17_MspDeInit 1 */
  }

}
 800281e:	e02b      	b.n	8002878 <HAL_TIM_Base_MspDeInit+0x78>
  else if(htim_base->Instance==TIM6)
 8002820:	687b      	ldr	r3, [r7, #4]
 8002822:	681b      	ldr	r3, [r3, #0]
 8002824:	4a17      	ldr	r2, [pc, #92]	; (8002884 <HAL_TIM_Base_MspDeInit+0x84>)
 8002826:	4293      	cmp	r3, r2
 8002828:	d109      	bne.n	800283e <HAL_TIM_Base_MspDeInit+0x3e>
    __HAL_RCC_TIM6_CLK_DISABLE();
 800282a:	4b15      	ldr	r3, [pc, #84]	; (8002880 <HAL_TIM_Base_MspDeInit+0x80>)
 800282c:	69db      	ldr	r3, [r3, #28]
 800282e:	4a14      	ldr	r2, [pc, #80]	; (8002880 <HAL_TIM_Base_MspDeInit+0x80>)
 8002830:	f023 0310 	bic.w	r3, r3, #16
 8002834:	61d3      	str	r3, [r2, #28]
    HAL_NVIC_DisableIRQ(TIM6_DAC_IRQn);
 8002836:	2036      	movs	r0, #54	; 0x36
 8002838:	f001 fa8d 	bl	8003d56 <HAL_NVIC_DisableIRQ>
}
 800283c:	e01c      	b.n	8002878 <HAL_TIM_Base_MspDeInit+0x78>
  else if(htim_base->Instance==TIM16)
 800283e:	687b      	ldr	r3, [r7, #4]
 8002840:	681b      	ldr	r3, [r3, #0]
 8002842:	4a11      	ldr	r2, [pc, #68]	; (8002888 <HAL_TIM_Base_MspDeInit+0x88>)
 8002844:	4293      	cmp	r3, r2
 8002846:	d109      	bne.n	800285c <HAL_TIM_Base_MspDeInit+0x5c>
    __HAL_RCC_TIM16_CLK_DISABLE();
 8002848:	4b0d      	ldr	r3, [pc, #52]	; (8002880 <HAL_TIM_Base_MspDeInit+0x80>)
 800284a:	699b      	ldr	r3, [r3, #24]
 800284c:	4a0c      	ldr	r2, [pc, #48]	; (8002880 <HAL_TIM_Base_MspDeInit+0x80>)
 800284e:	f423 3300 	bic.w	r3, r3, #131072	; 0x20000
 8002852:	6193      	str	r3, [r2, #24]
    HAL_NVIC_DisableIRQ(TIM1_UP_TIM16_IRQn);
 8002854:	2019      	movs	r0, #25
 8002856:	f001 fa7e 	bl	8003d56 <HAL_NVIC_DisableIRQ>
}
 800285a:	e00d      	b.n	8002878 <HAL_TIM_Base_MspDeInit+0x78>
  else if(htim_base->Instance==TIM17)
 800285c:	687b      	ldr	r3, [r7, #4]
 800285e:	681b      	ldr	r3, [r3, #0]
 8002860:	4a0a      	ldr	r2, [pc, #40]	; (800288c <HAL_TIM_Base_MspDeInit+0x8c>)
 8002862:	4293      	cmp	r3, r2
 8002864:	d108      	bne.n	8002878 <HAL_TIM_Base_MspDeInit+0x78>
    __HAL_RCC_TIM17_CLK_DISABLE();
 8002866:	4b06      	ldr	r3, [pc, #24]	; (8002880 <HAL_TIM_Base_MspDeInit+0x80>)
 8002868:	699b      	ldr	r3, [r3, #24]
 800286a:	4a05      	ldr	r2, [pc, #20]	; (8002880 <HAL_TIM_Base_MspDeInit+0x80>)
 800286c:	f423 2380 	bic.w	r3, r3, #262144	; 0x40000
 8002870:	6193      	str	r3, [r2, #24]
    HAL_NVIC_DisableIRQ(TIM1_TRG_COM_TIM17_IRQn);
 8002872:	201a      	movs	r0, #26
 8002874:	f001 fa6f 	bl	8003d56 <HAL_NVIC_DisableIRQ>
}
 8002878:	bf00      	nop
 800287a:	3708      	adds	r7, #8
 800287c:	46bd      	mov	sp, r7
 800287e:	bd80      	pop	{r7, pc}
 8002880:	40021000 	.word	0x40021000
 8002884:	40001000 	.word	0x40001000
 8002888:	40014400 	.word	0x40014400
 800288c:	40014800 	.word	0x40014800

08002890 <HAL_UART_MspInit>:
* This function configures the hardware resources used in this example
* @param huart: UART handle pointer
* @retval None
*/
void HAL_UART_MspInit(UART_HandleTypeDef* huart)
{
 8002890:	b580      	push	{r7, lr}
 8002892:	b08a      	sub	sp, #40	; 0x28
 8002894:	af00      	add	r7, sp, #0
 8002896:	6078      	str	r0, [r7, #4]
  GPIO_InitTypeDef GPIO_InitStruct = {0};
 8002898:	f107 0314 	add.w	r3, r7, #20
 800289c:	2200      	movs	r2, #0
 800289e:	601a      	str	r2, [r3, #0]
 80028a0:	605a      	str	r2, [r3, #4]
 80028a2:	609a      	str	r2, [r3, #8]
 80028a4:	60da      	str	r2, [r3, #12]
 80028a6:	611a      	str	r2, [r3, #16]
  if(huart->Instance==USART2)
 80028a8:	687b      	ldr	r3, [r7, #4]
 80028aa:	681b      	ldr	r3, [r3, #0]
 80028ac:	4a17      	ldr	r2, [pc, #92]	; (800290c <HAL_UART_MspInit+0x7c>)
 80028ae:	4293      	cmp	r3, r2
 80028b0:	d128      	bne.n	8002904 <HAL_UART_MspInit+0x74>
  {
  /* USER CODE BEGIN USART2_MspInit 0 */

  /* USER CODE END USART2_MspInit 0 */
    /* Peripheral clock enable */
    __HAL_RCC_USART2_CLK_ENABLE();
 80028b2:	4b17      	ldr	r3, [pc, #92]	; (8002910 <HAL_UART_MspInit+0x80>)
 80028b4:	69db      	ldr	r3, [r3, #28]
 80028b6:	4a16      	ldr	r2, [pc, #88]	; (8002910 <HAL_UART_MspInit+0x80>)
 80028b8:	f443 3300 	orr.w	r3, r3, #131072	; 0x20000
 80028bc:	61d3      	str	r3, [r2, #28]
 80028be:	4b14      	ldr	r3, [pc, #80]	; (8002910 <HAL_UART_MspInit+0x80>)
 80028c0:	69db      	ldr	r3, [r3, #28]
 80028c2:	f403 3300 	and.w	r3, r3, #131072	; 0x20000
 80028c6:	613b      	str	r3, [r7, #16]
 80028c8:	693b      	ldr	r3, [r7, #16]

    __HAL_RCC_GPIOA_CLK_ENABLE();
 80028ca:	4b11      	ldr	r3, [pc, #68]	; (8002910 <HAL_UART_MspInit+0x80>)
 80028cc:	695b      	ldr	r3, [r3, #20]
 80028ce:	4a10      	ldr	r2, [pc, #64]	; (8002910 <HAL_UART_MspInit+0x80>)
 80028d0:	f443 3300 	orr.w	r3, r3, #131072	; 0x20000
 80028d4:	6153      	str	r3, [r2, #20]
 80028d6:	4b0e      	ldr	r3, [pc, #56]	; (8002910 <HAL_UART_MspInit+0x80>)
 80028d8:	695b      	ldr	r3, [r3, #20]
 80028da:	f403 3300 	and.w	r3, r3, #131072	; 0x20000
 80028de:	60fb      	str	r3, [r7, #12]
 80028e0:	68fb      	ldr	r3, [r7, #12]
    /**USART2 GPIO Configuration
    PA2     ------> USART2_TX
    PA3     ------> USART2_RX
    */
    GPIO_InitStruct.Pin = GPIO_PIN_2|GPIO_PIN_3;
 80028e2:	230c      	movs	r3, #12
 80028e4:	617b      	str	r3, [r7, #20]
    GPIO_InitStruct.Mode = GPIO_MODE_AF_PP;
 80028e6:	2302      	movs	r3, #2
 80028e8:	61bb      	str	r3, [r7, #24]
    GPIO_InitStruct.Pull = GPIO_NOPULL;
 80028ea:	2300      	movs	r3, #0
 80028ec:	61fb      	str	r3, [r7, #28]
    GPIO_InitStruct.Speed = GPIO_SPEED_FREQ_HIGH;
 80028ee:	2303      	movs	r3, #3
 80028f0:	623b      	str	r3, [r7, #32]
    GPIO_InitStruct.Alternate = GPIO_AF7_USART2;
 80028f2:	2307      	movs	r3, #7
 80028f4:	627b      	str	r3, [r7, #36]	; 0x24
    HAL_GPIO_Init(GPIOA, &GPIO_InitStruct);
 80028f6:	f107 0314 	add.w	r3, r7, #20
 80028fa:	4619      	mov	r1, r3
 80028fc:	f04f 4090 	mov.w	r0, #1207959552	; 0x48000000
 8002900:	f001 fa44 	bl	8003d8c <HAL_GPIO_Init>
  /* USER CODE BEGIN USART2_MspInit 1 */

  /* USER CODE END USART2_MspInit 1 */
  }

}
 8002904:	bf00      	nop
 8002906:	3728      	adds	r7, #40	; 0x28
 8002908:	46bd      	mov	sp, r7
 800290a:	bd80      	pop	{r7, pc}
 800290c:	40004400 	.word	0x40004400
 8002910:	40021000 	.word	0x40021000

08002914 <NMI_Handler>:
/******************************************************************************/
/**
  * @brief This function handles Non maskable interrupt.
  */
void NMI_Handler(void)
{
 8002914:	b480      	push	{r7}
 8002916:	af00      	add	r7, sp, #0

  /* USER CODE END NonMaskableInt_IRQn 0 */
  /* USER CODE BEGIN NonMaskableInt_IRQn 1 */

  /* USER CODE END NonMaskableInt_IRQn 1 */
}
 8002918:	bf00      	nop
 800291a:	46bd      	mov	sp, r7
 800291c:	f85d 7b04 	ldr.w	r7, [sp], #4
 8002920:	4770      	bx	lr

08002922 <HardFault_Handler>:

/**
  * @brief This function handles Hard fault interrupt.
  */
void HardFault_Handler(void)
{
 8002922:	b480      	push	{r7}
 8002924:	af00      	add	r7, sp, #0
  /* USER CODE BEGIN HardFault_IRQn 0 */

  /* USER CODE END HardFault_IRQn 0 */
  while (1)
 8002926:	e7fe      	b.n	8002926 <HardFault_Handler+0x4>

08002928 <MemManage_Handler>:

/**
  * @brief This function handles Memory management fault.
  */
void MemManage_Handler(void)
{
 8002928:	b480      	push	{r7}
 800292a:	af00      	add	r7, sp, #0
  /* USER CODE BEGIN MemoryManagement_IRQn 0 */

  /* USER CODE END MemoryManagement_IRQn 0 */
  while (1)
 800292c:	e7fe      	b.n	800292c <MemManage_Handler+0x4>

0800292e <BusFault_Handler>:

/**
  * @brief This function handles Pre-fetch fault, memory access fault.
  */
void BusFault_Handler(void)
{
 800292e:	b480      	push	{r7}
 8002930:	af00      	add	r7, sp, #0
  /* USER CODE BEGIN BusFault_IRQn 0 */

  /* USER CODE END BusFault_IRQn 0 */
  while (1)
 8002932:	e7fe      	b.n	8002932 <BusFault_Handler+0x4>

08002934 <UsageFault_Handler>:

/**
  * @brief This function handles Undefined instruction or illegal state.
  */
void UsageFault_Handler(void)
{
 8002934:	b480      	push	{r7}
 8002936:	af00      	add	r7, sp, #0
  /* USER CODE BEGIN UsageFault_IRQn 0 */

  /* USER CODE END UsageFault_IRQn 0 */
  while (1)
 8002938:	e7fe      	b.n	8002938 <UsageFault_Handler+0x4>

0800293a <SVC_Handler>:

/**
  * @brief This function handles System service call via SWI instruction.
  */
void SVC_Handler(void)
{
 800293a:	b480      	push	{r7}
 800293c:	af00      	add	r7, sp, #0

  /* USER CODE END SVCall_IRQn 0 */
  /* USER CODE BEGIN SVCall_IRQn 1 */

  /* USER CODE END SVCall_IRQn 1 */
}
 800293e:	bf00      	nop
 8002940:	46bd      	mov	sp, r7
 8002942:	f85d 7b04 	ldr.w	r7, [sp], #4
 8002946:	4770      	bx	lr

08002948 <DebugMon_Handler>:

/**
  * @brief This function handles Debug monitor.
  */
void DebugMon_Handler(void)
{
 8002948:	b480      	push	{r7}
 800294a:	af00      	add	r7, sp, #0

  /* USER CODE END DebugMonitor_IRQn 0 */
  /* USER CODE BEGIN DebugMonitor_IRQn 1 */

  /* USER CODE END DebugMonitor_IRQn 1 */
}
 800294c:	bf00      	nop
 800294e:	46bd      	mov	sp, r7
 8002950:	f85d 7b04 	ldr.w	r7, [sp], #4
 8002954:	4770      	bx	lr

08002956 <PendSV_Handler>:

/**
  * @brief This function handles Pendable request for system service.
  */
void PendSV_Handler(void)
{
 8002956:	b480      	push	{r7}
 8002958:	af00      	add	r7, sp, #0

  /* USER CODE END PendSV_IRQn 0 */
  /* USER CODE BEGIN PendSV_IRQn 1 */

  /* USER CODE END PendSV_IRQn 1 */
}
 800295a:	bf00      	nop
 800295c:	46bd      	mov	sp, r7
 800295e:	f85d 7b04 	ldr.w	r7, [sp], #4
 8002962:	4770      	bx	lr

08002964 <SysTick_Handler>:

/**
  * @brief This function handles System tick timer.
  */
void SysTick_Handler(void)
{
 8002964:	b580      	push	{r7, lr}
 8002966:	af00      	add	r7, sp, #0
  /* USER CODE BEGIN SysTick_IRQn 0 */

  /* USER CODE END SysTick_IRQn 0 */
  HAL_IncTick();
 8002968:	f001 f888 	bl	8003a7c <HAL_IncTick>
  /* USER CODE BEGIN SysTick_IRQn 1 */

  /* USER CODE END SysTick_IRQn 1 */
}
 800296c:	bf00      	nop
 800296e:	bd80      	pop	{r7, pc}

08002970 <EXTI0_IRQHandler>:

/**
  * @brief This function handles EXTI line0 interrupt.
  */
void EXTI0_IRQHandler(void)
{
 8002970:	b580      	push	{r7, lr}
 8002972:	af00      	add	r7, sp, #0
  /* USER CODE BEGIN EXTI0_IRQn 0 */

  /* USER CODE END EXTI0_IRQn 0 */
  HAL_GPIO_EXTI_IRQHandler(GPIO_PIN_0);
 8002974:	2001      	movs	r0, #1
 8002976:	f001 fb93 	bl	80040a0 <HAL_GPIO_EXTI_IRQHandler>
  /* USER CODE BEGIN EXTI0_IRQn 1 */

  /* USER CODE END EXTI0_IRQn 1 */
}
 800297a:	bf00      	nop
 800297c:	bd80      	pop	{r7, pc}

0800297e <EXTI1_IRQHandler>:

/**
  * @brief This function handles EXTI line1 interrupt.
  */
void EXTI1_IRQHandler(void)
{
 800297e:	b580      	push	{r7, lr}
 8002980:	af00      	add	r7, sp, #0
  /* USER CODE BEGIN EXTI1_IRQn 0 */

  /* USER CODE END EXTI1_IRQn 0 */
  HAL_GPIO_EXTI_IRQHandler(GPIO_PIN_1);
 8002982:	2002      	movs	r0, #2
 8002984:	f001 fb8c 	bl	80040a0 <HAL_GPIO_EXTI_IRQHandler>
  /* USER CODE BEGIN EXTI1_IRQn 1 */

  /* USER CODE END EXTI1_IRQn 1 */
}
 8002988:	bf00      	nop
 800298a:	bd80      	pop	{r7, pc}

0800298c <EXTI9_5_IRQHandler>:

/**
  * @brief This function handles EXTI line[9:5] interrupts.
  */
void EXTI9_5_IRQHandler(void)
{
 800298c:	b580      	push	{r7, lr}
 800298e:	af00      	add	r7, sp, #0
  /* USER CODE BEGIN EXTI9_5_IRQn 0 */

  /* USER CODE END EXTI9_5_IRQn 0 */
  HAL_GPIO_EXTI_IRQHandler(GPIO_PIN_5);
 8002990:	2020      	movs	r0, #32
 8002992:	f001 fb85 	bl	80040a0 <HAL_GPIO_EXTI_IRQHandler>
  /* USER CODE BEGIN EXTI9_5_IRQn 1 */

  /* USER CODE END EXTI9_5_IRQn 1 */
}
 8002996:	bf00      	nop
 8002998:	bd80      	pop	{r7, pc}
	...

0800299c <TIM1_UP_TIM16_IRQHandler>:

/**
  * @brief This function handles TIM1 update and TIM16 interrupts.
  */
void TIM1_UP_TIM16_IRQHandler(void)
{
 800299c:	b580      	push	{r7, lr}
 800299e:	af00      	add	r7, sp, #0
  /* USER CODE BEGIN TIM1_UP_TIM16_IRQn 0 */
	if ((TIM16->SR & 0x0001))
 80029a0:	4b0a      	ldr	r3, [pc, #40]	; (80029cc <TIM1_UP_TIM16_IRQHandler+0x30>)
 80029a2:	691b      	ldr	r3, [r3, #16]
 80029a4:	f003 0301 	and.w	r3, r3, #1
 80029a8:	2b00      	cmp	r3, #0
 80029aa:	d00a      	beq.n	80029c2 <TIM1_UP_TIM16_IRQHandler+0x26>
	{
		TIM16->SR &= ~(1 << 0);		           //Reset the update interrupt flag
 80029ac:	4b07      	ldr	r3, [pc, #28]	; (80029cc <TIM1_UP_TIM16_IRQHandler+0x30>)
 80029ae:	691b      	ldr	r3, [r3, #16]
 80029b0:	4a06      	ldr	r2, [pc, #24]	; (80029cc <TIM1_UP_TIM16_IRQHandler+0x30>)
 80029b2:	f023 0301 	bic.w	r3, r3, #1
 80029b6:	6113      	str	r3, [r2, #16]
		tim16_count++;
 80029b8:	4b05      	ldr	r3, [pc, #20]	; (80029d0 <TIM1_UP_TIM16_IRQHandler+0x34>)
 80029ba:	681b      	ldr	r3, [r3, #0]
 80029bc:	3301      	adds	r3, #1
 80029be:	4a04      	ldr	r2, [pc, #16]	; (80029d0 <TIM1_UP_TIM16_IRQHandler+0x34>)
 80029c0:	6013      	str	r3, [r2, #0]
	}
  /* USER CODE END TIM1_UP_TIM16_IRQn 0 */
  HAL_TIM_IRQHandler(&htim16);
 80029c2:	4804      	ldr	r0, [pc, #16]	; (80029d4 <TIM1_UP_TIM16_IRQHandler+0x38>)
 80029c4:	f004 fc59 	bl	800727a <HAL_TIM_IRQHandler>
  /* USER CODE BEGIN TIM1_UP_TIM16_IRQn 1 */

  /* USER CODE END TIM1_UP_TIM16_IRQn 1 */
}
 80029c8:	bf00      	nop
 80029ca:	bd80      	pop	{r7, pc}
 80029cc:	40014400 	.word	0x40014400
 80029d0:	20001cec 	.word	0x20001cec
 80029d4:	20001bcc 	.word	0x20001bcc

080029d8 <TIM1_TRG_COM_TIM17_IRQHandler>:

/**
  * @brief This function handles TIM1 trigger, commutation and TIM17 interrupts.
  */
void TIM1_TRG_COM_TIM17_IRQHandler(void)
{
 80029d8:	b580      	push	{r7, lr}
 80029da:	af00      	add	r7, sp, #0
  /* USER CODE BEGIN TIM1_TRG_COM_TIM17_IRQn 0 */
	if ((TIM17->SR & 0x0001))
 80029dc:	4b0a      	ldr	r3, [pc, #40]	; (8002a08 <TIM1_TRG_COM_TIM17_IRQHandler+0x30>)
 80029de:	691b      	ldr	r3, [r3, #16]
 80029e0:	f003 0301 	and.w	r3, r3, #1
 80029e4:	2b00      	cmp	r3, #0
 80029e6:	d00a      	beq.n	80029fe <TIM1_TRG_COM_TIM17_IRQHandler+0x26>
	{
		TIM17->SR &= ~(1 << 0);		           //Reset the update interrupt flag
 80029e8:	4b07      	ldr	r3, [pc, #28]	; (8002a08 <TIM1_TRG_COM_TIM17_IRQHandler+0x30>)
 80029ea:	691b      	ldr	r3, [r3, #16]
 80029ec:	4a06      	ldr	r2, [pc, #24]	; (8002a08 <TIM1_TRG_COM_TIM17_IRQHandler+0x30>)
 80029ee:	f023 0301 	bic.w	r3, r3, #1
 80029f2:	6113      	str	r3, [r2, #16]
		tim17_count++;
 80029f4:	4b05      	ldr	r3, [pc, #20]	; (8002a0c <TIM1_TRG_COM_TIM17_IRQHandler+0x34>)
 80029f6:	681b      	ldr	r3, [r3, #0]
 80029f8:	3301      	adds	r3, #1
 80029fa:	4a04      	ldr	r2, [pc, #16]	; (8002a0c <TIM1_TRG_COM_TIM17_IRQHandler+0x34>)
 80029fc:	6013      	str	r3, [r2, #0]
	}

  /* USER CODE END TIM1_TRG_COM_TIM17_IRQn 0 */
  HAL_TIM_IRQHandler(&htim17);
 80029fe:	4804      	ldr	r0, [pc, #16]	; (8002a10 <TIM1_TRG_COM_TIM17_IRQHandler+0x38>)
 8002a00:	f004 fc3b 	bl	800727a <HAL_TIM_IRQHandler>
  /* USER CODE BEGIN TIM1_TRG_COM_TIM17_IRQn 1 */

  /* USER CODE END TIM1_TRG_COM_TIM17_IRQn 1 */
}
 8002a04:	bf00      	nop
 8002a06:	bd80      	pop	{r7, pc}
 8002a08:	40014800 	.word	0x40014800
 8002a0c:	20001cf0 	.word	0x20001cf0
 8002a10:	20001c18 	.word	0x20001c18

08002a14 <TIM6_DAC_IRQHandler>:

/**
  * @brief This function handles TIM6 global interrupt, DAC interrupts.
  */
void TIM6_DAC_IRQHandler(void)
{
 8002a14:	b580      	push	{r7, lr}
 8002a16:	af00      	add	r7, sp, #0
  /* USER CODE BEGIN TIM6_DAC_IRQn 0 */
	if ((TIM6->SR & 0x0001))
 8002a18:	4b0a      	ldr	r3, [pc, #40]	; (8002a44 <TIM6_DAC_IRQHandler+0x30>)
 8002a1a:	691b      	ldr	r3, [r3, #16]
 8002a1c:	f003 0301 	and.w	r3, r3, #1
 8002a20:	2b00      	cmp	r3, #0
 8002a22:	d00a      	beq.n	8002a3a <TIM6_DAC_IRQHandler+0x26>
	{
		TIM6->SR &= ~(1 << 0);		           //Reset the update interrupt flag
 8002a24:	4b07      	ldr	r3, [pc, #28]	; (8002a44 <TIM6_DAC_IRQHandler+0x30>)
 8002a26:	691b      	ldr	r3, [r3, #16]
 8002a28:	4a06      	ldr	r2, [pc, #24]	; (8002a44 <TIM6_DAC_IRQHandler+0x30>)
 8002a2a:	f023 0301 	bic.w	r3, r3, #1
 8002a2e:	6113      	str	r3, [r2, #16]
		count++;
 8002a30:	4b05      	ldr	r3, [pc, #20]	; (8002a48 <TIM6_DAC_IRQHandler+0x34>)
 8002a32:	681b      	ldr	r3, [r3, #0]
 8002a34:	3301      	adds	r3, #1
 8002a36:	4a04      	ldr	r2, [pc, #16]	; (8002a48 <TIM6_DAC_IRQHandler+0x34>)
 8002a38:	6013      	str	r3, [r2, #0]
	}

  /* USER CODE END TIM6_DAC_IRQn 0 */
  HAL_TIM_IRQHandler(&htim6);
 8002a3a:	4804      	ldr	r0, [pc, #16]	; (8002a4c <TIM6_DAC_IRQHandler+0x38>)
 8002a3c:	f004 fc1d 	bl	800727a <HAL_TIM_IRQHandler>
  /* USER CODE BEGIN TIM6_DAC_IRQn 1 */

  /* USER CODE END TIM6_DAC_IRQn 1 */
}
 8002a40:	bf00      	nop
 8002a42:	bd80      	pop	{r7, pc}
 8002a44:	40001000 	.word	0x40001000
 8002a48:	20001ce8 	.word	0x20001ce8
 8002a4c:	20001b80 	.word	0x20001b80

08002a50 <_sbrk>:
 *
 * @param incr Memory size
 * @return Pointer to allocated memory
 */
void *_sbrk(ptrdiff_t incr)
{
 8002a50:	b580      	push	{r7, lr}
 8002a52:	b086      	sub	sp, #24
 8002a54:	af00      	add	r7, sp, #0
 8002a56:	6078      	str	r0, [r7, #4]
  extern uint8_t _end; /* Symbol defined in the linker script */
  extern uint8_t _estack; /* Symbol defined in the linker script */
  extern uint32_t _Min_Stack_Size; /* Symbol defined in the linker script */
  const uint32_t stack_limit = (uint32_t)&_estack - (uint32_t)&_Min_Stack_Size;
 8002a58:	4a14      	ldr	r2, [pc, #80]	; (8002aac <_sbrk+0x5c>)
 8002a5a:	4b15      	ldr	r3, [pc, #84]	; (8002ab0 <_sbrk+0x60>)
 8002a5c:	1ad3      	subs	r3, r2, r3
 8002a5e:	617b      	str	r3, [r7, #20]
  const uint8_t *max_heap = (uint8_t *)stack_limit;
 8002a60:	697b      	ldr	r3, [r7, #20]
 8002a62:	613b      	str	r3, [r7, #16]
  uint8_t *prev_heap_end;

  /* Initialize heap end at first call */
  if (NULL == __sbrk_heap_end)
 8002a64:	4b13      	ldr	r3, [pc, #76]	; (8002ab4 <_sbrk+0x64>)
 8002a66:	681b      	ldr	r3, [r3, #0]
 8002a68:	2b00      	cmp	r3, #0
 8002a6a:	d102      	bne.n	8002a72 <_sbrk+0x22>
  {
    __sbrk_heap_end = &_end;
 8002a6c:	4b11      	ldr	r3, [pc, #68]	; (8002ab4 <_sbrk+0x64>)
 8002a6e:	4a12      	ldr	r2, [pc, #72]	; (8002ab8 <_sbrk+0x68>)
 8002a70:	601a      	str	r2, [r3, #0]
  }

  /* Protect heap from growing into the reserved MSP stack */
  if (__sbrk_heap_end + incr > max_heap)
 8002a72:	4b10      	ldr	r3, [pc, #64]	; (8002ab4 <_sbrk+0x64>)
 8002a74:	681a      	ldr	r2, [r3, #0]
 8002a76:	687b      	ldr	r3, [r7, #4]
 8002a78:	4413      	add	r3, r2
 8002a7a:	693a      	ldr	r2, [r7, #16]
 8002a7c:	429a      	cmp	r2, r3
 8002a7e:	d207      	bcs.n	8002a90 <_sbrk+0x40>
  {
    errno = ENOMEM;
 8002a80:	f005 fad6 	bl	8008030 <__errno>
 8002a84:	4603      	mov	r3, r0
 8002a86:	220c      	movs	r2, #12
 8002a88:	601a      	str	r2, [r3, #0]
    return (void *)-1;
 8002a8a:	f04f 33ff 	mov.w	r3, #4294967295
 8002a8e:	e009      	b.n	8002aa4 <_sbrk+0x54>
  }

  prev_heap_end = __sbrk_heap_end;
 8002a90:	4b08      	ldr	r3, [pc, #32]	; (8002ab4 <_sbrk+0x64>)
 8002a92:	681b      	ldr	r3, [r3, #0]
 8002a94:	60fb      	str	r3, [r7, #12]
  __sbrk_heap_end += incr;
 8002a96:	4b07      	ldr	r3, [pc, #28]	; (8002ab4 <_sbrk+0x64>)
 8002a98:	681a      	ldr	r2, [r3, #0]
 8002a9a:	687b      	ldr	r3, [r7, #4]
 8002a9c:	4413      	add	r3, r2
 8002a9e:	4a05      	ldr	r2, [pc, #20]	; (8002ab4 <_sbrk+0x64>)
 8002aa0:	6013      	str	r3, [r2, #0]

  return (void *)prev_heap_end;
 8002aa2:	68fb      	ldr	r3, [r7, #12]
}
 8002aa4:	4618      	mov	r0, r3
 8002aa6:	3718      	adds	r7, #24
 8002aa8:	46bd      	mov	sp, r7
 8002aaa:	bd80      	pop	{r7, pc}
 8002aac:	20004000 	.word	0x20004000
 8002ab0:	00000400 	.word	0x00000400
 8002ab4:	200036dc 	.word	0x200036dc
 8002ab8:	20003700 	.word	0x20003700

08002abc <SystemInit>:
  * @brief  Setup the microcontroller system
  * @param  None
  * @retval None
  */
void SystemInit(void)
{
 8002abc:	b480      	push	{r7}
 8002abe:	af00      	add	r7, sp, #0
/* FPU settings --------------------------------------------------------------*/
#if (__FPU_PRESENT == 1) && (__FPU_USED == 1)
  SCB->CPACR |= ((3UL << 10*2)|(3UL << 11*2));  /* set CP10 and CP11 Full Access */
 8002ac0:	4b06      	ldr	r3, [pc, #24]	; (8002adc <SystemInit+0x20>)
 8002ac2:	f8d3 3088 	ldr.w	r3, [r3, #136]	; 0x88
 8002ac6:	4a05      	ldr	r2, [pc, #20]	; (8002adc <SystemInit+0x20>)
 8002ac8:	f443 0370 	orr.w	r3, r3, #15728640	; 0xf00000
 8002acc:	f8c2 3088 	str.w	r3, [r2, #136]	; 0x88

  /* Configure the Vector Table location -------------------------------------*/
#if defined(USER_VECT_TAB_ADDRESS)
  SCB->VTOR = VECT_TAB_BASE_ADDRESS | VECT_TAB_OFFSET; /* Vector Table Relocation in Internal SRAM */
#endif /* USER_VECT_TAB_ADDRESS */
}
 8002ad0:	bf00      	nop
 8002ad2:	46bd      	mov	sp, r7
 8002ad4:	f85d 7b04 	ldr.w	r7, [sp], #4
 8002ad8:	4770      	bx	lr
 8002ada:	bf00      	nop
 8002adc:	e000ed00 	.word	0xe000ed00

08002ae0 <WIZCHIP_READ>:

#if   (_WIZCHIP_ == 5500)
////////////////////////////////////////////////////

uint8_t  WIZCHIP_READ(uint32_t AddrSel)
{
 8002ae0:	b580      	push	{r7, lr}
 8002ae2:	b084      	sub	sp, #16
 8002ae4:	af00      	add	r7, sp, #0
 8002ae6:	6078      	str	r0, [r7, #4]
   uint8_t ret;
   uint8_t spi_data[3];

   WIZCHIP_CRITICAL_ENTER();
 8002ae8:	4b22      	ldr	r3, [pc, #136]	; (8002b74 <WIZCHIP_READ+0x94>)
 8002aea:	68db      	ldr	r3, [r3, #12]
 8002aec:	4798      	blx	r3
   WIZCHIP.CS._select();
 8002aee:	4b21      	ldr	r3, [pc, #132]	; (8002b74 <WIZCHIP_READ+0x94>)
 8002af0:	695b      	ldr	r3, [r3, #20]
 8002af2:	4798      	blx	r3

   AddrSel |= (_W5500_SPI_READ_ | _W5500_SPI_VDM_OP_);

   if(!WIZCHIP.IF.SPI._read_burst || !WIZCHIP.IF.SPI._write_burst) 	// byte operation
 8002af4:	4b1f      	ldr	r3, [pc, #124]	; (8002b74 <WIZCHIP_READ+0x94>)
 8002af6:	6a5b      	ldr	r3, [r3, #36]	; 0x24
 8002af8:	2b00      	cmp	r3, #0
 8002afa:	d003      	beq.n	8002b04 <WIZCHIP_READ+0x24>
 8002afc:	4b1d      	ldr	r3, [pc, #116]	; (8002b74 <WIZCHIP_READ+0x94>)
 8002afe:	6a9b      	ldr	r3, [r3, #40]	; 0x28
 8002b00:	2b00      	cmp	r3, #0
 8002b02:	d114      	bne.n	8002b2e <WIZCHIP_READ+0x4e>
   {
	   WIZCHIP.IF.SPI._write_byte((AddrSel & 0x00FF0000) >> 16);
 8002b04:	4b1b      	ldr	r3, [pc, #108]	; (8002b74 <WIZCHIP_READ+0x94>)
 8002b06:	6a1b      	ldr	r3, [r3, #32]
 8002b08:	687a      	ldr	r2, [r7, #4]
 8002b0a:	0c12      	lsrs	r2, r2, #16
 8002b0c:	b2d2      	uxtb	r2, r2
 8002b0e:	4610      	mov	r0, r2
 8002b10:	4798      	blx	r3
		WIZCHIP.IF.SPI._write_byte((AddrSel & 0x0000FF00) >>  8);
 8002b12:	4b18      	ldr	r3, [pc, #96]	; (8002b74 <WIZCHIP_READ+0x94>)
 8002b14:	6a1b      	ldr	r3, [r3, #32]
 8002b16:	687a      	ldr	r2, [r7, #4]
 8002b18:	0a12      	lsrs	r2, r2, #8
 8002b1a:	b2d2      	uxtb	r2, r2
 8002b1c:	4610      	mov	r0, r2
 8002b1e:	4798      	blx	r3
		WIZCHIP.IF.SPI._write_byte((AddrSel & 0x000000FF) >>  0);
 8002b20:	4b14      	ldr	r3, [pc, #80]	; (8002b74 <WIZCHIP_READ+0x94>)
 8002b22:	6a1b      	ldr	r3, [r3, #32]
 8002b24:	687a      	ldr	r2, [r7, #4]
 8002b26:	b2d2      	uxtb	r2, r2
 8002b28:	4610      	mov	r0, r2
 8002b2a:	4798      	blx	r3
 8002b2c:	e011      	b.n	8002b52 <WIZCHIP_READ+0x72>
   }
   else																// burst operation
   {
		spi_data[0] = (AddrSel & 0x00FF0000) >> 16;
 8002b2e:	687b      	ldr	r3, [r7, #4]
 8002b30:	0c1b      	lsrs	r3, r3, #16
 8002b32:	b2db      	uxtb	r3, r3
 8002b34:	733b      	strb	r3, [r7, #12]
		spi_data[1] = (AddrSel & 0x0000FF00) >> 8;
 8002b36:	687b      	ldr	r3, [r7, #4]
 8002b38:	0a1b      	lsrs	r3, r3, #8
 8002b3a:	b2db      	uxtb	r3, r3
 8002b3c:	737b      	strb	r3, [r7, #13]
		spi_data[2] = (AddrSel & 0x000000FF) >> 0;
 8002b3e:	687b      	ldr	r3, [r7, #4]
 8002b40:	b2db      	uxtb	r3, r3
 8002b42:	73bb      	strb	r3, [r7, #14]
		WIZCHIP.IF.SPI._write_burst(spi_data, 3);
 8002b44:	4b0b      	ldr	r3, [pc, #44]	; (8002b74 <WIZCHIP_READ+0x94>)
 8002b46:	6a9b      	ldr	r3, [r3, #40]	; 0x28
 8002b48:	f107 020c 	add.w	r2, r7, #12
 8002b4c:	2103      	movs	r1, #3
 8002b4e:	4610      	mov	r0, r2
 8002b50:	4798      	blx	r3
   }
   ret = WIZCHIP.IF.SPI._read_byte();
 8002b52:	4b08      	ldr	r3, [pc, #32]	; (8002b74 <WIZCHIP_READ+0x94>)
 8002b54:	69db      	ldr	r3, [r3, #28]
 8002b56:	4798      	blx	r3
 8002b58:	4603      	mov	r3, r0
 8002b5a:	73fb      	strb	r3, [r7, #15]

   WIZCHIP.CS._deselect();
 8002b5c:	4b05      	ldr	r3, [pc, #20]	; (8002b74 <WIZCHIP_READ+0x94>)
 8002b5e:	699b      	ldr	r3, [r3, #24]
 8002b60:	4798      	blx	r3
   WIZCHIP_CRITICAL_EXIT();
 8002b62:	4b04      	ldr	r3, [pc, #16]	; (8002b74 <WIZCHIP_READ+0x94>)
 8002b64:	691b      	ldr	r3, [r3, #16]
 8002b66:	4798      	blx	r3
   return ret;
 8002b68:	7bfb      	ldrb	r3, [r7, #15]
}
 8002b6a:	4618      	mov	r0, r3
 8002b6c:	3710      	adds	r7, #16
 8002b6e:	46bd      	mov	sp, r7
 8002b70:	bd80      	pop	{r7, pc}
 8002b72:	bf00      	nop
 8002b74:	20001810 	.word	0x20001810

08002b78 <WIZCHIP_WRITE>:

void WIZCHIP_WRITE(uint32_t AddrSel, uint8_t wb )
{
 8002b78:	b580      	push	{r7, lr}
 8002b7a:	b084      	sub	sp, #16
 8002b7c:	af00      	add	r7, sp, #0
 8002b7e:	6078      	str	r0, [r7, #4]
 8002b80:	460b      	mov	r3, r1
 8002b82:	70fb      	strb	r3, [r7, #3]
   uint8_t spi_data[4];
   WIZCHIP_CRITICAL_ENTER();
 8002b84:	4b22      	ldr	r3, [pc, #136]	; (8002c10 <WIZCHIP_WRITE+0x98>)
 8002b86:	68db      	ldr	r3, [r3, #12]
 8002b88:	4798      	blx	r3
   WIZCHIP.CS._select();
 8002b8a:	4b21      	ldr	r3, [pc, #132]	; (8002c10 <WIZCHIP_WRITE+0x98>)
 8002b8c:	695b      	ldr	r3, [r3, #20]
 8002b8e:	4798      	blx	r3

   AddrSel |= (_W5500_SPI_WRITE_ | _W5500_SPI_VDM_OP_);
 8002b90:	687b      	ldr	r3, [r7, #4]
 8002b92:	f043 0304 	orr.w	r3, r3, #4
 8002b96:	607b      	str	r3, [r7, #4]

   //if(!WIZCHIP.IF.SPI._read_burst || !WIZCHIP.IF.SPI._write_burst) 	// byte operation

   if(!WIZCHIP.IF.SPI._write_burst) 	// byte operation
 8002b98:	4b1d      	ldr	r3, [pc, #116]	; (8002c10 <WIZCHIP_WRITE+0x98>)
 8002b9a:	6a9b      	ldr	r3, [r3, #40]	; 0x28
 8002b9c:	2b00      	cmp	r3, #0
 8002b9e:	d119      	bne.n	8002bd4 <WIZCHIP_WRITE+0x5c>
   {
		WIZCHIP.IF.SPI._write_byte((AddrSel & 0x00FF0000) >> 16);
 8002ba0:	4b1b      	ldr	r3, [pc, #108]	; (8002c10 <WIZCHIP_WRITE+0x98>)
 8002ba2:	6a1b      	ldr	r3, [r3, #32]
 8002ba4:	687a      	ldr	r2, [r7, #4]
 8002ba6:	0c12      	lsrs	r2, r2, #16
 8002ba8:	b2d2      	uxtb	r2, r2
 8002baa:	4610      	mov	r0, r2
 8002bac:	4798      	blx	r3
		WIZCHIP.IF.SPI._write_byte((AddrSel & 0x0000FF00) >>  8);
 8002bae:	4b18      	ldr	r3, [pc, #96]	; (8002c10 <WIZCHIP_WRITE+0x98>)
 8002bb0:	6a1b      	ldr	r3, [r3, #32]
 8002bb2:	687a      	ldr	r2, [r7, #4]
 8002bb4:	0a12      	lsrs	r2, r2, #8
 8002bb6:	b2d2      	uxtb	r2, r2
 8002bb8:	4610      	mov	r0, r2
 8002bba:	4798      	blx	r3
		WIZCHIP.IF.SPI._write_byte((AddrSel & 0x000000FF) >>  0);
 8002bbc:	4b14      	ldr	r3, [pc, #80]	; (8002c10 <WIZCHIP_WRITE+0x98>)
 8002bbe:	6a1b      	ldr	r3, [r3, #32]
 8002bc0:	687a      	ldr	r2, [r7, #4]
 8002bc2:	b2d2      	uxtb	r2, r2
 8002bc4:	4610      	mov	r0, r2
 8002bc6:	4798      	blx	r3
		WIZCHIP.IF.SPI._write_byte(wb);
 8002bc8:	4b11      	ldr	r3, [pc, #68]	; (8002c10 <WIZCHIP_WRITE+0x98>)
 8002bca:	6a1b      	ldr	r3, [r3, #32]
 8002bcc:	78fa      	ldrb	r2, [r7, #3]
 8002bce:	4610      	mov	r0, r2
 8002bd0:	4798      	blx	r3
 8002bd2:	e013      	b.n	8002bfc <WIZCHIP_WRITE+0x84>
   }
   else									// burst operation
   {
		spi_data[0] = (AddrSel & 0x00FF0000) >> 16;
 8002bd4:	687b      	ldr	r3, [r7, #4]
 8002bd6:	0c1b      	lsrs	r3, r3, #16
 8002bd8:	b2db      	uxtb	r3, r3
 8002bda:	733b      	strb	r3, [r7, #12]
		spi_data[1] = (AddrSel & 0x0000FF00) >> 8;
 8002bdc:	687b      	ldr	r3, [r7, #4]
 8002bde:	0a1b      	lsrs	r3, r3, #8
 8002be0:	b2db      	uxtb	r3, r3
 8002be2:	737b      	strb	r3, [r7, #13]
		spi_data[2] = (AddrSel & 0x000000FF) >> 0;
 8002be4:	687b      	ldr	r3, [r7, #4]
 8002be6:	b2db      	uxtb	r3, r3
 8002be8:	73bb      	strb	r3, [r7, #14]
		spi_data[3] = wb;
 8002bea:	78fb      	ldrb	r3, [r7, #3]
 8002bec:	73fb      	strb	r3, [r7, #15]
		WIZCHIP.IF.SPI._write_burst(spi_data, 4);
 8002bee:	4b08      	ldr	r3, [pc, #32]	; (8002c10 <WIZCHIP_WRITE+0x98>)
 8002bf0:	6a9b      	ldr	r3, [r3, #40]	; 0x28
 8002bf2:	f107 020c 	add.w	r2, r7, #12
 8002bf6:	2104      	movs	r1, #4
 8002bf8:	4610      	mov	r0, r2
 8002bfa:	4798      	blx	r3
   }

   WIZCHIP.CS._deselect();
 8002bfc:	4b04      	ldr	r3, [pc, #16]	; (8002c10 <WIZCHIP_WRITE+0x98>)
 8002bfe:	699b      	ldr	r3, [r3, #24]
 8002c00:	4798      	blx	r3
   WIZCHIP_CRITICAL_EXIT();
 8002c02:	4b03      	ldr	r3, [pc, #12]	; (8002c10 <WIZCHIP_WRITE+0x98>)
 8002c04:	691b      	ldr	r3, [r3, #16]
 8002c06:	4798      	blx	r3
}
 8002c08:	bf00      	nop
 8002c0a:	3710      	adds	r7, #16
 8002c0c:	46bd      	mov	sp, r7
 8002c0e:	bd80      	pop	{r7, pc}
 8002c10:	20001810 	.word	0x20001810

08002c14 <WIZCHIP_READ_BUF>:
         
void WIZCHIP_READ_BUF(uint32_t AddrSel, uint8_t* pBuf, uint16_t len)
{
 8002c14:	b590      	push	{r4, r7, lr}
 8002c16:	b087      	sub	sp, #28
 8002c18:	af00      	add	r7, sp, #0
 8002c1a:	60f8      	str	r0, [r7, #12]
 8002c1c:	60b9      	str	r1, [r7, #8]
 8002c1e:	4613      	mov	r3, r2
 8002c20:	80fb      	strh	r3, [r7, #6]
   uint8_t spi_data[3];
   uint16_t i;

   WIZCHIP_CRITICAL_ENTER();
 8002c22:	4b2b      	ldr	r3, [pc, #172]	; (8002cd0 <WIZCHIP_READ_BUF+0xbc>)
 8002c24:	68db      	ldr	r3, [r3, #12]
 8002c26:	4798      	blx	r3
   WIZCHIP.CS._select();
 8002c28:	4b29      	ldr	r3, [pc, #164]	; (8002cd0 <WIZCHIP_READ_BUF+0xbc>)
 8002c2a:	695b      	ldr	r3, [r3, #20]
 8002c2c:	4798      	blx	r3

   AddrSel |= (_W5500_SPI_READ_ | _W5500_SPI_VDM_OP_);

   if(!WIZCHIP.IF.SPI._read_burst || !WIZCHIP.IF.SPI._write_burst) 	// byte operation
 8002c2e:	4b28      	ldr	r3, [pc, #160]	; (8002cd0 <WIZCHIP_READ_BUF+0xbc>)
 8002c30:	6a5b      	ldr	r3, [r3, #36]	; 0x24
 8002c32:	2b00      	cmp	r3, #0
 8002c34:	d003      	beq.n	8002c3e <WIZCHIP_READ_BUF+0x2a>
 8002c36:	4b26      	ldr	r3, [pc, #152]	; (8002cd0 <WIZCHIP_READ_BUF+0xbc>)
 8002c38:	6a9b      	ldr	r3, [r3, #40]	; 0x28
 8002c3a:	2b00      	cmp	r3, #0
 8002c3c:	d126      	bne.n	8002c8c <WIZCHIP_READ_BUF+0x78>
   {
		WIZCHIP.IF.SPI._write_byte((AddrSel & 0x00FF0000) >> 16);
 8002c3e:	4b24      	ldr	r3, [pc, #144]	; (8002cd0 <WIZCHIP_READ_BUF+0xbc>)
 8002c40:	6a1b      	ldr	r3, [r3, #32]
 8002c42:	68fa      	ldr	r2, [r7, #12]
 8002c44:	0c12      	lsrs	r2, r2, #16
 8002c46:	b2d2      	uxtb	r2, r2
 8002c48:	4610      	mov	r0, r2
 8002c4a:	4798      	blx	r3
		WIZCHIP.IF.SPI._write_byte((AddrSel & 0x0000FF00) >>  8);
 8002c4c:	4b20      	ldr	r3, [pc, #128]	; (8002cd0 <WIZCHIP_READ_BUF+0xbc>)
 8002c4e:	6a1b      	ldr	r3, [r3, #32]
 8002c50:	68fa      	ldr	r2, [r7, #12]
 8002c52:	0a12      	lsrs	r2, r2, #8
 8002c54:	b2d2      	uxtb	r2, r2
 8002c56:	4610      	mov	r0, r2
 8002c58:	4798      	blx	r3
		WIZCHIP.IF.SPI._write_byte((AddrSel & 0x000000FF) >>  0);
 8002c5a:	4b1d      	ldr	r3, [pc, #116]	; (8002cd0 <WIZCHIP_READ_BUF+0xbc>)
 8002c5c:	6a1b      	ldr	r3, [r3, #32]
 8002c5e:	68fa      	ldr	r2, [r7, #12]
 8002c60:	b2d2      	uxtb	r2, r2
 8002c62:	4610      	mov	r0, r2
 8002c64:	4798      	blx	r3
		for(i = 0; i < len; i++)
 8002c66:	2300      	movs	r3, #0
 8002c68:	82fb      	strh	r3, [r7, #22]
 8002c6a:	e00a      	b.n	8002c82 <WIZCHIP_READ_BUF+0x6e>
		pBuf[i] = WIZCHIP.IF.SPI._read_byte();
 8002c6c:	4b18      	ldr	r3, [pc, #96]	; (8002cd0 <WIZCHIP_READ_BUF+0xbc>)
 8002c6e:	69db      	ldr	r3, [r3, #28]
 8002c70:	8afa      	ldrh	r2, [r7, #22]
 8002c72:	68b9      	ldr	r1, [r7, #8]
 8002c74:	188c      	adds	r4, r1, r2
 8002c76:	4798      	blx	r3
 8002c78:	4603      	mov	r3, r0
 8002c7a:	7023      	strb	r3, [r4, #0]
		for(i = 0; i < len; i++)
 8002c7c:	8afb      	ldrh	r3, [r7, #22]
 8002c7e:	3301      	adds	r3, #1
 8002c80:	82fb      	strh	r3, [r7, #22]
 8002c82:	8afa      	ldrh	r2, [r7, #22]
 8002c84:	88fb      	ldrh	r3, [r7, #6]
 8002c86:	429a      	cmp	r2, r3
 8002c88:	d3f0      	bcc.n	8002c6c <WIZCHIP_READ_BUF+0x58>
   if(!WIZCHIP.IF.SPI._read_burst || !WIZCHIP.IF.SPI._write_burst) 	// byte operation
 8002c8a:	e017      	b.n	8002cbc <WIZCHIP_READ_BUF+0xa8>
   }
   else																// burst operation
   {
		spi_data[0] = (AddrSel & 0x00FF0000) >> 16;
 8002c8c:	68fb      	ldr	r3, [r7, #12]
 8002c8e:	0c1b      	lsrs	r3, r3, #16
 8002c90:	b2db      	uxtb	r3, r3
 8002c92:	743b      	strb	r3, [r7, #16]
		spi_data[1] = (AddrSel & 0x0000FF00) >> 8;
 8002c94:	68fb      	ldr	r3, [r7, #12]
 8002c96:	0a1b      	lsrs	r3, r3, #8
 8002c98:	b2db      	uxtb	r3, r3
 8002c9a:	747b      	strb	r3, [r7, #17]
		spi_data[2] = (AddrSel & 0x000000FF) >> 0;
 8002c9c:	68fb      	ldr	r3, [r7, #12]
 8002c9e:	b2db      	uxtb	r3, r3
 8002ca0:	74bb      	strb	r3, [r7, #18]
		WIZCHIP.IF.SPI._write_burst(spi_data, 3);
 8002ca2:	4b0b      	ldr	r3, [pc, #44]	; (8002cd0 <WIZCHIP_READ_BUF+0xbc>)
 8002ca4:	6a9b      	ldr	r3, [r3, #40]	; 0x28
 8002ca6:	f107 0210 	add.w	r2, r7, #16
 8002caa:	2103      	movs	r1, #3
 8002cac:	4610      	mov	r0, r2
 8002cae:	4798      	blx	r3
		WIZCHIP.IF.SPI._read_burst(pBuf, len);
 8002cb0:	4b07      	ldr	r3, [pc, #28]	; (8002cd0 <WIZCHIP_READ_BUF+0xbc>)
 8002cb2:	6a5b      	ldr	r3, [r3, #36]	; 0x24
 8002cb4:	88fa      	ldrh	r2, [r7, #6]
 8002cb6:	4611      	mov	r1, r2
 8002cb8:	68b8      	ldr	r0, [r7, #8]
 8002cba:	4798      	blx	r3
   }

   WIZCHIP.CS._deselect();
 8002cbc:	4b04      	ldr	r3, [pc, #16]	; (8002cd0 <WIZCHIP_READ_BUF+0xbc>)
 8002cbe:	699b      	ldr	r3, [r3, #24]
 8002cc0:	4798      	blx	r3
   WIZCHIP_CRITICAL_EXIT();
 8002cc2:	4b03      	ldr	r3, [pc, #12]	; (8002cd0 <WIZCHIP_READ_BUF+0xbc>)
 8002cc4:	691b      	ldr	r3, [r3, #16]
 8002cc6:	4798      	blx	r3
}
 8002cc8:	bf00      	nop
 8002cca:	371c      	adds	r7, #28
 8002ccc:	46bd      	mov	sp, r7
 8002cce:	bd90      	pop	{r4, r7, pc}
 8002cd0:	20001810 	.word	0x20001810

08002cd4 <WIZCHIP_WRITE_BUF>:


void     WIZCHIP_WRITE_BUF(uint32_t AddrSel, uint8_t* pBuf, uint16_t len)
{
 8002cd4:	b580      	push	{r7, lr}
 8002cd6:	b086      	sub	sp, #24
 8002cd8:	af00      	add	r7, sp, #0
 8002cda:	60f8      	str	r0, [r7, #12]
 8002cdc:	60b9      	str	r1, [r7, #8]
 8002cde:	4613      	mov	r3, r2
 8002ce0:	80fb      	strh	r3, [r7, #6]
   uint8_t spi_data[3];
   uint16_t i;

   WIZCHIP_CRITICAL_ENTER();
 8002ce2:	4b2b      	ldr	r3, [pc, #172]	; (8002d90 <WIZCHIP_WRITE_BUF+0xbc>)
 8002ce4:	68db      	ldr	r3, [r3, #12]
 8002ce6:	4798      	blx	r3
   WIZCHIP.CS._select();
 8002ce8:	4b29      	ldr	r3, [pc, #164]	; (8002d90 <WIZCHIP_WRITE_BUF+0xbc>)
 8002cea:	695b      	ldr	r3, [r3, #20]
 8002cec:	4798      	blx	r3

   AddrSel |= (_W5500_SPI_WRITE_ | _W5500_SPI_VDM_OP_);
 8002cee:	68fb      	ldr	r3, [r7, #12]
 8002cf0:	f043 0304 	orr.w	r3, r3, #4
 8002cf4:	60fb      	str	r3, [r7, #12]

   if(!WIZCHIP.IF.SPI._write_burst) 	// byte operation
 8002cf6:	4b26      	ldr	r3, [pc, #152]	; (8002d90 <WIZCHIP_WRITE_BUF+0xbc>)
 8002cf8:	6a9b      	ldr	r3, [r3, #40]	; 0x28
 8002cfa:	2b00      	cmp	r3, #0
 8002cfc:	d126      	bne.n	8002d4c <WIZCHIP_WRITE_BUF+0x78>
   {
		WIZCHIP.IF.SPI._write_byte((AddrSel & 0x00FF0000) >> 16);
 8002cfe:	4b24      	ldr	r3, [pc, #144]	; (8002d90 <WIZCHIP_WRITE_BUF+0xbc>)
 8002d00:	6a1b      	ldr	r3, [r3, #32]
 8002d02:	68fa      	ldr	r2, [r7, #12]
 8002d04:	0c12      	lsrs	r2, r2, #16
 8002d06:	b2d2      	uxtb	r2, r2
 8002d08:	4610      	mov	r0, r2
 8002d0a:	4798      	blx	r3
		WIZCHIP.IF.SPI._write_byte((AddrSel & 0x0000FF00) >>  8);
 8002d0c:	4b20      	ldr	r3, [pc, #128]	; (8002d90 <WIZCHIP_WRITE_BUF+0xbc>)
 8002d0e:	6a1b      	ldr	r3, [r3, #32]
 8002d10:	68fa      	ldr	r2, [r7, #12]
 8002d12:	0a12      	lsrs	r2, r2, #8
 8002d14:	b2d2      	uxtb	r2, r2
 8002d16:	4610      	mov	r0, r2
 8002d18:	4798      	blx	r3
		WIZCHIP.IF.SPI._write_byte((AddrSel & 0x000000FF) >>  0);
 8002d1a:	4b1d      	ldr	r3, [pc, #116]	; (8002d90 <WIZCHIP_WRITE_BUF+0xbc>)
 8002d1c:	6a1b      	ldr	r3, [r3, #32]
 8002d1e:	68fa      	ldr	r2, [r7, #12]
 8002d20:	b2d2      	uxtb	r2, r2
 8002d22:	4610      	mov	r0, r2
 8002d24:	4798      	blx	r3
		for(i = 0; i < len; i++)
 8002d26:	2300      	movs	r3, #0
 8002d28:	82fb      	strh	r3, [r7, #22]
 8002d2a:	e00a      	b.n	8002d42 <WIZCHIP_WRITE_BUF+0x6e>
			WIZCHIP.IF.SPI._write_byte(pBuf[i]);
 8002d2c:	4b18      	ldr	r3, [pc, #96]	; (8002d90 <WIZCHIP_WRITE_BUF+0xbc>)
 8002d2e:	6a1b      	ldr	r3, [r3, #32]
 8002d30:	8afa      	ldrh	r2, [r7, #22]
 8002d32:	68b9      	ldr	r1, [r7, #8]
 8002d34:	440a      	add	r2, r1
 8002d36:	7812      	ldrb	r2, [r2, #0]
 8002d38:	4610      	mov	r0, r2
 8002d3a:	4798      	blx	r3
		for(i = 0; i < len; i++)
 8002d3c:	8afb      	ldrh	r3, [r7, #22]
 8002d3e:	3301      	adds	r3, #1
 8002d40:	82fb      	strh	r3, [r7, #22]
 8002d42:	8afa      	ldrh	r2, [r7, #22]
 8002d44:	88fb      	ldrh	r3, [r7, #6]
 8002d46:	429a      	cmp	r2, r3
 8002d48:	d3f0      	bcc.n	8002d2c <WIZCHIP_WRITE_BUF+0x58>
 8002d4a:	e017      	b.n	8002d7c <WIZCHIP_WRITE_BUF+0xa8>
   }
   else 														// burst operation
   {
		spi_data[0] = (AddrSel & 0x00FF0000) >> 16;
 8002d4c:	68fb      	ldr	r3, [r7, #12]
 8002d4e:	0c1b      	lsrs	r3, r3, #16
 8002d50:	b2db      	uxtb	r3, r3
 8002d52:	743b      	strb	r3, [r7, #16]
		spi_data[1] = (AddrSel & 0x0000FF00) >> 8;
 8002d54:	68fb      	ldr	r3, [r7, #12]
 8002d56:	0a1b      	lsrs	r3, r3, #8
 8002d58:	b2db      	uxtb	r3, r3
 8002d5a:	747b      	strb	r3, [r7, #17]
		spi_data[2] = (AddrSel & 0x000000FF) >> 0;
 8002d5c:	68fb      	ldr	r3, [r7, #12]
 8002d5e:	b2db      	uxtb	r3, r3
 8002d60:	74bb      	strb	r3, [r7, #18]
		WIZCHIP.IF.SPI._write_burst(spi_data, 3);
 8002d62:	4b0b      	ldr	r3, [pc, #44]	; (8002d90 <WIZCHIP_WRITE_BUF+0xbc>)
 8002d64:	6a9b      	ldr	r3, [r3, #40]	; 0x28
 8002d66:	f107 0210 	add.w	r2, r7, #16
 8002d6a:	2103      	movs	r1, #3
 8002d6c:	4610      	mov	r0, r2
 8002d6e:	4798      	blx	r3
		WIZCHIP.IF.SPI._write_burst(pBuf, len);
 8002d70:	4b07      	ldr	r3, [pc, #28]	; (8002d90 <WIZCHIP_WRITE_BUF+0xbc>)
 8002d72:	6a9b      	ldr	r3, [r3, #40]	; 0x28
 8002d74:	88fa      	ldrh	r2, [r7, #6]
 8002d76:	4611      	mov	r1, r2
 8002d78:	68b8      	ldr	r0, [r7, #8]
 8002d7a:	4798      	blx	r3
   }

   WIZCHIP.CS._deselect();
 8002d7c:	4b04      	ldr	r3, [pc, #16]	; (8002d90 <WIZCHIP_WRITE_BUF+0xbc>)
 8002d7e:	699b      	ldr	r3, [r3, #24]
 8002d80:	4798      	blx	r3
   WIZCHIP_CRITICAL_EXIT();
 8002d82:	4b03      	ldr	r3, [pc, #12]	; (8002d90 <WIZCHIP_WRITE_BUF+0xbc>)
 8002d84:	691b      	ldr	r3, [r3, #16]
 8002d86:	4798      	blx	r3
}
 8002d88:	bf00      	nop
 8002d8a:	3718      	adds	r7, #24
 8002d8c:	46bd      	mov	sp, r7
 8002d8e:	bd80      	pop	{r7, pc}
 8002d90:	20001810 	.word	0x20001810

08002d94 <getSn_TX_FSR>:


uint16_t getSn_TX_FSR(uint8_t sn)
{
 8002d94:	b590      	push	{r4, r7, lr}
 8002d96:	b085      	sub	sp, #20
 8002d98:	af00      	add	r7, sp, #0
 8002d9a:	4603      	mov	r3, r0
 8002d9c:	71fb      	strb	r3, [r7, #7]
   uint16_t val=0,val1=0;
 8002d9e:	2300      	movs	r3, #0
 8002da0:	81fb      	strh	r3, [r7, #14]
 8002da2:	2300      	movs	r3, #0
 8002da4:	81bb      	strh	r3, [r7, #12]

   do
   {
      val1 = WIZCHIP_READ(Sn_TX_FSR(sn));
 8002da6:	79fb      	ldrb	r3, [r7, #7]
 8002da8:	009b      	lsls	r3, r3, #2
 8002daa:	3301      	adds	r3, #1
 8002dac:	00db      	lsls	r3, r3, #3
 8002dae:	f503 5300 	add.w	r3, r3, #8192	; 0x2000
 8002db2:	4618      	mov	r0, r3
 8002db4:	f7ff fe94 	bl	8002ae0 <WIZCHIP_READ>
 8002db8:	4603      	mov	r3, r0
 8002dba:	81bb      	strh	r3, [r7, #12]
      val1 = (val1 << 8) + WIZCHIP_READ(WIZCHIP_OFFSET_INC(Sn_TX_FSR(sn),1));
 8002dbc:	89bb      	ldrh	r3, [r7, #12]
 8002dbe:	021b      	lsls	r3, r3, #8
 8002dc0:	b29c      	uxth	r4, r3
 8002dc2:	79fb      	ldrb	r3, [r7, #7]
 8002dc4:	009b      	lsls	r3, r3, #2
 8002dc6:	3301      	adds	r3, #1
 8002dc8:	00db      	lsls	r3, r3, #3
 8002dca:	f503 5304 	add.w	r3, r3, #8448	; 0x2100
 8002dce:	4618      	mov	r0, r3
 8002dd0:	f7ff fe86 	bl	8002ae0 <WIZCHIP_READ>
 8002dd4:	4603      	mov	r3, r0
 8002dd6:	b29b      	uxth	r3, r3
 8002dd8:	4423      	add	r3, r4
 8002dda:	81bb      	strh	r3, [r7, #12]
      if (val1 != 0)
 8002ddc:	89bb      	ldrh	r3, [r7, #12]
 8002dde:	2b00      	cmp	r3, #0
 8002de0:	d01a      	beq.n	8002e18 <getSn_TX_FSR+0x84>
      {
        val = WIZCHIP_READ(Sn_TX_FSR(sn));
 8002de2:	79fb      	ldrb	r3, [r7, #7]
 8002de4:	009b      	lsls	r3, r3, #2
 8002de6:	3301      	adds	r3, #1
 8002de8:	00db      	lsls	r3, r3, #3
 8002dea:	f503 5300 	add.w	r3, r3, #8192	; 0x2000
 8002dee:	4618      	mov	r0, r3
 8002df0:	f7ff fe76 	bl	8002ae0 <WIZCHIP_READ>
 8002df4:	4603      	mov	r3, r0
 8002df6:	81fb      	strh	r3, [r7, #14]
        val = (val << 8) + WIZCHIP_READ(WIZCHIP_OFFSET_INC(Sn_TX_FSR(sn),1));
 8002df8:	89fb      	ldrh	r3, [r7, #14]
 8002dfa:	021b      	lsls	r3, r3, #8
 8002dfc:	b29c      	uxth	r4, r3
 8002dfe:	79fb      	ldrb	r3, [r7, #7]
 8002e00:	009b      	lsls	r3, r3, #2
 8002e02:	3301      	adds	r3, #1
 8002e04:	00db      	lsls	r3, r3, #3
 8002e06:	f503 5304 	add.w	r3, r3, #8448	; 0x2100
 8002e0a:	4618      	mov	r0, r3
 8002e0c:	f7ff fe68 	bl	8002ae0 <WIZCHIP_READ>
 8002e10:	4603      	mov	r3, r0
 8002e12:	b29b      	uxth	r3, r3
 8002e14:	4423      	add	r3, r4
 8002e16:	81fb      	strh	r3, [r7, #14]
      }
   }while (val != val1);
 8002e18:	89fa      	ldrh	r2, [r7, #14]
 8002e1a:	89bb      	ldrh	r3, [r7, #12]
 8002e1c:	429a      	cmp	r2, r3
 8002e1e:	d1c2      	bne.n	8002da6 <getSn_TX_FSR+0x12>
   return val;
 8002e20:	89fb      	ldrh	r3, [r7, #14]
}
 8002e22:	4618      	mov	r0, r3
 8002e24:	3714      	adds	r7, #20
 8002e26:	46bd      	mov	sp, r7
 8002e28:	bd90      	pop	{r4, r7, pc}

08002e2a <getSn_RX_RSR>:


uint16_t getSn_RX_RSR(uint8_t sn)
{
 8002e2a:	b590      	push	{r4, r7, lr}
 8002e2c:	b085      	sub	sp, #20
 8002e2e:	af00      	add	r7, sp, #0
 8002e30:	4603      	mov	r3, r0
 8002e32:	71fb      	strb	r3, [r7, #7]
   uint16_t val=0,val1=0;
 8002e34:	2300      	movs	r3, #0
 8002e36:	81fb      	strh	r3, [r7, #14]
 8002e38:	2300      	movs	r3, #0
 8002e3a:	81bb      	strh	r3, [r7, #12]

   do
   {
      val1 = WIZCHIP_READ(Sn_RX_RSR(sn));
 8002e3c:	79fb      	ldrb	r3, [r7, #7]
 8002e3e:	009b      	lsls	r3, r3, #2
 8002e40:	3301      	adds	r3, #1
 8002e42:	00db      	lsls	r3, r3, #3
 8002e44:	f503 5318 	add.w	r3, r3, #9728	; 0x2600
 8002e48:	4618      	mov	r0, r3
 8002e4a:	f7ff fe49 	bl	8002ae0 <WIZCHIP_READ>
 8002e4e:	4603      	mov	r3, r0
 8002e50:	81bb      	strh	r3, [r7, #12]
      val1 = (val1 << 8) + WIZCHIP_READ(WIZCHIP_OFFSET_INC(Sn_RX_RSR(sn),1));
 8002e52:	89bb      	ldrh	r3, [r7, #12]
 8002e54:	021b      	lsls	r3, r3, #8
 8002e56:	b29c      	uxth	r4, r3
 8002e58:	79fb      	ldrb	r3, [r7, #7]
 8002e5a:	009b      	lsls	r3, r3, #2
 8002e5c:	3301      	adds	r3, #1
 8002e5e:	00db      	lsls	r3, r3, #3
 8002e60:	f503 531c 	add.w	r3, r3, #9984	; 0x2700
 8002e64:	4618      	mov	r0, r3
 8002e66:	f7ff fe3b 	bl	8002ae0 <WIZCHIP_READ>
 8002e6a:	4603      	mov	r3, r0
 8002e6c:	b29b      	uxth	r3, r3
 8002e6e:	4423      	add	r3, r4
 8002e70:	81bb      	strh	r3, [r7, #12]
      if (val1 != 0)
 8002e72:	89bb      	ldrh	r3, [r7, #12]
 8002e74:	2b00      	cmp	r3, #0
 8002e76:	d01a      	beq.n	8002eae <getSn_RX_RSR+0x84>
      {
        val = WIZCHIP_READ(Sn_RX_RSR(sn));
 8002e78:	79fb      	ldrb	r3, [r7, #7]
 8002e7a:	009b      	lsls	r3, r3, #2
 8002e7c:	3301      	adds	r3, #1
 8002e7e:	00db      	lsls	r3, r3, #3
 8002e80:	f503 5318 	add.w	r3, r3, #9728	; 0x2600
 8002e84:	4618      	mov	r0, r3
 8002e86:	f7ff fe2b 	bl	8002ae0 <WIZCHIP_READ>
 8002e8a:	4603      	mov	r3, r0
 8002e8c:	81fb      	strh	r3, [r7, #14]
        val = (val << 8) + WIZCHIP_READ(WIZCHIP_OFFSET_INC(Sn_RX_RSR(sn),1));
 8002e8e:	89fb      	ldrh	r3, [r7, #14]
 8002e90:	021b      	lsls	r3, r3, #8
 8002e92:	b29c      	uxth	r4, r3
 8002e94:	79fb      	ldrb	r3, [r7, #7]
 8002e96:	009b      	lsls	r3, r3, #2
 8002e98:	3301      	adds	r3, #1
 8002e9a:	00db      	lsls	r3, r3, #3
 8002e9c:	f503 531c 	add.w	r3, r3, #9984	; 0x2700
 8002ea0:	4618      	mov	r0, r3
 8002ea2:	f7ff fe1d 	bl	8002ae0 <WIZCHIP_READ>
 8002ea6:	4603      	mov	r3, r0
 8002ea8:	b29b      	uxth	r3, r3
 8002eaa:	4423      	add	r3, r4
 8002eac:	81fb      	strh	r3, [r7, #14]
      }
   }while (val != val1);
 8002eae:	89fa      	ldrh	r2, [r7, #14]
 8002eb0:	89bb      	ldrh	r3, [r7, #12]
 8002eb2:	429a      	cmp	r2, r3
 8002eb4:	d1c2      	bne.n	8002e3c <getSn_RX_RSR+0x12>
   return val;
 8002eb6:	89fb      	ldrh	r3, [r7, #14]
}
 8002eb8:	4618      	mov	r0, r3
 8002eba:	3714      	adds	r7, #20
 8002ebc:	46bd      	mov	sp, r7
 8002ebe:	bd90      	pop	{r4, r7, pc}

08002ec0 <wiz_send_data>:


void wiz_send_data(uint8_t sn, uint8_t *wizdata, uint16_t len)
{
 8002ec0:	b590      	push	{r4, r7, lr}
 8002ec2:	b085      	sub	sp, #20
 8002ec4:	af00      	add	r7, sp, #0
 8002ec6:	4603      	mov	r3, r0
 8002ec8:	6039      	str	r1, [r7, #0]
 8002eca:	71fb      	strb	r3, [r7, #7]
 8002ecc:	4613      	mov	r3, r2
 8002ece:	80bb      	strh	r3, [r7, #4]
   uint16_t ptr = 0;
 8002ed0:	2300      	movs	r3, #0
 8002ed2:	81fb      	strh	r3, [r7, #14]
   uint32_t addrsel = 0;
 8002ed4:	2300      	movs	r3, #0
 8002ed6:	60bb      	str	r3, [r7, #8]

   if(len == 0)  return;
 8002ed8:	88bb      	ldrh	r3, [r7, #4]
 8002eda:	2b00      	cmp	r3, #0
 8002edc:	d048      	beq.n	8002f70 <wiz_send_data+0xb0>
   ptr = getSn_TX_WR(sn);
 8002ede:	79fb      	ldrb	r3, [r7, #7]
 8002ee0:	009b      	lsls	r3, r3, #2
 8002ee2:	3301      	adds	r3, #1
 8002ee4:	00db      	lsls	r3, r3, #3
 8002ee6:	f503 5310 	add.w	r3, r3, #9216	; 0x2400
 8002eea:	4618      	mov	r0, r3
 8002eec:	f7ff fdf8 	bl	8002ae0 <WIZCHIP_READ>
 8002ef0:	4603      	mov	r3, r0
 8002ef2:	b29b      	uxth	r3, r3
 8002ef4:	021b      	lsls	r3, r3, #8
 8002ef6:	b29c      	uxth	r4, r3
 8002ef8:	79fb      	ldrb	r3, [r7, #7]
 8002efa:	009b      	lsls	r3, r3, #2
 8002efc:	3301      	adds	r3, #1
 8002efe:	00db      	lsls	r3, r3, #3
 8002f00:	f503 5314 	add.w	r3, r3, #9472	; 0x2500
 8002f04:	4618      	mov	r0, r3
 8002f06:	f7ff fdeb 	bl	8002ae0 <WIZCHIP_READ>
 8002f0a:	4603      	mov	r3, r0
 8002f0c:	b29b      	uxth	r3, r3
 8002f0e:	4423      	add	r3, r4
 8002f10:	81fb      	strh	r3, [r7, #14]
   //M20140501 : implict type casting -> explict type casting
   //addrsel = (ptr << 8) + (WIZCHIP_TXBUF_BLOCK(sn) << 3);
   addrsel = ((uint32_t)ptr << 8) + (WIZCHIP_TXBUF_BLOCK(sn) << 3);
 8002f12:	89fb      	ldrh	r3, [r7, #14]
 8002f14:	021b      	lsls	r3, r3, #8
 8002f16:	79fa      	ldrb	r2, [r7, #7]
 8002f18:	0092      	lsls	r2, r2, #2
 8002f1a:	3202      	adds	r2, #2
 8002f1c:	00d2      	lsls	r2, r2, #3
 8002f1e:	4413      	add	r3, r2
 8002f20:	60bb      	str	r3, [r7, #8]
   //
   WIZCHIP_WRITE_BUF(addrsel,wizdata, len);
 8002f22:	88bb      	ldrh	r3, [r7, #4]
 8002f24:	461a      	mov	r2, r3
 8002f26:	6839      	ldr	r1, [r7, #0]
 8002f28:	68b8      	ldr	r0, [r7, #8]
 8002f2a:	f7ff fed3 	bl	8002cd4 <WIZCHIP_WRITE_BUF>
   ptr += len;
 8002f2e:	89fa      	ldrh	r2, [r7, #14]
 8002f30:	88bb      	ldrh	r3, [r7, #4]
 8002f32:	4413      	add	r3, r2
 8002f34:	81fb      	strh	r3, [r7, #14]
   setSn_TX_WR(sn,ptr);
 8002f36:	79fb      	ldrb	r3, [r7, #7]
 8002f38:	009b      	lsls	r3, r3, #2
 8002f3a:	3301      	adds	r3, #1
 8002f3c:	00db      	lsls	r3, r3, #3
 8002f3e:	f503 5310 	add.w	r3, r3, #9216	; 0x2400
 8002f42:	461a      	mov	r2, r3
 8002f44:	89fb      	ldrh	r3, [r7, #14]
 8002f46:	0a1b      	lsrs	r3, r3, #8
 8002f48:	b29b      	uxth	r3, r3
 8002f4a:	b2db      	uxtb	r3, r3
 8002f4c:	4619      	mov	r1, r3
 8002f4e:	4610      	mov	r0, r2
 8002f50:	f7ff fe12 	bl	8002b78 <WIZCHIP_WRITE>
 8002f54:	79fb      	ldrb	r3, [r7, #7]
 8002f56:	009b      	lsls	r3, r3, #2
 8002f58:	3301      	adds	r3, #1
 8002f5a:	00db      	lsls	r3, r3, #3
 8002f5c:	f503 5314 	add.w	r3, r3, #9472	; 0x2500
 8002f60:	461a      	mov	r2, r3
 8002f62:	89fb      	ldrh	r3, [r7, #14]
 8002f64:	b2db      	uxtb	r3, r3
 8002f66:	4619      	mov	r1, r3
 8002f68:	4610      	mov	r0, r2
 8002f6a:	f7ff fe05 	bl	8002b78 <WIZCHIP_WRITE>
 8002f6e:	e000      	b.n	8002f72 <wiz_send_data+0xb2>
   if(len == 0)  return;
 8002f70:	bf00      	nop
}
 8002f72:	3714      	adds	r7, #20
 8002f74:	46bd      	mov	sp, r7
 8002f76:	bd90      	pop	{r4, r7, pc}

08002f78 <wiz_recv_data>:

void wiz_recv_data(uint8_t sn, uint8_t *wizdata, uint16_t len)
{
 8002f78:	b590      	push	{r4, r7, lr}
 8002f7a:	b085      	sub	sp, #20
 8002f7c:	af00      	add	r7, sp, #0
 8002f7e:	4603      	mov	r3, r0
 8002f80:	6039      	str	r1, [r7, #0]
 8002f82:	71fb      	strb	r3, [r7, #7]
 8002f84:	4613      	mov	r3, r2
 8002f86:	80bb      	strh	r3, [r7, #4]
   uint16_t ptr = 0;
 8002f88:	2300      	movs	r3, #0
 8002f8a:	81fb      	strh	r3, [r7, #14]
   uint32_t addrsel = 0;
 8002f8c:	2300      	movs	r3, #0
 8002f8e:	60bb      	str	r3, [r7, #8]
   
   if(len == 0) return;
 8002f90:	88bb      	ldrh	r3, [r7, #4]
 8002f92:	2b00      	cmp	r3, #0
 8002f94:	d048      	beq.n	8003028 <wiz_recv_data+0xb0>
   ptr = getSn_RX_RD(sn);
 8002f96:	79fb      	ldrb	r3, [r7, #7]
 8002f98:	009b      	lsls	r3, r3, #2
 8002f9a:	3301      	adds	r3, #1
 8002f9c:	00db      	lsls	r3, r3, #3
 8002f9e:	f503 5320 	add.w	r3, r3, #10240	; 0x2800
 8002fa2:	4618      	mov	r0, r3
 8002fa4:	f7ff fd9c 	bl	8002ae0 <WIZCHIP_READ>
 8002fa8:	4603      	mov	r3, r0
 8002faa:	b29b      	uxth	r3, r3
 8002fac:	021b      	lsls	r3, r3, #8
 8002fae:	b29c      	uxth	r4, r3
 8002fb0:	79fb      	ldrb	r3, [r7, #7]
 8002fb2:	009b      	lsls	r3, r3, #2
 8002fb4:	3301      	adds	r3, #1
 8002fb6:	00db      	lsls	r3, r3, #3
 8002fb8:	f503 5324 	add.w	r3, r3, #10496	; 0x2900
 8002fbc:	4618      	mov	r0, r3
 8002fbe:	f7ff fd8f 	bl	8002ae0 <WIZCHIP_READ>
 8002fc2:	4603      	mov	r3, r0
 8002fc4:	b29b      	uxth	r3, r3
 8002fc6:	4423      	add	r3, r4
 8002fc8:	81fb      	strh	r3, [r7, #14]
   //M20140501 : implict type casting -> explict type casting
   //addrsel = ((ptr << 8) + (WIZCHIP_RXBUF_BLOCK(sn) << 3);
   addrsel = ((uint32_t)ptr << 8) + (WIZCHIP_RXBUF_BLOCK(sn) << 3);
 8002fca:	89fb      	ldrh	r3, [r7, #14]
 8002fcc:	021b      	lsls	r3, r3, #8
 8002fce:	79fa      	ldrb	r2, [r7, #7]
 8002fd0:	0092      	lsls	r2, r2, #2
 8002fd2:	3203      	adds	r2, #3
 8002fd4:	00d2      	lsls	r2, r2, #3
 8002fd6:	4413      	add	r3, r2
 8002fd8:	60bb      	str	r3, [r7, #8]

   WIZCHIP_READ_BUF(addrsel, wizdata, len);
 8002fda:	88bb      	ldrh	r3, [r7, #4]
 8002fdc:	461a      	mov	r2, r3
 8002fde:	6839      	ldr	r1, [r7, #0]
 8002fe0:	68b8      	ldr	r0, [r7, #8]
 8002fe2:	f7ff fe17 	bl	8002c14 <WIZCHIP_READ_BUF>
   ptr += len;
 8002fe6:	89fa      	ldrh	r2, [r7, #14]
 8002fe8:	88bb      	ldrh	r3, [r7, #4]
 8002fea:	4413      	add	r3, r2
 8002fec:	81fb      	strh	r3, [r7, #14]
   
   setSn_RX_RD(sn,ptr);
 8002fee:	79fb      	ldrb	r3, [r7, #7]
 8002ff0:	009b      	lsls	r3, r3, #2
 8002ff2:	3301      	adds	r3, #1
 8002ff4:	00db      	lsls	r3, r3, #3
 8002ff6:	f503 5320 	add.w	r3, r3, #10240	; 0x2800
 8002ffa:	461a      	mov	r2, r3
 8002ffc:	89fb      	ldrh	r3, [r7, #14]
 8002ffe:	0a1b      	lsrs	r3, r3, #8
 8003000:	b29b      	uxth	r3, r3
 8003002:	b2db      	uxtb	r3, r3
 8003004:	4619      	mov	r1, r3
 8003006:	4610      	mov	r0, r2
 8003008:	f7ff fdb6 	bl	8002b78 <WIZCHIP_WRITE>
 800300c:	79fb      	ldrb	r3, [r7, #7]
 800300e:	009b      	lsls	r3, r3, #2
 8003010:	3301      	adds	r3, #1
 8003012:	00db      	lsls	r3, r3, #3
 8003014:	f503 5324 	add.w	r3, r3, #10496	; 0x2900
 8003018:	461a      	mov	r2, r3
 800301a:	89fb      	ldrh	r3, [r7, #14]
 800301c:	b2db      	uxtb	r3, r3
 800301e:	4619      	mov	r1, r3
 8003020:	4610      	mov	r0, r2
 8003022:	f7ff fda9 	bl	8002b78 <WIZCHIP_WRITE>
 8003026:	e000      	b.n	800302a <wiz_recv_data+0xb2>
   if(len == 0) return;
 8003028:	bf00      	nop
}
 800302a:	3714      	adds	r7, #20
 800302c:	46bd      	mov	sp, r7
 800302e:	bd90      	pop	{r4, r7, pc}

08003030 <wizchip_cris_enter>:
 * @brief Default function to enable interrupt.
 * @note This function help not to access wrong address. If you do not describe this function or register any functions,
 * null function is called.
 */
//void 	  wizchip_cris_enter(void)           {};
void 	  wizchip_cris_enter(void)           {}
 8003030:	b480      	push	{r7}
 8003032:	af00      	add	r7, sp, #0
 8003034:	bf00      	nop
 8003036:	46bd      	mov	sp, r7
 8003038:	f85d 7b04 	ldr.w	r7, [sp], #4
 800303c:	4770      	bx	lr

0800303e <wizchip_cris_exit>:
 * @brief Default function to disable interrupt.
 * @note This function help not to access wrong address. If you do not describe this function or register any functions,
 * null function is called.
 */
//void 	  wizchip_cris_exit(void)          {};
void 	  wizchip_cris_exit(void)          {}
 800303e:	b480      	push	{r7}
 8003040:	af00      	add	r7, sp, #0
 8003042:	bf00      	nop
 8003044:	46bd      	mov	sp, r7
 8003046:	f85d 7b04 	ldr.w	r7, [sp], #4
 800304a:	4770      	bx	lr

0800304c <wizchip_cs_select>:
 * @brief Default function to select chip.
 * @note This function help not to access wrong address. If you do not describe this function or register any functions,
 * null function is called.
 */
//void 	wizchip_cs_select(void)            {};
void 	wizchip_cs_select(void)            {}
 800304c:	b480      	push	{r7}
 800304e:	af00      	add	r7, sp, #0
 8003050:	bf00      	nop
 8003052:	46bd      	mov	sp, r7
 8003054:	f85d 7b04 	ldr.w	r7, [sp], #4
 8003058:	4770      	bx	lr

0800305a <wizchip_cs_deselect>:
 * @brief Default function to deselect chip.
 * @note This function help not to access wrong address. If you do not describe this function or register any functions,
 * null function is called.
 */
//void 	wizchip_cs_deselect(void)          {};
void 	wizchip_cs_deselect(void)          {}
 800305a:	b480      	push	{r7}
 800305c:	af00      	add	r7, sp, #0
 800305e:	bf00      	nop
 8003060:	46bd      	mov	sp, r7
 8003062:	f85d 7b04 	ldr.w	r7, [sp], #4
 8003066:	4770      	bx	lr

08003068 <wizchip_bus_readdata>:
 * @note This function help not to access wrong address. If you do not describe this function or register any functions,
 * null function is called.
 */
 //M20150601 : Rename the function for integrating with W5300
//uint8_t wizchip_bus_readbyte(uint32_t AddrSel) { return * ((volatile uint8_t *)((ptrdiff_t) AddrSel)); }
iodata_t wizchip_bus_readdata(uint32_t AddrSel) { return * ((volatile iodata_t *)((ptrdiff_t) AddrSel)); }
 8003068:	b480      	push	{r7}
 800306a:	b083      	sub	sp, #12
 800306c:	af00      	add	r7, sp, #0
 800306e:	6078      	str	r0, [r7, #4]
 8003070:	687b      	ldr	r3, [r7, #4]
 8003072:	781b      	ldrb	r3, [r3, #0]
 8003074:	b2db      	uxtb	r3, r3
 8003076:	4618      	mov	r0, r3
 8003078:	370c      	adds	r7, #12
 800307a:	46bd      	mov	sp, r7
 800307c:	f85d 7b04 	ldr.w	r7, [sp], #4
 8003080:	4770      	bx	lr

08003082 <wizchip_bus_writedata>:
 * @note This function help not to access wrong address. If you do not describe this function or register any functions,
 * null function is called.
 */
//M20150601 : Rename the function for integrating with W5300
//void 	wizchip_bus_writebyte(uint32_t AddrSel, uint8_t wb)  { *((volatile uint8_t*)((ptrdiff_t)AddrSel)) = wb; }
void 	wizchip_bus_writedata(uint32_t AddrSel, iodata_t wb)  { *((volatile iodata_t*)((ptrdiff_t)AddrSel)) = wb; }
 8003082:	b480      	push	{r7}
 8003084:	b083      	sub	sp, #12
 8003086:	af00      	add	r7, sp, #0
 8003088:	6078      	str	r0, [r7, #4]
 800308a:	460b      	mov	r3, r1
 800308c:	70fb      	strb	r3, [r7, #3]
 800308e:	687b      	ldr	r3, [r7, #4]
 8003090:	78fa      	ldrb	r2, [r7, #3]
 8003092:	701a      	strb	r2, [r3, #0]
 8003094:	bf00      	nop
 8003096:	370c      	adds	r7, #12
 8003098:	46bd      	mov	sp, r7
 800309a:	f85d 7b04 	ldr.w	r7, [sp], #4
 800309e:	4770      	bx	lr

080030a0 <wizchip_spi_readbyte>:
 * @brief Default function to read in SPI interface.
 * @note This function help not to access wrong address. If you do not describe this function or register any functions,
 * null function is called.
 */
//uint8_t wizchip_spi_readbyte(void)        {return 0;};
uint8_t wizchip_spi_readbyte(void)        {return 0;}
 80030a0:	b480      	push	{r7}
 80030a2:	af00      	add	r7, sp, #0
 80030a4:	2300      	movs	r3, #0
 80030a6:	4618      	mov	r0, r3
 80030a8:	46bd      	mov	sp, r7
 80030aa:	f85d 7b04 	ldr.w	r7, [sp], #4
 80030ae:	4770      	bx	lr

080030b0 <wizchip_spi_writebyte>:
 * @brief Default function to write in SPI interface.
 * @note This function help not to access wrong address. If you do not describe this function or register any functions,
 * null function is called.
 */
//void 	wizchip_spi_writebyte(uint8_t wb) {};
void 	wizchip_spi_writebyte(uint8_t wb) {}
 80030b0:	b480      	push	{r7}
 80030b2:	b083      	sub	sp, #12
 80030b4:	af00      	add	r7, sp, #0
 80030b6:	4603      	mov	r3, r0
 80030b8:	71fb      	strb	r3, [r7, #7]
 80030ba:	bf00      	nop
 80030bc:	370c      	adds	r7, #12
 80030be:	46bd      	mov	sp, r7
 80030c0:	f85d 7b04 	ldr.w	r7, [sp], #4
 80030c4:	4770      	bx	lr
	...

080030c8 <reg_wizchip_cs_cbfunc>:
      WIZCHIP.CRIS._exit  = cris_ex;
   }
}

void reg_wizchip_cs_cbfunc(void(*cs_sel)(void), void(*cs_desel)(void))
{
 80030c8:	b480      	push	{r7}
 80030ca:	b083      	sub	sp, #12
 80030cc:	af00      	add	r7, sp, #0
 80030ce:	6078      	str	r0, [r7, #4]
 80030d0:	6039      	str	r1, [r7, #0]
   if(!cs_sel || !cs_desel)
 80030d2:	687b      	ldr	r3, [r7, #4]
 80030d4:	2b00      	cmp	r3, #0
 80030d6:	d002      	beq.n	80030de <reg_wizchip_cs_cbfunc+0x16>
 80030d8:	683b      	ldr	r3, [r7, #0]
 80030da:	2b00      	cmp	r3, #0
 80030dc:	d106      	bne.n	80030ec <reg_wizchip_cs_cbfunc+0x24>
   {
      WIZCHIP.CS._select   = wizchip_cs_select;
 80030de:	4b0a      	ldr	r3, [pc, #40]	; (8003108 <reg_wizchip_cs_cbfunc+0x40>)
 80030e0:	4a0a      	ldr	r2, [pc, #40]	; (800310c <reg_wizchip_cs_cbfunc+0x44>)
 80030e2:	615a      	str	r2, [r3, #20]
      WIZCHIP.CS._deselect = wizchip_cs_deselect;
 80030e4:	4b08      	ldr	r3, [pc, #32]	; (8003108 <reg_wizchip_cs_cbfunc+0x40>)
 80030e6:	4a0a      	ldr	r2, [pc, #40]	; (8003110 <reg_wizchip_cs_cbfunc+0x48>)
 80030e8:	619a      	str	r2, [r3, #24]
 80030ea:	e006      	b.n	80030fa <reg_wizchip_cs_cbfunc+0x32>
   }
   else
   {
      WIZCHIP.CS._select   = cs_sel;
 80030ec:	4a06      	ldr	r2, [pc, #24]	; (8003108 <reg_wizchip_cs_cbfunc+0x40>)
 80030ee:	687b      	ldr	r3, [r7, #4]
 80030f0:	6153      	str	r3, [r2, #20]
      WIZCHIP.CS._deselect = cs_desel;
 80030f2:	4a05      	ldr	r2, [pc, #20]	; (8003108 <reg_wizchip_cs_cbfunc+0x40>)
 80030f4:	683b      	ldr	r3, [r7, #0]
 80030f6:	6193      	str	r3, [r2, #24]
   }
}
 80030f8:	bf00      	nop
 80030fa:	bf00      	nop
 80030fc:	370c      	adds	r7, #12
 80030fe:	46bd      	mov	sp, r7
 8003100:	f85d 7b04 	ldr.w	r7, [sp], #4
 8003104:	4770      	bx	lr
 8003106:	bf00      	nop
 8003108:	20001810 	.word	0x20001810
 800310c:	0800304d 	.word	0x0800304d
 8003110:	0800305b 	.word	0x0800305b

08003114 <reg_wizchip_spi_cbfunc>:
      WIZCHIP.IF.BUS._write_data  = bus_wb;
   }
}

void reg_wizchip_spi_cbfunc(uint8_t (*spi_rb)(void), void (*spi_wb)(uint8_t wb))
{
 8003114:	b480      	push	{r7}
 8003116:	b083      	sub	sp, #12
 8003118:	af00      	add	r7, sp, #0
 800311a:	6078      	str	r0, [r7, #4]
 800311c:	6039      	str	r1, [r7, #0]
   while(!(WIZCHIP.if_mode & _WIZCHIP_IO_MODE_SPI_));
 800311e:	bf00      	nop
 8003120:	4b0f      	ldr	r3, [pc, #60]	; (8003160 <reg_wizchip_spi_cbfunc+0x4c>)
 8003122:	881b      	ldrh	r3, [r3, #0]
 8003124:	f403 7300 	and.w	r3, r3, #512	; 0x200
 8003128:	2b00      	cmp	r3, #0
 800312a:	d0f9      	beq.n	8003120 <reg_wizchip_spi_cbfunc+0xc>
   
   if(!spi_rb || !spi_wb)
 800312c:	687b      	ldr	r3, [r7, #4]
 800312e:	2b00      	cmp	r3, #0
 8003130:	d002      	beq.n	8003138 <reg_wizchip_spi_cbfunc+0x24>
 8003132:	683b      	ldr	r3, [r7, #0]
 8003134:	2b00      	cmp	r3, #0
 8003136:	d106      	bne.n	8003146 <reg_wizchip_spi_cbfunc+0x32>
   {
      WIZCHIP.IF.SPI._read_byte   = wizchip_spi_readbyte;
 8003138:	4b09      	ldr	r3, [pc, #36]	; (8003160 <reg_wizchip_spi_cbfunc+0x4c>)
 800313a:	4a0a      	ldr	r2, [pc, #40]	; (8003164 <reg_wizchip_spi_cbfunc+0x50>)
 800313c:	61da      	str	r2, [r3, #28]
      WIZCHIP.IF.SPI._write_byte  = wizchip_spi_writebyte;
 800313e:	4b08      	ldr	r3, [pc, #32]	; (8003160 <reg_wizchip_spi_cbfunc+0x4c>)
 8003140:	4a09      	ldr	r2, [pc, #36]	; (8003168 <reg_wizchip_spi_cbfunc+0x54>)
 8003142:	621a      	str	r2, [r3, #32]
 8003144:	e006      	b.n	8003154 <reg_wizchip_spi_cbfunc+0x40>
   }
   else
   {
      WIZCHIP.IF.SPI._read_byte   = spi_rb;
 8003146:	4a06      	ldr	r2, [pc, #24]	; (8003160 <reg_wizchip_spi_cbfunc+0x4c>)
 8003148:	687b      	ldr	r3, [r7, #4]
 800314a:	61d3      	str	r3, [r2, #28]
      WIZCHIP.IF.SPI._write_byte  = spi_wb;
 800314c:	4a04      	ldr	r2, [pc, #16]	; (8003160 <reg_wizchip_spi_cbfunc+0x4c>)
 800314e:	683b      	ldr	r3, [r7, #0]
 8003150:	6213      	str	r3, [r2, #32]
   }
}
 8003152:	bf00      	nop
 8003154:	bf00      	nop
 8003156:	370c      	adds	r7, #12
 8003158:	46bd      	mov	sp, r7
 800315a:	f85d 7b04 	ldr.w	r7, [sp], #4
 800315e:	4770      	bx	lr
 8003160:	20001810 	.word	0x20001810
 8003164:	080030a1 	.word	0x080030a1
 8003168:	080030b1 	.word	0x080030b1

0800316c <ctlwizchip>:
      WIZCHIP.IF.SPI._write_burst  = spi_wb;
   }
}

int8_t ctlwizchip(ctlwizchip_type cwtype, void* arg)
{
 800316c:	b590      	push	{r4, r7, lr}
 800316e:	b087      	sub	sp, #28
 8003170:	af00      	add	r7, sp, #0
 8003172:	4603      	mov	r3, r0
 8003174:	6039      	str	r1, [r7, #0]
 8003176:	71fb      	strb	r3, [r7, #7]
#if	_WIZCHIP_ == W5100S || _WIZCHIP_ == W5200 || _WIZCHIP_ == W5500
   uint8_t tmp = 0;
 8003178:	2300      	movs	r3, #0
 800317a:	75fb      	strb	r3, [r7, #23]
#endif
   uint8_t* ptmp[2] = {0,0};
 800317c:	2300      	movs	r3, #0
 800317e:	60fb      	str	r3, [r7, #12]
 8003180:	2300      	movs	r3, #0
 8003182:	613b      	str	r3, [r7, #16]
   switch(cwtype)
 8003184:	79fb      	ldrb	r3, [r7, #7]
 8003186:	2b0f      	cmp	r3, #15
 8003188:	f200 80c2 	bhi.w	8003310 <ctlwizchip+0x1a4>
 800318c:	a201      	add	r2, pc, #4	; (adr r2, 8003194 <ctlwizchip+0x28>)
 800318e:	f852 f023 	ldr.w	pc, [r2, r3, lsl #2]
 8003192:	bf00      	nop
 8003194:	080031d5 	.word	0x080031d5
 8003198:	080031db 	.word	0x080031db
 800319c:	08003207 	.word	0x08003207
 80031a0:	080031fb 	.word	0x080031fb
 80031a4:	08003215 	.word	0x08003215
 80031a8:	08003221 	.word	0x08003221
 80031ac:	0800322f 	.word	0x0800322f
 80031b0:	08003255 	.word	0x08003255
 80031b4:	0800327b 	.word	0x0800327b
 80031b8:	080032b5 	.word	0x080032b5
 80031bc:	080032bb 	.word	0x080032bb
 80031c0:	080032c3 	.word	0x080032c3
 80031c4:	08003317 	.word	0x08003317
 80031c8:	080032cb 	.word	0x080032cb
 80031cc:	080032d9 	.word	0x080032d9
 80031d0:	080032f5 	.word	0x080032f5
   {
      case CW_RESET_WIZCHIP:
         wizchip_sw_reset();
 80031d4:	f000 f8a8 	bl	8003328 <wizchip_sw_reset>
         break;
 80031d8:	e09e      	b.n	8003318 <ctlwizchip+0x1ac>
      case CW_INIT_WIZCHIP:
         if(arg != 0) 
 80031da:	683b      	ldr	r3, [r7, #0]
 80031dc:	2b00      	cmp	r3, #0
 80031de:	d004      	beq.n	80031ea <ctlwizchip+0x7e>
         {
            ptmp[0] = (uint8_t*)arg;
 80031e0:	683b      	ldr	r3, [r7, #0]
 80031e2:	60fb      	str	r3, [r7, #12]
            ptmp[1] = ptmp[0] + _WIZCHIP_SOCK_NUM_;
 80031e4:	68fb      	ldr	r3, [r7, #12]
 80031e6:	3308      	adds	r3, #8
 80031e8:	613b      	str	r3, [r7, #16]
         }
         return wizchip_init(ptmp[0], ptmp[1]);
 80031ea:	68fb      	ldr	r3, [r7, #12]
 80031ec:	693a      	ldr	r2, [r7, #16]
 80031ee:	4611      	mov	r1, r2
 80031f0:	4618      	mov	r0, r3
 80031f2:	f000 f8e5 	bl	80033c0 <wizchip_init>
 80031f6:	4603      	mov	r3, r0
 80031f8:	e08f      	b.n	800331a <ctlwizchip+0x1ae>
      case CW_CLR_INTERRUPT:
         wizchip_clrinterrupt(*((intr_kind*)arg));
 80031fa:	683b      	ldr	r3, [r7, #0]
 80031fc:	881b      	ldrh	r3, [r3, #0]
 80031fe:	4618      	mov	r0, r3
 8003200:	f000 f96a 	bl	80034d8 <wizchip_clrinterrupt>
         break;
 8003204:	e088      	b.n	8003318 <ctlwizchip+0x1ac>
      case CW_GET_INTERRUPT:
        *((intr_kind*)arg) = wizchip_getinterrupt();
 8003206:	f000 f99b 	bl	8003540 <wizchip_getinterrupt>
 800320a:	4603      	mov	r3, r0
 800320c:	461a      	mov	r2, r3
 800320e:	683b      	ldr	r3, [r7, #0]
 8003210:	801a      	strh	r2, [r3, #0]
         break;
 8003212:	e081      	b.n	8003318 <ctlwizchip+0x1ac>
      case CW_SET_INTRMASK:
         wizchip_setinterruptmask(*((intr_kind*)arg));
 8003214:	683b      	ldr	r3, [r7, #0]
 8003216:	881b      	ldrh	r3, [r3, #0]
 8003218:	4618      	mov	r0, r3
 800321a:	f000 f9b6 	bl	800358a <wizchip_setinterruptmask>
         break;         
 800321e:	e07b      	b.n	8003318 <ctlwizchip+0x1ac>
      case CW_GET_INTRMASK:
         *((intr_kind*)arg) = wizchip_getinterruptmask();
 8003220:	f000 f9ce 	bl	80035c0 <wizchip_getinterruptmask>
 8003224:	4603      	mov	r3, r0
 8003226:	461a      	mov	r2, r3
 8003228:	683b      	ldr	r3, [r7, #0]
 800322a:	801a      	strh	r2, [r3, #0]
         break;
 800322c:	e074      	b.n	8003318 <ctlwizchip+0x1ac>
   //M20150601 : This can be supported by W5200, W5500
   //#if _WIZCHIP_ > W5100
   #if (_WIZCHIP_ == W5200 || _WIZCHIP_ == W5500)
      case CW_SET_INTRTIME:
         setINTLEVEL(*(uint16_t*)arg);
 800322e:	683b      	ldr	r3, [r7, #0]
 8003230:	881b      	ldrh	r3, [r3, #0]
 8003232:	0a1b      	lsrs	r3, r3, #8
 8003234:	b29b      	uxth	r3, r3
 8003236:	b2db      	uxtb	r3, r3
 8003238:	4619      	mov	r1, r3
 800323a:	f44f 5098 	mov.w	r0, #4864	; 0x1300
 800323e:	f7ff fc9b 	bl	8002b78 <WIZCHIP_WRITE>
 8003242:	683b      	ldr	r3, [r7, #0]
 8003244:	881b      	ldrh	r3, [r3, #0]
 8003246:	b2db      	uxtb	r3, r3
 8003248:	4619      	mov	r1, r3
 800324a:	f44f 50a0 	mov.w	r0, #5120	; 0x1400
 800324e:	f7ff fc93 	bl	8002b78 <WIZCHIP_WRITE>
         break;
 8003252:	e061      	b.n	8003318 <ctlwizchip+0x1ac>
      case CW_GET_INTRTIME:
         *(uint16_t*)arg = getINTLEVEL();
 8003254:	f44f 5098 	mov.w	r0, #4864	; 0x1300
 8003258:	f7ff fc42 	bl	8002ae0 <WIZCHIP_READ>
 800325c:	4603      	mov	r3, r0
 800325e:	b29b      	uxth	r3, r3
 8003260:	021b      	lsls	r3, r3, #8
 8003262:	b29c      	uxth	r4, r3
 8003264:	f44f 50a0 	mov.w	r0, #5120	; 0x1400
 8003268:	f7ff fc3a 	bl	8002ae0 <WIZCHIP_READ>
 800326c:	4603      	mov	r3, r0
 800326e:	b29b      	uxth	r3, r3
 8003270:	4423      	add	r3, r4
 8003272:	b29a      	uxth	r2, r3
 8003274:	683b      	ldr	r3, [r7, #0]
 8003276:	801a      	strh	r2, [r3, #0]
         break;
 8003278:	e04e      	b.n	8003318 <ctlwizchip+0x1ac>
   #endif
      case CW_GET_ID:
         ((uint8_t*)arg)[0] = WIZCHIP.id[0];
 800327a:	4b2a      	ldr	r3, [pc, #168]	; (8003324 <ctlwizchip+0x1b8>)
 800327c:	789a      	ldrb	r2, [r3, #2]
 800327e:	683b      	ldr	r3, [r7, #0]
 8003280:	701a      	strb	r2, [r3, #0]
         ((uint8_t*)arg)[1] = WIZCHIP.id[1];
 8003282:	683b      	ldr	r3, [r7, #0]
 8003284:	3301      	adds	r3, #1
 8003286:	4a27      	ldr	r2, [pc, #156]	; (8003324 <ctlwizchip+0x1b8>)
 8003288:	78d2      	ldrb	r2, [r2, #3]
 800328a:	701a      	strb	r2, [r3, #0]
         ((uint8_t*)arg)[2] = WIZCHIP.id[2];
 800328c:	683b      	ldr	r3, [r7, #0]
 800328e:	3302      	adds	r3, #2
 8003290:	4a24      	ldr	r2, [pc, #144]	; (8003324 <ctlwizchip+0x1b8>)
 8003292:	7912      	ldrb	r2, [r2, #4]
 8003294:	701a      	strb	r2, [r3, #0]
         ((uint8_t*)arg)[3] = WIZCHIP.id[3];
 8003296:	683b      	ldr	r3, [r7, #0]
 8003298:	3303      	adds	r3, #3
 800329a:	4a22      	ldr	r2, [pc, #136]	; (8003324 <ctlwizchip+0x1b8>)
 800329c:	7952      	ldrb	r2, [r2, #5]
 800329e:	701a      	strb	r2, [r3, #0]
         ((uint8_t*)arg)[4] = WIZCHIP.id[4];
 80032a0:	683b      	ldr	r3, [r7, #0]
 80032a2:	3304      	adds	r3, #4
 80032a4:	4a1f      	ldr	r2, [pc, #124]	; (8003324 <ctlwizchip+0x1b8>)
 80032a6:	7992      	ldrb	r2, [r2, #6]
 80032a8:	701a      	strb	r2, [r3, #0]
         ((uint8_t*)arg)[5] = 0;
 80032aa:	683b      	ldr	r3, [r7, #0]
 80032ac:	3305      	adds	r3, #5
 80032ae:	2200      	movs	r2, #0
 80032b0:	701a      	strb	r2, [r3, #0]
         break;
 80032b2:	e031      	b.n	8003318 <ctlwizchip+0x1ac>
   #if _WIZCHIP_ == W5100S || _WIZCHIP_ == W5500
      case CW_RESET_PHY:
         wizphy_reset();
 80032b4:	f000 f9d6 	bl	8003664 <wizphy_reset>
         break;
 80032b8:	e02e      	b.n	8003318 <ctlwizchip+0x1ac>
      case CW_SET_PHYCONF:
         wizphy_setphyconf((wiz_PhyConf*)arg);
 80032ba:	6838      	ldr	r0, [r7, #0]
 80032bc:	f000 f9f9 	bl	80036b2 <wizphy_setphyconf>
         break;
 80032c0:	e02a      	b.n	8003318 <ctlwizchip+0x1ac>
      case CW_GET_PHYCONF:
         wizphy_getphyconf((wiz_PhyConf*)arg);
 80032c2:	6838      	ldr	r0, [r7, #0]
 80032c4:	f000 fa37 	bl	8003736 <wizphy_getphyconf>
         break;
 80032c8:	e026      	b.n	8003318 <ctlwizchip+0x1ac>
      case CW_GET_PHYSTATUS:
         break;
      case CW_SET_PHYPOWMODE:
         return wizphy_setphypmode(*(uint8_t*)arg);
 80032ca:	683b      	ldr	r3, [r7, #0]
 80032cc:	781b      	ldrb	r3, [r3, #0]
 80032ce:	4618      	mov	r0, r3
 80032d0:	f000 fa9a 	bl	8003808 <wizphy_setphypmode>
 80032d4:	4603      	mov	r3, r0
 80032d6:	e020      	b.n	800331a <ctlwizchip+0x1ae>
   #endif
   #if _WIZCHIP_ == W5100S || _WIZCHIP_ == W5200 || _WIZCHIP_ == W5500
      case CW_GET_PHYPOWMODE:
         tmp = wizphy_getphypmode();
 80032d8:	f000 f9ab 	bl	8003632 <wizphy_getphypmode>
 80032dc:	4603      	mov	r3, r0
 80032de:	75fb      	strb	r3, [r7, #23]
         if((int8_t)tmp == -1) return -1;
 80032e0:	7dfb      	ldrb	r3, [r7, #23]
 80032e2:	2bff      	cmp	r3, #255	; 0xff
 80032e4:	d102      	bne.n	80032ec <ctlwizchip+0x180>
 80032e6:	f04f 33ff 	mov.w	r3, #4294967295
 80032ea:	e016      	b.n	800331a <ctlwizchip+0x1ae>
         *(uint8_t*)arg = tmp;
 80032ec:	683b      	ldr	r3, [r7, #0]
 80032ee:	7dfa      	ldrb	r2, [r7, #23]
 80032f0:	701a      	strb	r2, [r3, #0]
         break;
 80032f2:	e011      	b.n	8003318 <ctlwizchip+0x1ac>
      case CW_GET_PHYLINK:
         tmp = wizphy_getphylink();
 80032f4:	f000 f987 	bl	8003606 <wizphy_getphylink>
 80032f8:	4603      	mov	r3, r0
 80032fa:	75fb      	strb	r3, [r7, #23]
         if((int8_t)tmp == -1) return -1;
 80032fc:	7dfb      	ldrb	r3, [r7, #23]
 80032fe:	2bff      	cmp	r3, #255	; 0xff
 8003300:	d102      	bne.n	8003308 <ctlwizchip+0x19c>
 8003302:	f04f 33ff 	mov.w	r3, #4294967295
 8003306:	e008      	b.n	800331a <ctlwizchip+0x1ae>
         *(uint8_t*)arg = tmp;
 8003308:	683b      	ldr	r3, [r7, #0]
 800330a:	7dfa      	ldrb	r2, [r7, #23]
 800330c:	701a      	strb	r2, [r3, #0]
         break;
 800330e:	e003      	b.n	8003318 <ctlwizchip+0x1ac>
   #endif      
      default:
         return -1;
 8003310:	f04f 33ff 	mov.w	r3, #4294967295
 8003314:	e001      	b.n	800331a <ctlwizchip+0x1ae>
         break;
 8003316:	bf00      	nop
   }
   return 0;
 8003318:	2300      	movs	r3, #0
}
 800331a:	4618      	mov	r0, r3
 800331c:	371c      	adds	r7, #28
 800331e:	46bd      	mov	sp, r7
 8003320:	bd90      	pop	{r4, r7, pc}
 8003322:	bf00      	nop
 8003324:	20001810 	.word	0x20001810

08003328 <wizchip_sw_reset>:
   }
   return 0;
}

void wizchip_sw_reset(void)
{
 8003328:	b580      	push	{r7, lr}
 800332a:	b086      	sub	sp, #24
 800332c:	af00      	add	r7, sp, #0
#if _WIZCHIP_IO_MODE_  == _WIZCHIP_IO_MODE_BUS_INDIR_
   uint16_t mr = (uint16_t)getMR();
   setMR(mr | MR_IND);
#endif
//
   getSHAR(mac);
 800332e:	1d3b      	adds	r3, r7, #4
 8003330:	2206      	movs	r2, #6
 8003332:	4619      	mov	r1, r3
 8003334:	f44f 6010 	mov.w	r0, #2304	; 0x900
 8003338:	f7ff fc6c 	bl	8002c14 <WIZCHIP_READ_BUF>
   getGAR(gw);  getSUBR(sn);  getSIPR(sip);
 800333c:	f107 0314 	add.w	r3, r7, #20
 8003340:	2204      	movs	r2, #4
 8003342:	4619      	mov	r1, r3
 8003344:	f44f 7080 	mov.w	r0, #256	; 0x100
 8003348:	f7ff fc64 	bl	8002c14 <WIZCHIP_READ_BUF>
 800334c:	f107 0310 	add.w	r3, r7, #16
 8003350:	2204      	movs	r2, #4
 8003352:	4619      	mov	r1, r3
 8003354:	f44f 60a0 	mov.w	r0, #1280	; 0x500
 8003358:	f7ff fc5c 	bl	8002c14 <WIZCHIP_READ_BUF>
 800335c:	f107 030c 	add.w	r3, r7, #12
 8003360:	2204      	movs	r2, #4
 8003362:	4619      	mov	r1, r3
 8003364:	f44f 6070 	mov.w	r0, #3840	; 0xf00
 8003368:	f7ff fc54 	bl	8002c14 <WIZCHIP_READ_BUF>
   setMR(MR_RST);
 800336c:	2180      	movs	r1, #128	; 0x80
 800336e:	2000      	movs	r0, #0
 8003370:	f7ff fc02 	bl	8002b78 <WIZCHIP_WRITE>
   getMR(); // for delay
 8003374:	2000      	movs	r0, #0
 8003376:	f7ff fbb3 	bl	8002ae0 <WIZCHIP_READ>
//A2015051 : For indirect bus mode 
#if _WIZCHIP_IO_MODE_  == _WIZCHIP_IO_MODE_BUS_INDIR_
   setMR(mr | MR_IND);
#endif
//
   setSHAR(mac);
 800337a:	1d3b      	adds	r3, r7, #4
 800337c:	2206      	movs	r2, #6
 800337e:	4619      	mov	r1, r3
 8003380:	f44f 6010 	mov.w	r0, #2304	; 0x900
 8003384:	f7ff fca6 	bl	8002cd4 <WIZCHIP_WRITE_BUF>
   setGAR(gw);
 8003388:	f107 0314 	add.w	r3, r7, #20
 800338c:	2204      	movs	r2, #4
 800338e:	4619      	mov	r1, r3
 8003390:	f44f 7080 	mov.w	r0, #256	; 0x100
 8003394:	f7ff fc9e 	bl	8002cd4 <WIZCHIP_WRITE_BUF>
   setSUBR(sn);
 8003398:	f107 0310 	add.w	r3, r7, #16
 800339c:	2204      	movs	r2, #4
 800339e:	4619      	mov	r1, r3
 80033a0:	f44f 60a0 	mov.w	r0, #1280	; 0x500
 80033a4:	f7ff fc96 	bl	8002cd4 <WIZCHIP_WRITE_BUF>
   setSIPR(sip);
 80033a8:	f107 030c 	add.w	r3, r7, #12
 80033ac:	2204      	movs	r2, #4
 80033ae:	4619      	mov	r1, r3
 80033b0:	f44f 6070 	mov.w	r0, #3840	; 0xf00
 80033b4:	f7ff fc8e 	bl	8002cd4 <WIZCHIP_WRITE_BUF>
}
 80033b8:	bf00      	nop
 80033ba:	3718      	adds	r7, #24
 80033bc:	46bd      	mov	sp, r7
 80033be:	bd80      	pop	{r7, pc}

080033c0 <wizchip_init>:

int8_t wizchip_init(uint8_t* txsize, uint8_t* rxsize)
{
 80033c0:	b580      	push	{r7, lr}
 80033c2:	b084      	sub	sp, #16
 80033c4:	af00      	add	r7, sp, #0
 80033c6:	6078      	str	r0, [r7, #4]
 80033c8:	6039      	str	r1, [r7, #0]
   int8_t i;
#if _WIZCHIP_ < W5200
   int8_t j;
#endif
   int8_t tmp = 0;
 80033ca:	2300      	movs	r3, #0
 80033cc:	73bb      	strb	r3, [r7, #14]
   wizchip_sw_reset();
 80033ce:	f7ff ffab 	bl	8003328 <wizchip_sw_reset>
   if(txsize)
 80033d2:	687b      	ldr	r3, [r7, #4]
 80033d4:	2b00      	cmp	r3, #0
 80033d6:	d03b      	beq.n	8003450 <wizchip_init+0x90>
   {
      tmp = 0;
 80033d8:	2300      	movs	r3, #0
 80033da:	73bb      	strb	r3, [r7, #14]
			tmp += txsize[i];
			if(tmp > 128) return -1;
		}
		if(tmp % 8) return -1;
   #else
		for(i = 0 ; i < _WIZCHIP_SOCK_NUM_; i++)
 80033dc:	2300      	movs	r3, #0
 80033de:	73fb      	strb	r3, [r7, #15]
 80033e0:	e015      	b.n	800340e <wizchip_init+0x4e>
		{
			tmp += txsize[i];
 80033e2:	f997 300f 	ldrsb.w	r3, [r7, #15]
 80033e6:	687a      	ldr	r2, [r7, #4]
 80033e8:	4413      	add	r3, r2
 80033ea:	781a      	ldrb	r2, [r3, #0]
 80033ec:	7bbb      	ldrb	r3, [r7, #14]
 80033ee:	4413      	add	r3, r2
 80033f0:	b2db      	uxtb	r3, r3
 80033f2:	73bb      	strb	r3, [r7, #14]

		#if _WIZCHIP_ < W5200	//2016.10.28 peter add condition for w5100 and w5100s
			if(tmp > 8) return -1;
		#else
			if(tmp > 16) return -1;
 80033f4:	f997 300e 	ldrsb.w	r3, [r7, #14]
 80033f8:	2b10      	cmp	r3, #16
 80033fa:	dd02      	ble.n	8003402 <wizchip_init+0x42>
 80033fc:	f04f 33ff 	mov.w	r3, #4294967295
 8003400:	e066      	b.n	80034d0 <wizchip_init+0x110>
		for(i = 0 ; i < _WIZCHIP_SOCK_NUM_; i++)
 8003402:	f997 300f 	ldrsb.w	r3, [r7, #15]
 8003406:	b2db      	uxtb	r3, r3
 8003408:	3301      	adds	r3, #1
 800340a:	b2db      	uxtb	r3, r3
 800340c:	73fb      	strb	r3, [r7, #15]
 800340e:	f997 300f 	ldrsb.w	r3, [r7, #15]
 8003412:	2b07      	cmp	r3, #7
 8003414:	dde5      	ble.n	80033e2 <wizchip_init+0x22>
		#endif
		}
		for(i = 0 ; i < _WIZCHIP_SOCK_NUM_; i++)
 8003416:	2300      	movs	r3, #0
 8003418:	73fb      	strb	r3, [r7, #15]
 800341a:	e015      	b.n	8003448 <wizchip_init+0x88>
		#if _WIZCHIP_ < W5200	//2016.10.28 peter add condition for w5100
			j = 0;
			while((txsize[i] >> j != 1)&&(txsize[i] !=0)){j++;}
			setSn_TXBUF_SIZE(i, j);
		#else
			setSn_TXBUF_SIZE(i, txsize[i]);
 800341c:	f997 300f 	ldrsb.w	r3, [r7, #15]
 8003420:	009b      	lsls	r3, r3, #2
 8003422:	3301      	adds	r3, #1
 8003424:	00db      	lsls	r3, r3, #3
 8003426:	f503 53f8 	add.w	r3, r3, #7936	; 0x1f00
 800342a:	4618      	mov	r0, r3
 800342c:	f997 300f 	ldrsb.w	r3, [r7, #15]
 8003430:	687a      	ldr	r2, [r7, #4]
 8003432:	4413      	add	r3, r2
 8003434:	781b      	ldrb	r3, [r3, #0]
 8003436:	4619      	mov	r1, r3
 8003438:	f7ff fb9e 	bl	8002b78 <WIZCHIP_WRITE>
		for(i = 0 ; i < _WIZCHIP_SOCK_NUM_; i++)
 800343c:	f997 300f 	ldrsb.w	r3, [r7, #15]
 8003440:	b2db      	uxtb	r3, r3
 8003442:	3301      	adds	r3, #1
 8003444:	b2db      	uxtb	r3, r3
 8003446:	73fb      	strb	r3, [r7, #15]
 8003448:	f997 300f 	ldrsb.w	r3, [r7, #15]
 800344c:	2b07      	cmp	r3, #7
 800344e:	dde5      	ble.n	800341c <wizchip_init+0x5c>
		}

	#endif
   }

   if(rxsize)
 8003450:	683b      	ldr	r3, [r7, #0]
 8003452:	2b00      	cmp	r3, #0
 8003454:	d03b      	beq.n	80034ce <wizchip_init+0x10e>
   {
      tmp = 0;
 8003456:	2300      	movs	r3, #0
 8003458:	73bb      	strb	r3, [r7, #14]
			tmp += rxsize[i];
			if(tmp > 128) return -1;
		}
		if(tmp % 8) return -1;
   #else
		for(i = 0 ; i < _WIZCHIP_SOCK_NUM_; i++)
 800345a:	2300      	movs	r3, #0
 800345c:	73fb      	strb	r3, [r7, #15]
 800345e:	e015      	b.n	800348c <wizchip_init+0xcc>
		{
			tmp += rxsize[i];
 8003460:	f997 300f 	ldrsb.w	r3, [r7, #15]
 8003464:	683a      	ldr	r2, [r7, #0]
 8003466:	4413      	add	r3, r2
 8003468:	781a      	ldrb	r2, [r3, #0]
 800346a:	7bbb      	ldrb	r3, [r7, #14]
 800346c:	4413      	add	r3, r2
 800346e:	b2db      	uxtb	r3, r3
 8003470:	73bb      	strb	r3, [r7, #14]
		#if _WIZCHIP_ < W5200	//2016.10.28 peter add condition for w5100 and w5100s
			if(tmp > 8) return -1;
		#else
			if(tmp > 16) return -1;
 8003472:	f997 300e 	ldrsb.w	r3, [r7, #14]
 8003476:	2b10      	cmp	r3, #16
 8003478:	dd02      	ble.n	8003480 <wizchip_init+0xc0>
 800347a:	f04f 33ff 	mov.w	r3, #4294967295
 800347e:	e027      	b.n	80034d0 <wizchip_init+0x110>
		for(i = 0 ; i < _WIZCHIP_SOCK_NUM_; i++)
 8003480:	f997 300f 	ldrsb.w	r3, [r7, #15]
 8003484:	b2db      	uxtb	r3, r3
 8003486:	3301      	adds	r3, #1
 8003488:	b2db      	uxtb	r3, r3
 800348a:	73fb      	strb	r3, [r7, #15]
 800348c:	f997 300f 	ldrsb.w	r3, [r7, #15]
 8003490:	2b07      	cmp	r3, #7
 8003492:	dde5      	ble.n	8003460 <wizchip_init+0xa0>
		#endif
		}

		for(i = 0 ; i < _WIZCHIP_SOCK_NUM_; i++)
 8003494:	2300      	movs	r3, #0
 8003496:	73fb      	strb	r3, [r7, #15]
 8003498:	e015      	b.n	80034c6 <wizchip_init+0x106>
		#if _WIZCHIP_ < W5200	// add condition for w5100
			j = 0;
			while((rxsize[i] >> j != 1)&&(txsize[i] !=0)){j++;}
			setSn_RXBUF_SIZE(i, j);
		#else
			setSn_RXBUF_SIZE(i, rxsize[i]);
 800349a:	f997 300f 	ldrsb.w	r3, [r7, #15]
 800349e:	009b      	lsls	r3, r3, #2
 80034a0:	3301      	adds	r3, #1
 80034a2:	00db      	lsls	r3, r3, #3
 80034a4:	f503 53f0 	add.w	r3, r3, #7680	; 0x1e00
 80034a8:	4618      	mov	r0, r3
 80034aa:	f997 300f 	ldrsb.w	r3, [r7, #15]
 80034ae:	683a      	ldr	r2, [r7, #0]
 80034b0:	4413      	add	r3, r2
 80034b2:	781b      	ldrb	r3, [r3, #0]
 80034b4:	4619      	mov	r1, r3
 80034b6:	f7ff fb5f 	bl	8002b78 <WIZCHIP_WRITE>
		for(i = 0 ; i < _WIZCHIP_SOCK_NUM_; i++)
 80034ba:	f997 300f 	ldrsb.w	r3, [r7, #15]
 80034be:	b2db      	uxtb	r3, r3
 80034c0:	3301      	adds	r3, #1
 80034c2:	b2db      	uxtb	r3, r3
 80034c4:	73fb      	strb	r3, [r7, #15]
 80034c6:	f997 300f 	ldrsb.w	r3, [r7, #15]
 80034ca:	2b07      	cmp	r3, #7
 80034cc:	dde5      	ble.n	800349a <wizchip_init+0xda>
		#endif
		}
	#endif
   }
   return 0;
 80034ce:	2300      	movs	r3, #0
}
 80034d0:	4618      	mov	r0, r3
 80034d2:	3710      	adds	r7, #16
 80034d4:	46bd      	mov	sp, r7
 80034d6:	bd80      	pop	{r7, pc}

080034d8 <wizchip_clrinterrupt>:

void wizchip_clrinterrupt(intr_kind intr)
{
 80034d8:	b580      	push	{r7, lr}
 80034da:	b084      	sub	sp, #16
 80034dc:	af00      	add	r7, sp, #0
 80034de:	4603      	mov	r3, r0
 80034e0:	80fb      	strh	r3, [r7, #6]
   uint8_t ir  = (uint8_t)intr;
 80034e2:	88fb      	ldrh	r3, [r7, #6]
 80034e4:	73fb      	strb	r3, [r7, #15]
   uint8_t sir = (uint8_t)((uint16_t)intr >> 8);
 80034e6:	88fb      	ldrh	r3, [r7, #6]
 80034e8:	0a1b      	lsrs	r3, r3, #8
 80034ea:	b29b      	uxth	r3, r3
 80034ec:	73bb      	strb	r3, [r7, #14]
   setIR(ir);
//A20150601 : For integrating with W5300
#elif _WIZCHIP_ == W5300
   setIR( ((((uint16_t)ir) << 8) | (((uint16_t)sir) & 0x00FF)) );
#else
   setIR(ir);
 80034ee:	7bfb      	ldrb	r3, [r7, #15]
 80034f0:	f023 030f 	bic.w	r3, r3, #15
 80034f4:	b2db      	uxtb	r3, r3
 80034f6:	4619      	mov	r1, r3
 80034f8:	f44f 50a8 	mov.w	r0, #5376	; 0x1500
 80034fc:	f7ff fb3c 	bl	8002b78 <WIZCHIP_WRITE>
//M20200227 : For clear
   //setSIR(sir);
   for(ir=0; ir<8; ir++){
 8003500:	2300      	movs	r3, #0
 8003502:	73fb      	strb	r3, [r7, #15]
 8003504:	e014      	b.n	8003530 <wizchip_clrinterrupt+0x58>
       if(sir & (0x01 <<ir) ) setSn_IR(ir, 0xff);
 8003506:	7bba      	ldrb	r2, [r7, #14]
 8003508:	7bfb      	ldrb	r3, [r7, #15]
 800350a:	fa42 f303 	asr.w	r3, r2, r3
 800350e:	f003 0301 	and.w	r3, r3, #1
 8003512:	2b00      	cmp	r3, #0
 8003514:	d009      	beq.n	800352a <wizchip_clrinterrupt+0x52>
 8003516:	7bfb      	ldrb	r3, [r7, #15]
 8003518:	009b      	lsls	r3, r3, #2
 800351a:	3301      	adds	r3, #1
 800351c:	00db      	lsls	r3, r3, #3
 800351e:	f503 7300 	add.w	r3, r3, #512	; 0x200
 8003522:	211f      	movs	r1, #31
 8003524:	4618      	mov	r0, r3
 8003526:	f7ff fb27 	bl	8002b78 <WIZCHIP_WRITE>
   for(ir=0; ir<8; ir++){
 800352a:	7bfb      	ldrb	r3, [r7, #15]
 800352c:	3301      	adds	r3, #1
 800352e:	73fb      	strb	r3, [r7, #15]
 8003530:	7bfb      	ldrb	r3, [r7, #15]
 8003532:	2b07      	cmp	r3, #7
 8003534:	d9e7      	bls.n	8003506 <wizchip_clrinterrupt+0x2e>
   }

#endif   
}
 8003536:	bf00      	nop
 8003538:	bf00      	nop
 800353a:	3710      	adds	r7, #16
 800353c:	46bd      	mov	sp, r7
 800353e:	bd80      	pop	{r7, pc}

08003540 <wizchip_getinterrupt>:

intr_kind wizchip_getinterrupt(void)
{
 8003540:	b580      	push	{r7, lr}
 8003542:	b082      	sub	sp, #8
 8003544:	af00      	add	r7, sp, #0
   uint8_t ir  = 0;
 8003546:	2300      	movs	r3, #0
 8003548:	71fb      	strb	r3, [r7, #7]
   uint8_t sir = 0;
 800354a:	2300      	movs	r3, #0
 800354c:	71bb      	strb	r3, [r7, #6]
   uint16_t ret = 0;
 800354e:	2300      	movs	r3, #0
 8003550:	80bb      	strh	r3, [r7, #4]
#elif _WIZCHIP_  == W5300
   ret = getIR();
   ir = (uint8_t)(ret >> 8);
   sir = (uint8_t)ret;
#else
   ir  = getIR();
 8003552:	f44f 50a8 	mov.w	r0, #5376	; 0x1500
 8003556:	f7ff fac3 	bl	8002ae0 <WIZCHIP_READ>
 800355a:	4603      	mov	r3, r0
 800355c:	f023 030f 	bic.w	r3, r3, #15
 8003560:	71fb      	strb	r3, [r7, #7]
   sir = getSIR();
 8003562:	f44f 50b8 	mov.w	r0, #5888	; 0x1700
 8003566:	f7ff fabb 	bl	8002ae0 <WIZCHIP_READ>
 800356a:	4603      	mov	r3, r0
 800356c:	71bb      	strb	r3, [r7, #6]
   ir &= ~(1<<4); // IK_WOL
#endif
#if _WIZCHIP_ == W5200
   ir &= ~(1 << 6);
#endif
  ret = sir;
 800356e:	79bb      	ldrb	r3, [r7, #6]
 8003570:	80bb      	strh	r3, [r7, #4]
  ret = (ret << 8) + ir;
 8003572:	88bb      	ldrh	r3, [r7, #4]
 8003574:	021b      	lsls	r3, r3, #8
 8003576:	b29a      	uxth	r2, r3
 8003578:	79fb      	ldrb	r3, [r7, #7]
 800357a:	b29b      	uxth	r3, r3
 800357c:	4413      	add	r3, r2
 800357e:	80bb      	strh	r3, [r7, #4]
  return (intr_kind)ret;
 8003580:	88bb      	ldrh	r3, [r7, #4]
}
 8003582:	4618      	mov	r0, r3
 8003584:	3708      	adds	r7, #8
 8003586:	46bd      	mov	sp, r7
 8003588:	bd80      	pop	{r7, pc}

0800358a <wizchip_setinterruptmask>:

void wizchip_setinterruptmask(intr_kind intr)
{
 800358a:	b580      	push	{r7, lr}
 800358c:	b084      	sub	sp, #16
 800358e:	af00      	add	r7, sp, #0
 8003590:	4603      	mov	r3, r0
 8003592:	80fb      	strh	r3, [r7, #6]
   uint8_t imr  = (uint8_t)intr;
 8003594:	88fb      	ldrh	r3, [r7, #6]
 8003596:	73fb      	strb	r3, [r7, #15]
   uint8_t simr = (uint8_t)((uint16_t)intr >> 8);
 8003598:	88fb      	ldrh	r3, [r7, #6]
 800359a:	0a1b      	lsrs	r3, r3, #8
 800359c:	b29b      	uxth	r3, r3
 800359e:	73bb      	strb	r3, [r7, #14]
   setIMR(imr);
//A20150601 : For integrating with W5300
#elif _WIZCHIP_ == W5300
   setIMR( ((((uint16_t)imr) << 8) | (((uint16_t)simr) & 0x00FF)) );
#else
   setIMR(imr);
 80035a0:	7bfb      	ldrb	r3, [r7, #15]
 80035a2:	4619      	mov	r1, r3
 80035a4:	f44f 50b0 	mov.w	r0, #5632	; 0x1600
 80035a8:	f7ff fae6 	bl	8002b78 <WIZCHIP_WRITE>
   setSIMR(simr);
 80035ac:	7bbb      	ldrb	r3, [r7, #14]
 80035ae:	4619      	mov	r1, r3
 80035b0:	f44f 50c0 	mov.w	r0, #6144	; 0x1800
 80035b4:	f7ff fae0 	bl	8002b78 <WIZCHIP_WRITE>
#endif   
}
 80035b8:	bf00      	nop
 80035ba:	3710      	adds	r7, #16
 80035bc:	46bd      	mov	sp, r7
 80035be:	bd80      	pop	{r7, pc}

080035c0 <wizchip_getinterruptmask>:

intr_kind wizchip_getinterruptmask(void)
{
 80035c0:	b580      	push	{r7, lr}
 80035c2:	b082      	sub	sp, #8
 80035c4:	af00      	add	r7, sp, #0
   uint8_t imr  = 0;
 80035c6:	2300      	movs	r3, #0
 80035c8:	71fb      	strb	r3, [r7, #7]
   uint8_t simr = 0;
 80035ca:	2300      	movs	r3, #0
 80035cc:	71bb      	strb	r3, [r7, #6]
   uint16_t ret = 0;
 80035ce:	2300      	movs	r3, #0
 80035d0:	80bb      	strh	r3, [r7, #4]
#elif _WIZCHIP_ == W5300
   ret = getIMR();
   imr = (uint8_t)(ret >> 8);
   simr = (uint8_t)ret;
#else
   imr  = getIMR();
 80035d2:	f44f 50b0 	mov.w	r0, #5632	; 0x1600
 80035d6:	f7ff fa83 	bl	8002ae0 <WIZCHIP_READ>
 80035da:	4603      	mov	r3, r0
 80035dc:	71fb      	strb	r3, [r7, #7]
   simr = getSIMR();
 80035de:	f44f 50c0 	mov.w	r0, #6144	; 0x1800
 80035e2:	f7ff fa7d 	bl	8002ae0 <WIZCHIP_READ>
 80035e6:	4603      	mov	r3, r0
 80035e8:	71bb      	strb	r3, [r7, #6]
   imr &= ~(1<<4); // IK_WOL
#endif
#if _WIZCHIP_ == W5200
   imr &= ~(1 << 6);  // IK_DEST_UNREACH
#endif
  ret = simr;
 80035ea:	79bb      	ldrb	r3, [r7, #6]
 80035ec:	80bb      	strh	r3, [r7, #4]
  ret = (ret << 8) + imr;
 80035ee:	88bb      	ldrh	r3, [r7, #4]
 80035f0:	021b      	lsls	r3, r3, #8
 80035f2:	b29a      	uxth	r2, r3
 80035f4:	79fb      	ldrb	r3, [r7, #7]
 80035f6:	b29b      	uxth	r3, r3
 80035f8:	4413      	add	r3, r2
 80035fa:	80bb      	strh	r3, [r7, #4]
  return (intr_kind)ret;
 80035fc:	88bb      	ldrh	r3, [r7, #4]
}
 80035fe:	4618      	mov	r0, r3
 8003600:	3708      	adds	r7, #8
 8003602:	46bd      	mov	sp, r7
 8003604:	bd80      	pop	{r7, pc}

08003606 <wizphy_getphylink>:

int8_t wizphy_getphylink(void)
{
 8003606:	b580      	push	{r7, lr}
 8003608:	b082      	sub	sp, #8
 800360a:	af00      	add	r7, sp, #0
   int8_t tmp = PHY_LINK_OFF;
 800360c:	2300      	movs	r3, #0
 800360e:	71fb      	strb	r3, [r7, #7]
	   tmp = PHY_LINK_ON;
#elif   _WIZCHIP_ == W5200
   if(getPHYSTATUS() & PHYSTATUS_LINK)
      tmp = PHY_LINK_ON;
#elif _WIZCHIP_ == W5500
   if(getPHYCFGR() & PHYCFGR_LNK_ON)
 8003610:	f44f 5038 	mov.w	r0, #11776	; 0x2e00
 8003614:	f7ff fa64 	bl	8002ae0 <WIZCHIP_READ>
 8003618:	4603      	mov	r3, r0
 800361a:	f003 0301 	and.w	r3, r3, #1
 800361e:	2b00      	cmp	r3, #0
 8003620:	d001      	beq.n	8003626 <wizphy_getphylink+0x20>
      tmp = PHY_LINK_ON;
 8003622:	2301      	movs	r3, #1
 8003624:	71fb      	strb	r3, [r7, #7]

#else
   tmp = -1;
#endif
   return tmp;
 8003626:	f997 3007 	ldrsb.w	r3, [r7, #7]
}
 800362a:	4618      	mov	r0, r3
 800362c:	3708      	adds	r7, #8
 800362e:	46bd      	mov	sp, r7
 8003630:	bd80      	pop	{r7, pc}

08003632 <wizphy_getphypmode>:

#if _WIZCHIP_ > W5100

int8_t wizphy_getphypmode(void)
{
 8003632:	b580      	push	{r7, lr}
 8003634:	b082      	sub	sp, #8
 8003636:	af00      	add	r7, sp, #0
   int8_t tmp = 0;
 8003638:	2300      	movs	r3, #0
 800363a:	71fb      	strb	r3, [r7, #7]
      if(getPHYSTATUS() & PHYSTATUS_POWERDOWN)
         tmp = PHY_POWER_DOWN;
      else          
         tmp = PHY_POWER_NORM;
   #elif _WIZCHIP_ == 5500
      if((getPHYCFGR() & PHYCFGR_OPMDC_ALLA) == PHYCFGR_OPMDC_PDOWN)
 800363c:	f44f 5038 	mov.w	r0, #11776	; 0x2e00
 8003640:	f7ff fa4e 	bl	8002ae0 <WIZCHIP_READ>
 8003644:	4603      	mov	r3, r0
 8003646:	f003 0338 	and.w	r3, r3, #56	; 0x38
 800364a:	2b30      	cmp	r3, #48	; 0x30
 800364c:	d102      	bne.n	8003654 <wizphy_getphypmode+0x22>
         tmp = PHY_POWER_DOWN;
 800364e:	2301      	movs	r3, #1
 8003650:	71fb      	strb	r3, [r7, #7]
 8003652:	e001      	b.n	8003658 <wizphy_getphypmode+0x26>
      else 
         tmp = PHY_POWER_NORM;
 8003654:	2300      	movs	r3, #0
 8003656:	71fb      	strb	r3, [r7, #7]
   #else
      tmp = -1;
   #endif
   return tmp;
 8003658:	f997 3007 	ldrsb.w	r3, [r7, #7]
}
 800365c:	4618      	mov	r0, r3
 800365e:	3708      	adds	r7, #8
 8003660:	46bd      	mov	sp, r7
 8003662:	bd80      	pop	{r7, pc}

08003664 <wizphy_reset>:
}

#endif
#if _WIZCHIP_ == W5500
void wizphy_reset(void)
{
 8003664:	b580      	push	{r7, lr}
 8003666:	b082      	sub	sp, #8
 8003668:	af00      	add	r7, sp, #0
   uint8_t tmp = getPHYCFGR();
 800366a:	f44f 5038 	mov.w	r0, #11776	; 0x2e00
 800366e:	f7ff fa37 	bl	8002ae0 <WIZCHIP_READ>
 8003672:	4603      	mov	r3, r0
 8003674:	71fb      	strb	r3, [r7, #7]
   tmp &= PHYCFGR_RST;
 8003676:	79fb      	ldrb	r3, [r7, #7]
 8003678:	f003 037f 	and.w	r3, r3, #127	; 0x7f
 800367c:	71fb      	strb	r3, [r7, #7]
   setPHYCFGR(tmp);
 800367e:	79fb      	ldrb	r3, [r7, #7]
 8003680:	4619      	mov	r1, r3
 8003682:	f44f 5038 	mov.w	r0, #11776	; 0x2e00
 8003686:	f7ff fa77 	bl	8002b78 <WIZCHIP_WRITE>
   tmp = getPHYCFGR();
 800368a:	f44f 5038 	mov.w	r0, #11776	; 0x2e00
 800368e:	f7ff fa27 	bl	8002ae0 <WIZCHIP_READ>
 8003692:	4603      	mov	r3, r0
 8003694:	71fb      	strb	r3, [r7, #7]
   tmp |= ~PHYCFGR_RST;
 8003696:	79fb      	ldrb	r3, [r7, #7]
 8003698:	f063 037f 	orn	r3, r3, #127	; 0x7f
 800369c:	71fb      	strb	r3, [r7, #7]
   setPHYCFGR(tmp);
 800369e:	79fb      	ldrb	r3, [r7, #7]
 80036a0:	4619      	mov	r1, r3
 80036a2:	f44f 5038 	mov.w	r0, #11776	; 0x2e00
 80036a6:	f7ff fa67 	bl	8002b78 <WIZCHIP_WRITE>
}
 80036aa:	bf00      	nop
 80036ac:	3708      	adds	r7, #8
 80036ae:	46bd      	mov	sp, r7
 80036b0:	bd80      	pop	{r7, pc}

080036b2 <wizphy_setphyconf>:

void wizphy_setphyconf(wiz_PhyConf* phyconf)
{
 80036b2:	b580      	push	{r7, lr}
 80036b4:	b084      	sub	sp, #16
 80036b6:	af00      	add	r7, sp, #0
 80036b8:	6078      	str	r0, [r7, #4]
   uint8_t tmp = 0;
 80036ba:	2300      	movs	r3, #0
 80036bc:	73fb      	strb	r3, [r7, #15]
   if(phyconf->by == PHY_CONFBY_SW)
 80036be:	687b      	ldr	r3, [r7, #4]
 80036c0:	781b      	ldrb	r3, [r3, #0]
 80036c2:	2b01      	cmp	r3, #1
 80036c4:	d104      	bne.n	80036d0 <wizphy_setphyconf+0x1e>
      tmp |= PHYCFGR_OPMD;
 80036c6:	7bfb      	ldrb	r3, [r7, #15]
 80036c8:	f043 0340 	orr.w	r3, r3, #64	; 0x40
 80036cc:	73fb      	strb	r3, [r7, #15]
 80036ce:	e003      	b.n	80036d8 <wizphy_setphyconf+0x26>
   else
      tmp &= ~PHYCFGR_OPMD;
 80036d0:	7bfb      	ldrb	r3, [r7, #15]
 80036d2:	f023 0340 	bic.w	r3, r3, #64	; 0x40
 80036d6:	73fb      	strb	r3, [r7, #15]
   if(phyconf->mode == PHY_MODE_AUTONEGO)
 80036d8:	687b      	ldr	r3, [r7, #4]
 80036da:	785b      	ldrb	r3, [r3, #1]
 80036dc:	2b01      	cmp	r3, #1
 80036de:	d104      	bne.n	80036ea <wizphy_setphyconf+0x38>
      tmp |= PHYCFGR_OPMDC_ALLA;
 80036e0:	7bfb      	ldrb	r3, [r7, #15]
 80036e2:	f043 0338 	orr.w	r3, r3, #56	; 0x38
 80036e6:	73fb      	strb	r3, [r7, #15]
 80036e8:	e019      	b.n	800371e <wizphy_setphyconf+0x6c>
   else
   {
      if(phyconf->duplex == PHY_DUPLEX_FULL)
 80036ea:	687b      	ldr	r3, [r7, #4]
 80036ec:	78db      	ldrb	r3, [r3, #3]
 80036ee:	2b01      	cmp	r3, #1
 80036f0:	d10d      	bne.n	800370e <wizphy_setphyconf+0x5c>
      {
         if(phyconf->speed == PHY_SPEED_100)
 80036f2:	687b      	ldr	r3, [r7, #4]
 80036f4:	789b      	ldrb	r3, [r3, #2]
 80036f6:	2b01      	cmp	r3, #1
 80036f8:	d104      	bne.n	8003704 <wizphy_setphyconf+0x52>
            tmp |= PHYCFGR_OPMDC_100F;
 80036fa:	7bfb      	ldrb	r3, [r7, #15]
 80036fc:	f043 0318 	orr.w	r3, r3, #24
 8003700:	73fb      	strb	r3, [r7, #15]
 8003702:	e00c      	b.n	800371e <wizphy_setphyconf+0x6c>
         else
            tmp |= PHYCFGR_OPMDC_10F;
 8003704:	7bfb      	ldrb	r3, [r7, #15]
 8003706:	f043 0308 	orr.w	r3, r3, #8
 800370a:	73fb      	strb	r3, [r7, #15]
 800370c:	e007      	b.n	800371e <wizphy_setphyconf+0x6c>
      }   
      else
      {
         if(phyconf->speed == PHY_SPEED_100)
 800370e:	687b      	ldr	r3, [r7, #4]
 8003710:	789b      	ldrb	r3, [r3, #2]
 8003712:	2b01      	cmp	r3, #1
 8003714:	d103      	bne.n	800371e <wizphy_setphyconf+0x6c>
            tmp |= PHYCFGR_OPMDC_100H;
 8003716:	7bfb      	ldrb	r3, [r7, #15]
 8003718:	f043 0310 	orr.w	r3, r3, #16
 800371c:	73fb      	strb	r3, [r7, #15]
         else
            tmp |= PHYCFGR_OPMDC_10H;
      }
   }
   setPHYCFGR(tmp);
 800371e:	7bfb      	ldrb	r3, [r7, #15]
 8003720:	4619      	mov	r1, r3
 8003722:	f44f 5038 	mov.w	r0, #11776	; 0x2e00
 8003726:	f7ff fa27 	bl	8002b78 <WIZCHIP_WRITE>
   wizphy_reset();
 800372a:	f7ff ff9b 	bl	8003664 <wizphy_reset>
}
 800372e:	bf00      	nop
 8003730:	3710      	adds	r7, #16
 8003732:	46bd      	mov	sp, r7
 8003734:	bd80      	pop	{r7, pc}

08003736 <wizphy_getphyconf>:

void wizphy_getphyconf(wiz_PhyConf* phyconf)
{
 8003736:	b580      	push	{r7, lr}
 8003738:	b084      	sub	sp, #16
 800373a:	af00      	add	r7, sp, #0
 800373c:	6078      	str	r0, [r7, #4]
   uint8_t tmp = 0;
 800373e:	2300      	movs	r3, #0
 8003740:	73fb      	strb	r3, [r7, #15]
   tmp = getPHYCFGR();
 8003742:	f44f 5038 	mov.w	r0, #11776	; 0x2e00
 8003746:	f7ff f9cb 	bl	8002ae0 <WIZCHIP_READ>
 800374a:	4603      	mov	r3, r0
 800374c:	73fb      	strb	r3, [r7, #15]
   phyconf->by   = (tmp & PHYCFGR_OPMD) ? PHY_CONFBY_SW : PHY_CONFBY_HW;
 800374e:	7bfb      	ldrb	r3, [r7, #15]
 8003750:	119b      	asrs	r3, r3, #6
 8003752:	b2db      	uxtb	r3, r3
 8003754:	f003 0301 	and.w	r3, r3, #1
 8003758:	b2da      	uxtb	r2, r3
 800375a:	687b      	ldr	r3, [r7, #4]
 800375c:	701a      	strb	r2, [r3, #0]
   switch(tmp & PHYCFGR_OPMDC_ALLA)
 800375e:	7bfb      	ldrb	r3, [r7, #15]
 8003760:	f003 0338 	and.w	r3, r3, #56	; 0x38
 8003764:	2b20      	cmp	r3, #32
 8003766:	d001      	beq.n	800376c <wizphy_getphyconf+0x36>
 8003768:	2b38      	cmp	r3, #56	; 0x38
 800376a:	d103      	bne.n	8003774 <wizphy_getphyconf+0x3e>
   {
      case PHYCFGR_OPMDC_ALLA:
      case PHYCFGR_OPMDC_100FA: 
         phyconf->mode = PHY_MODE_AUTONEGO;
 800376c:	687b      	ldr	r3, [r7, #4]
 800376e:	2201      	movs	r2, #1
 8003770:	705a      	strb	r2, [r3, #1]
         break;
 8003772:	e003      	b.n	800377c <wizphy_getphyconf+0x46>
      default:
         phyconf->mode = PHY_MODE_MANUAL;
 8003774:	687b      	ldr	r3, [r7, #4]
 8003776:	2200      	movs	r2, #0
 8003778:	705a      	strb	r2, [r3, #1]
         break;
 800377a:	bf00      	nop
   }
   switch(tmp & PHYCFGR_OPMDC_ALLA)
 800377c:	7bfb      	ldrb	r3, [r7, #15]
 800377e:	f003 0338 	and.w	r3, r3, #56	; 0x38
 8003782:	3b10      	subs	r3, #16
 8003784:	2b10      	cmp	r3, #16
 8003786:	bf8c      	ite	hi
 8003788:	2201      	movhi	r2, #1
 800378a:	2200      	movls	r2, #0
 800378c:	b2d2      	uxtb	r2, r2
 800378e:	2a00      	cmp	r2, #0
 8003790:	d111      	bne.n	80037b6 <wizphy_getphyconf+0x80>
 8003792:	2201      	movs	r2, #1
 8003794:	fa02 f303 	lsl.w	r3, r2, r3
 8003798:	f003 3301 	and.w	r3, r3, #16843009	; 0x1010101
 800379c:	f023 7380 	bic.w	r3, r3, #16777216	; 0x1000000
 80037a0:	2b00      	cmp	r3, #0
 80037a2:	bf14      	ite	ne
 80037a4:	2301      	movne	r3, #1
 80037a6:	2300      	moveq	r3, #0
 80037a8:	b2db      	uxtb	r3, r3
 80037aa:	2b00      	cmp	r3, #0
 80037ac:	d003      	beq.n	80037b6 <wizphy_getphyconf+0x80>
   {
      case PHYCFGR_OPMDC_100FA:
      case PHYCFGR_OPMDC_100F:
      case PHYCFGR_OPMDC_100H:
         phyconf->speed = PHY_SPEED_100;
 80037ae:	687b      	ldr	r3, [r7, #4]
 80037b0:	2201      	movs	r2, #1
 80037b2:	709a      	strb	r2, [r3, #2]
         break;
 80037b4:	e003      	b.n	80037be <wizphy_getphyconf+0x88>
      default:
         phyconf->speed = PHY_SPEED_10;
 80037b6:	687b      	ldr	r3, [r7, #4]
 80037b8:	2200      	movs	r2, #0
 80037ba:	709a      	strb	r2, [r3, #2]
         break;
 80037bc:	bf00      	nop
   }
   switch(tmp & PHYCFGR_OPMDC_ALLA)
 80037be:	7bfb      	ldrb	r3, [r7, #15]
 80037c0:	f003 0338 	and.w	r3, r3, #56	; 0x38
 80037c4:	3b08      	subs	r3, #8
 80037c6:	2b18      	cmp	r3, #24
 80037c8:	bf8c      	ite	hi
 80037ca:	2201      	movhi	r2, #1
 80037cc:	2200      	movls	r2, #0
 80037ce:	b2d2      	uxtb	r2, r2
 80037d0:	2a00      	cmp	r2, #0
 80037d2:	d111      	bne.n	80037f8 <wizphy_getphyconf+0xc2>
 80037d4:	2201      	movs	r2, #1
 80037d6:	fa02 f303 	lsl.w	r3, r2, r3
 80037da:	f003 3301 	and.w	r3, r3, #16843009	; 0x1010101
 80037de:	f423 7380 	bic.w	r3, r3, #256	; 0x100
 80037e2:	2b00      	cmp	r3, #0
 80037e4:	bf14      	ite	ne
 80037e6:	2301      	movne	r3, #1
 80037e8:	2300      	moveq	r3, #0
 80037ea:	b2db      	uxtb	r3, r3
 80037ec:	2b00      	cmp	r3, #0
 80037ee:	d003      	beq.n	80037f8 <wizphy_getphyconf+0xc2>
   {
      case PHYCFGR_OPMDC_100FA:
      case PHYCFGR_OPMDC_100F:
      case PHYCFGR_OPMDC_10F:
         phyconf->duplex = PHY_DUPLEX_FULL;
 80037f0:	687b      	ldr	r3, [r7, #4]
 80037f2:	2201      	movs	r2, #1
 80037f4:	70da      	strb	r2, [r3, #3]
         break;
 80037f6:	e003      	b.n	8003800 <wizphy_getphyconf+0xca>
      default:
         phyconf->duplex = PHY_DUPLEX_HALF;
 80037f8:	687b      	ldr	r3, [r7, #4]
 80037fa:	2200      	movs	r2, #0
 80037fc:	70da      	strb	r2, [r3, #3]
         break;
 80037fe:	bf00      	nop
   }
}
 8003800:	bf00      	nop
 8003802:	3710      	adds	r7, #16
 8003804:	46bd      	mov	sp, r7
 8003806:	bd80      	pop	{r7, pc}

08003808 <wizphy_setphypmode>:
   phyconf->duplex = (tmp & PHYCFGR_DPX_FULL) ? PHY_DUPLEX_FULL : PHY_DUPLEX_HALF;
   phyconf->speed  = (tmp & PHYCFGR_SPD_100) ? PHY_SPEED_100 : PHY_SPEED_10;
}

int8_t wizphy_setphypmode(uint8_t pmode)
{
 8003808:	b580      	push	{r7, lr}
 800380a:	b084      	sub	sp, #16
 800380c:	af00      	add	r7, sp, #0
 800380e:	4603      	mov	r3, r0
 8003810:	71fb      	strb	r3, [r7, #7]
   uint8_t tmp = 0;
 8003812:	2300      	movs	r3, #0
 8003814:	73fb      	strb	r3, [r7, #15]
   tmp = getPHYCFGR();
 8003816:	f44f 5038 	mov.w	r0, #11776	; 0x2e00
 800381a:	f7ff f961 	bl	8002ae0 <WIZCHIP_READ>
 800381e:	4603      	mov	r3, r0
 8003820:	73fb      	strb	r3, [r7, #15]
   if((tmp & PHYCFGR_OPMD)== 0) return -1;
 8003822:	7bfb      	ldrb	r3, [r7, #15]
 8003824:	f003 0340 	and.w	r3, r3, #64	; 0x40
 8003828:	2b00      	cmp	r3, #0
 800382a:	d102      	bne.n	8003832 <wizphy_setphypmode+0x2a>
 800382c:	f04f 33ff 	mov.w	r3, #4294967295
 8003830:	e030      	b.n	8003894 <wizphy_setphypmode+0x8c>
   tmp &= ~PHYCFGR_OPMDC_ALLA;         
 8003832:	7bfb      	ldrb	r3, [r7, #15]
 8003834:	f023 0338 	bic.w	r3, r3, #56	; 0x38
 8003838:	73fb      	strb	r3, [r7, #15]
   if( pmode == PHY_POWER_DOWN)
 800383a:	79fb      	ldrb	r3, [r7, #7]
 800383c:	2b01      	cmp	r3, #1
 800383e:	d104      	bne.n	800384a <wizphy_setphypmode+0x42>
      tmp |= PHYCFGR_OPMDC_PDOWN;
 8003840:	7bfb      	ldrb	r3, [r7, #15]
 8003842:	f043 0330 	orr.w	r3, r3, #48	; 0x30
 8003846:	73fb      	strb	r3, [r7, #15]
 8003848:	e003      	b.n	8003852 <wizphy_setphypmode+0x4a>
   else
      tmp |= PHYCFGR_OPMDC_ALLA;
 800384a:	7bfb      	ldrb	r3, [r7, #15]
 800384c:	f043 0338 	orr.w	r3, r3, #56	; 0x38
 8003850:	73fb      	strb	r3, [r7, #15]
   setPHYCFGR(tmp);
 8003852:	7bfb      	ldrb	r3, [r7, #15]
 8003854:	4619      	mov	r1, r3
 8003856:	f44f 5038 	mov.w	r0, #11776	; 0x2e00
 800385a:	f7ff f98d 	bl	8002b78 <WIZCHIP_WRITE>
   wizphy_reset();
 800385e:	f7ff ff01 	bl	8003664 <wizphy_reset>
   tmp = getPHYCFGR();
 8003862:	f44f 5038 	mov.w	r0, #11776	; 0x2e00
 8003866:	f7ff f93b 	bl	8002ae0 <WIZCHIP_READ>
 800386a:	4603      	mov	r3, r0
 800386c:	73fb      	strb	r3, [r7, #15]
   if( pmode == PHY_POWER_DOWN)
 800386e:	79fb      	ldrb	r3, [r7, #7]
 8003870:	2b01      	cmp	r3, #1
 8003872:	d106      	bne.n	8003882 <wizphy_setphypmode+0x7a>
   {
      if(tmp & PHYCFGR_OPMDC_PDOWN) return 0;
 8003874:	7bfb      	ldrb	r3, [r7, #15]
 8003876:	f003 0330 	and.w	r3, r3, #48	; 0x30
 800387a:	2b00      	cmp	r3, #0
 800387c:	d008      	beq.n	8003890 <wizphy_setphypmode+0x88>
 800387e:	2300      	movs	r3, #0
 8003880:	e008      	b.n	8003894 <wizphy_setphypmode+0x8c>
   }
   else
   {
      if(tmp & PHYCFGR_OPMDC_ALLA) return 0;
 8003882:	7bfb      	ldrb	r3, [r7, #15]
 8003884:	f003 0338 	and.w	r3, r3, #56	; 0x38
 8003888:	2b00      	cmp	r3, #0
 800388a:	d001      	beq.n	8003890 <wizphy_setphypmode+0x88>
 800388c:	2300      	movs	r3, #0
 800388e:	e001      	b.n	8003894 <wizphy_setphypmode+0x8c>
   }
   return -1;
 8003890:	f04f 33ff 	mov.w	r3, #4294967295
}
 8003894:	4618      	mov	r0, r3
 8003896:	3710      	adds	r7, #16
 8003898:	46bd      	mov	sp, r7
 800389a:	bd80      	pop	{r7, pc}

0800389c <wizchip_setnetinfo>:
#endif


void wizchip_setnetinfo(wiz_NetInfo* pnetinfo)
{
 800389c:	b580      	push	{r7, lr}
 800389e:	b082      	sub	sp, #8
 80038a0:	af00      	add	r7, sp, #0
 80038a2:	6078      	str	r0, [r7, #4]
   setSHAR(pnetinfo->mac);
 80038a4:	687b      	ldr	r3, [r7, #4]
 80038a6:	2206      	movs	r2, #6
 80038a8:	4619      	mov	r1, r3
 80038aa:	f44f 6010 	mov.w	r0, #2304	; 0x900
 80038ae:	f7ff fa11 	bl	8002cd4 <WIZCHIP_WRITE_BUF>
   setGAR(pnetinfo->gw);
 80038b2:	687b      	ldr	r3, [r7, #4]
 80038b4:	330e      	adds	r3, #14
 80038b6:	2204      	movs	r2, #4
 80038b8:	4619      	mov	r1, r3
 80038ba:	f44f 7080 	mov.w	r0, #256	; 0x100
 80038be:	f7ff fa09 	bl	8002cd4 <WIZCHIP_WRITE_BUF>
   setSUBR(pnetinfo->sn);
 80038c2:	687b      	ldr	r3, [r7, #4]
 80038c4:	330a      	adds	r3, #10
 80038c6:	2204      	movs	r2, #4
 80038c8:	4619      	mov	r1, r3
 80038ca:	f44f 60a0 	mov.w	r0, #1280	; 0x500
 80038ce:	f7ff fa01 	bl	8002cd4 <WIZCHIP_WRITE_BUF>
   setSIPR(pnetinfo->ip);
 80038d2:	687b      	ldr	r3, [r7, #4]
 80038d4:	3306      	adds	r3, #6
 80038d6:	2204      	movs	r2, #4
 80038d8:	4619      	mov	r1, r3
 80038da:	f44f 6070 	mov.w	r0, #3840	; 0xf00
 80038de:	f7ff f9f9 	bl	8002cd4 <WIZCHIP_WRITE_BUF>
   _DNS_[0] = pnetinfo->dns[0];
 80038e2:	687b      	ldr	r3, [r7, #4]
 80038e4:	7c9a      	ldrb	r2, [r3, #18]
 80038e6:	4b0b      	ldr	r3, [pc, #44]	; (8003914 <wizchip_setnetinfo+0x78>)
 80038e8:	701a      	strb	r2, [r3, #0]
   _DNS_[1] = pnetinfo->dns[1];
 80038ea:	687b      	ldr	r3, [r7, #4]
 80038ec:	7cda      	ldrb	r2, [r3, #19]
 80038ee:	4b09      	ldr	r3, [pc, #36]	; (8003914 <wizchip_setnetinfo+0x78>)
 80038f0:	705a      	strb	r2, [r3, #1]
   _DNS_[2] = pnetinfo->dns[2];
 80038f2:	687b      	ldr	r3, [r7, #4]
 80038f4:	7d1a      	ldrb	r2, [r3, #20]
 80038f6:	4b07      	ldr	r3, [pc, #28]	; (8003914 <wizchip_setnetinfo+0x78>)
 80038f8:	709a      	strb	r2, [r3, #2]
   _DNS_[3] = pnetinfo->dns[3];
 80038fa:	687b      	ldr	r3, [r7, #4]
 80038fc:	7d5a      	ldrb	r2, [r3, #21]
 80038fe:	4b05      	ldr	r3, [pc, #20]	; (8003914 <wizchip_setnetinfo+0x78>)
 8003900:	70da      	strb	r2, [r3, #3]
   _DHCP_   = pnetinfo->dhcp;
 8003902:	687b      	ldr	r3, [r7, #4]
 8003904:	7d9a      	ldrb	r2, [r3, #22]
 8003906:	4b04      	ldr	r3, [pc, #16]	; (8003918 <wizchip_setnetinfo+0x7c>)
 8003908:	701a      	strb	r2, [r3, #0]
}
 800390a:	bf00      	nop
 800390c:	3708      	adds	r7, #8
 800390e:	46bd      	mov	sp, r7
 8003910:	bd80      	pop	{r7, pc}
 8003912:	bf00      	nop
 8003914:	200036e0 	.word	0x200036e0
 8003918:	200036e4 	.word	0x200036e4

0800391c <wizchip_getnetinfo>:

void wizchip_getnetinfo(wiz_NetInfo* pnetinfo)
{
 800391c:	b580      	push	{r7, lr}
 800391e:	b082      	sub	sp, #8
 8003920:	af00      	add	r7, sp, #0
 8003922:	6078      	str	r0, [r7, #4]
   getSHAR(pnetinfo->mac);
 8003924:	687b      	ldr	r3, [r7, #4]
 8003926:	2206      	movs	r2, #6
 8003928:	4619      	mov	r1, r3
 800392a:	f44f 6010 	mov.w	r0, #2304	; 0x900
 800392e:	f7ff f971 	bl	8002c14 <WIZCHIP_READ_BUF>
   getGAR(pnetinfo->gw);
 8003932:	687b      	ldr	r3, [r7, #4]
 8003934:	330e      	adds	r3, #14
 8003936:	2204      	movs	r2, #4
 8003938:	4619      	mov	r1, r3
 800393a:	f44f 7080 	mov.w	r0, #256	; 0x100
 800393e:	f7ff f969 	bl	8002c14 <WIZCHIP_READ_BUF>
   getSUBR(pnetinfo->sn);
 8003942:	687b      	ldr	r3, [r7, #4]
 8003944:	330a      	adds	r3, #10
 8003946:	2204      	movs	r2, #4
 8003948:	4619      	mov	r1, r3
 800394a:	f44f 60a0 	mov.w	r0, #1280	; 0x500
 800394e:	f7ff f961 	bl	8002c14 <WIZCHIP_READ_BUF>
   getSIPR(pnetinfo->ip);
 8003952:	687b      	ldr	r3, [r7, #4]
 8003954:	3306      	adds	r3, #6
 8003956:	2204      	movs	r2, #4
 8003958:	4619      	mov	r1, r3
 800395a:	f44f 6070 	mov.w	r0, #3840	; 0xf00
 800395e:	f7ff f959 	bl	8002c14 <WIZCHIP_READ_BUF>
   pnetinfo->dns[0]= _DNS_[0];
 8003962:	4b0c      	ldr	r3, [pc, #48]	; (8003994 <wizchip_getnetinfo+0x78>)
 8003964:	781a      	ldrb	r2, [r3, #0]
 8003966:	687b      	ldr	r3, [r7, #4]
 8003968:	749a      	strb	r2, [r3, #18]
   pnetinfo->dns[1]= _DNS_[1];
 800396a:	4b0a      	ldr	r3, [pc, #40]	; (8003994 <wizchip_getnetinfo+0x78>)
 800396c:	785a      	ldrb	r2, [r3, #1]
 800396e:	687b      	ldr	r3, [r7, #4]
 8003970:	74da      	strb	r2, [r3, #19]
   pnetinfo->dns[2]= _DNS_[2];
 8003972:	4b08      	ldr	r3, [pc, #32]	; (8003994 <wizchip_getnetinfo+0x78>)
 8003974:	789a      	ldrb	r2, [r3, #2]
 8003976:	687b      	ldr	r3, [r7, #4]
 8003978:	751a      	strb	r2, [r3, #20]
   pnetinfo->dns[3]= _DNS_[3];
 800397a:	4b06      	ldr	r3, [pc, #24]	; (8003994 <wizchip_getnetinfo+0x78>)
 800397c:	78da      	ldrb	r2, [r3, #3]
 800397e:	687b      	ldr	r3, [r7, #4]
 8003980:	755a      	strb	r2, [r3, #21]
   pnetinfo->dhcp  = _DHCP_;
 8003982:	4b05      	ldr	r3, [pc, #20]	; (8003998 <wizchip_getnetinfo+0x7c>)
 8003984:	781a      	ldrb	r2, [r3, #0]
 8003986:	687b      	ldr	r3, [r7, #4]
 8003988:	759a      	strb	r2, [r3, #22]
}
 800398a:	bf00      	nop
 800398c:	3708      	adds	r7, #8
 800398e:	46bd      	mov	sp, r7
 8003990:	bd80      	pop	{r7, pc}
 8003992:	bf00      	nop
 8003994:	200036e0 	.word	0x200036e0
 8003998:	200036e4 	.word	0x200036e4

0800399c <Reset_Handler>:

    .section	.text.Reset_Handler
	.weak	Reset_Handler
	.type	Reset_Handler, %function
Reset_Handler:
  ldr   sp, =_estack    /* Atollic update: set stack pointer */
 800399c:	f8df d034 	ldr.w	sp, [pc, #52]	; 80039d4 <LoopForever+0x2>

/* Copy the data segment initializers from flash to SRAM */
  ldr r0, =_sdata
 80039a0:	480d      	ldr	r0, [pc, #52]	; (80039d8 <LoopForever+0x6>)
  ldr r1, =_edata
 80039a2:	490e      	ldr	r1, [pc, #56]	; (80039dc <LoopForever+0xa>)
  ldr r2, =_sidata
 80039a4:	4a0e      	ldr	r2, [pc, #56]	; (80039e0 <LoopForever+0xe>)
  movs r3, #0
 80039a6:	2300      	movs	r3, #0
  b LoopCopyDataInit
 80039a8:	e002      	b.n	80039b0 <LoopCopyDataInit>

080039aa <CopyDataInit>:

CopyDataInit:
  ldr r4, [r2, r3]
 80039aa:	58d4      	ldr	r4, [r2, r3]
  str r4, [r0, r3]
 80039ac:	50c4      	str	r4, [r0, r3]
  adds r3, r3, #4
 80039ae:	3304      	adds	r3, #4

080039b0 <LoopCopyDataInit>:

LoopCopyDataInit:
  adds r4, r0, r3
 80039b0:	18c4      	adds	r4, r0, r3
  cmp r4, r1
 80039b2:	428c      	cmp	r4, r1
  bcc CopyDataInit
 80039b4:	d3f9      	bcc.n	80039aa <CopyDataInit>
  
/* Zero fill the bss segment. */
  ldr r2, =_sbss
 80039b6:	4a0b      	ldr	r2, [pc, #44]	; (80039e4 <LoopForever+0x12>)
  ldr r4, =_ebss
 80039b8:	4c0b      	ldr	r4, [pc, #44]	; (80039e8 <LoopForever+0x16>)
  movs r3, #0
 80039ba:	2300      	movs	r3, #0
  b LoopFillZerobss
 80039bc:	e001      	b.n	80039c2 <LoopFillZerobss>

080039be <FillZerobss>:

FillZerobss:
  str  r3, [r2]
 80039be:	6013      	str	r3, [r2, #0]
  adds r2, r2, #4
 80039c0:	3204      	adds	r2, #4

080039c2 <LoopFillZerobss>:

LoopFillZerobss:
  cmp r2, r4
 80039c2:	42a2      	cmp	r2, r4
  bcc FillZerobss
 80039c4:	d3fb      	bcc.n	80039be <FillZerobss>

/* Call the clock system intitialization function.*/
    bl  SystemInit
 80039c6:	f7ff f879 	bl	8002abc <SystemInit>
/* Call static constructors */
    bl __libc_init_array
 80039ca:	f004 fb37 	bl	800803c <__libc_init_array>
/* Call the application's entry point.*/
	bl	main
 80039ce:	f7fd f90b 	bl	8000be8 <main>

080039d2 <LoopForever>:

LoopForever:
    b LoopForever
 80039d2:	e7fe      	b.n	80039d2 <LoopForever>
  ldr   sp, =_estack    /* Atollic update: set stack pointer */
 80039d4:	20004000 	.word	0x20004000
  ldr r0, =_sdata
 80039d8:	20000000 	.word	0x20000000
  ldr r1, =_edata
 80039dc:	200018a8 	.word	0x200018a8
  ldr r2, =_sidata
 80039e0:	080084d8 	.word	0x080084d8
  ldr r2, =_sbss
 80039e4:	200018a8 	.word	0x200018a8
  ldr r4, =_ebss
 80039e8:	200036fc 	.word	0x200036fc

080039ec <ADC1_IRQHandler>:
 * @retval : None
*/
    .section	.text.Default_Handler,"ax",%progbits
Default_Handler:
Infinite_Loop:
	b	Infinite_Loop
 80039ec:	e7fe      	b.n	80039ec <ADC1_IRQHandler>
	...

080039f0 <HAL_Init>:
  *         In the default implementation,Systick is used as source of time base.
  *       The tick variable is incremented each 1ms in its ISR.
  * @retval HAL status
  */
HAL_StatusTypeDef HAL_Init(void)
{
 80039f0:	b580      	push	{r7, lr}
 80039f2:	af00      	add	r7, sp, #0
  /* Configure Flash prefetch */
#if (PREFETCH_ENABLE != 0U)
  __HAL_FLASH_PREFETCH_BUFFER_ENABLE();
 80039f4:	4b08      	ldr	r3, [pc, #32]	; (8003a18 <HAL_Init+0x28>)
 80039f6:	681b      	ldr	r3, [r3, #0]
 80039f8:	4a07      	ldr	r2, [pc, #28]	; (8003a18 <HAL_Init+0x28>)
 80039fa:	f043 0310 	orr.w	r3, r3, #16
 80039fe:	6013      	str	r3, [r2, #0]
#endif /* PREFETCH_ENABLE */

  /* Set Interrupt Group Priority */
  HAL_NVIC_SetPriorityGrouping(NVIC_PRIORITYGROUP_4);
 8003a00:	2003      	movs	r0, #3
 8003a02:	f000 f973 	bl	8003cec <HAL_NVIC_SetPriorityGrouping>

  /* Enable systick and configure 1ms tick (default clock after Reset is HSI) */
  HAL_InitTick(TICK_INT_PRIORITY);
 8003a06:	2000      	movs	r0, #0
 8003a08:	f000 f808 	bl	8003a1c <HAL_InitTick>

  /* Init the low level hardware */
  HAL_MspInit();
 8003a0c:	f7fe fdac 	bl	8002568 <HAL_MspInit>

  /* Return function status */
  return HAL_OK;
 8003a10:	2300      	movs	r3, #0
}
 8003a12:	4618      	mov	r0, r3
 8003a14:	bd80      	pop	{r7, pc}
 8003a16:	bf00      	nop
 8003a18:	40022000 	.word	0x40022000

08003a1c <HAL_InitTick>:
  *         implementation  in user file.
  * @param TickPriority Tick interrupt priority.
  * @retval HAL status
  */
__weak HAL_StatusTypeDef HAL_InitTick(uint32_t TickPriority)
{
 8003a1c:	b580      	push	{r7, lr}
 8003a1e:	b082      	sub	sp, #8
 8003a20:	af00      	add	r7, sp, #0
 8003a22:	6078      	str	r0, [r7, #4]
  /* Configure the SysTick to have interrupt in 1ms time basis*/
  if (HAL_SYSTICK_Config(SystemCoreClock / (1000U / uwTickFreq)) > 0U)
 8003a24:	4b12      	ldr	r3, [pc, #72]	; (8003a70 <HAL_InitTick+0x54>)
 8003a26:	681a      	ldr	r2, [r3, #0]
 8003a28:	4b12      	ldr	r3, [pc, #72]	; (8003a74 <HAL_InitTick+0x58>)
 8003a2a:	781b      	ldrb	r3, [r3, #0]
 8003a2c:	4619      	mov	r1, r3
 8003a2e:	f44f 737a 	mov.w	r3, #1000	; 0x3e8
 8003a32:	fbb3 f3f1 	udiv	r3, r3, r1
 8003a36:	fbb2 f3f3 	udiv	r3, r2, r3
 8003a3a:	4618      	mov	r0, r3
 8003a3c:	f000 f999 	bl	8003d72 <HAL_SYSTICK_Config>
 8003a40:	4603      	mov	r3, r0
 8003a42:	2b00      	cmp	r3, #0
 8003a44:	d001      	beq.n	8003a4a <HAL_InitTick+0x2e>
  {
    return HAL_ERROR;
 8003a46:	2301      	movs	r3, #1
 8003a48:	e00e      	b.n	8003a68 <HAL_InitTick+0x4c>
  }

  /* Configure the SysTick IRQ priority */
  if (TickPriority < (1UL << __NVIC_PRIO_BITS))
 8003a4a:	687b      	ldr	r3, [r7, #4]
 8003a4c:	2b0f      	cmp	r3, #15
 8003a4e:	d80a      	bhi.n	8003a66 <HAL_InitTick+0x4a>
  {
    HAL_NVIC_SetPriority(SysTick_IRQn, TickPriority, 0U);
 8003a50:	2200      	movs	r2, #0
 8003a52:	6879      	ldr	r1, [r7, #4]
 8003a54:	f04f 30ff 	mov.w	r0, #4294967295
 8003a58:	f000 f953 	bl	8003d02 <HAL_NVIC_SetPriority>
    uwTickPrio = TickPriority;
 8003a5c:	4a06      	ldr	r2, [pc, #24]	; (8003a78 <HAL_InitTick+0x5c>)
 8003a5e:	687b      	ldr	r3, [r7, #4]
 8003a60:	6013      	str	r3, [r2, #0]
  else
  {
    return HAL_ERROR;
  }
   /* Return function status */
  return HAL_OK;
 8003a62:	2300      	movs	r3, #0
 8003a64:	e000      	b.n	8003a68 <HAL_InitTick+0x4c>
    return HAL_ERROR;
 8003a66:	2301      	movs	r3, #1
}
 8003a68:	4618      	mov	r0, r3
 8003a6a:	3708      	adds	r7, #8
 8003a6c:	46bd      	mov	sp, r7
 8003a6e:	bd80      	pop	{r7, pc}
 8003a70:	2000180c 	.word	0x2000180c
 8003a74:	20001840 	.word	0x20001840
 8003a78:	2000183c 	.word	0x2000183c

08003a7c <HAL_IncTick>:
  * @note This function is declared as __weak to be overwritten in case of other 
  *         implementations  in user file.
  * @retval None
  */
__weak void HAL_IncTick(void)
{
 8003a7c:	b480      	push	{r7}
 8003a7e:	af00      	add	r7, sp, #0
  uwTick += uwTickFreq;
 8003a80:	4b06      	ldr	r3, [pc, #24]	; (8003a9c <HAL_IncTick+0x20>)
 8003a82:	781b      	ldrb	r3, [r3, #0]
 8003a84:	461a      	mov	r2, r3
 8003a86:	4b06      	ldr	r3, [pc, #24]	; (8003aa0 <HAL_IncTick+0x24>)
 8003a88:	681b      	ldr	r3, [r3, #0]
 8003a8a:	4413      	add	r3, r2
 8003a8c:	4a04      	ldr	r2, [pc, #16]	; (8003aa0 <HAL_IncTick+0x24>)
 8003a8e:	6013      	str	r3, [r2, #0]
}
 8003a90:	bf00      	nop
 8003a92:	46bd      	mov	sp, r7
 8003a94:	f85d 7b04 	ldr.w	r7, [sp], #4
 8003a98:	4770      	bx	lr
 8003a9a:	bf00      	nop
 8003a9c:	20001840 	.word	0x20001840
 8003aa0:	200036e8 	.word	0x200036e8

08003aa4 <HAL_GetTick>:
  * @note   The function is declared as __Weak  to be overwritten  in case of other 
  *         implementations  in user file.
  * @retval tick value
  */
__weak uint32_t HAL_GetTick(void)
{
 8003aa4:	b480      	push	{r7}
 8003aa6:	af00      	add	r7, sp, #0
  return uwTick;  
 8003aa8:	4b03      	ldr	r3, [pc, #12]	; (8003ab8 <HAL_GetTick+0x14>)
 8003aaa:	681b      	ldr	r3, [r3, #0]
}
 8003aac:	4618      	mov	r0, r3
 8003aae:	46bd      	mov	sp, r7
 8003ab0:	f85d 7b04 	ldr.w	r7, [sp], #4
 8003ab4:	4770      	bx	lr
 8003ab6:	bf00      	nop
 8003ab8:	200036e8 	.word	0x200036e8

08003abc <HAL_Delay>:
  *         implementations  in user file.
  * @param  Delay specifies the delay time length, in milliseconds.
  * @retval None
  */
__weak void HAL_Delay(uint32_t Delay)
{
 8003abc:	b580      	push	{r7, lr}
 8003abe:	b084      	sub	sp, #16
 8003ac0:	af00      	add	r7, sp, #0
 8003ac2:	6078      	str	r0, [r7, #4]
  uint32_t tickstart = HAL_GetTick();
 8003ac4:	f7ff ffee 	bl	8003aa4 <HAL_GetTick>
 8003ac8:	60b8      	str	r0, [r7, #8]
  uint32_t wait = Delay;
 8003aca:	687b      	ldr	r3, [r7, #4]
 8003acc:	60fb      	str	r3, [r7, #12]
  
  /* Add freq to guarantee minimum wait */
  if (wait < HAL_MAX_DELAY)
 8003ace:	68fb      	ldr	r3, [r7, #12]
 8003ad0:	f1b3 3fff 	cmp.w	r3, #4294967295
 8003ad4:	d005      	beq.n	8003ae2 <HAL_Delay+0x26>
  {
    wait += (uint32_t)(uwTickFreq);
 8003ad6:	4b0a      	ldr	r3, [pc, #40]	; (8003b00 <HAL_Delay+0x44>)
 8003ad8:	781b      	ldrb	r3, [r3, #0]
 8003ada:	461a      	mov	r2, r3
 8003adc:	68fb      	ldr	r3, [r7, #12]
 8003ade:	4413      	add	r3, r2
 8003ae0:	60fb      	str	r3, [r7, #12]
  }
  
  while((HAL_GetTick() - tickstart) < wait)
 8003ae2:	bf00      	nop
 8003ae4:	f7ff ffde 	bl	8003aa4 <HAL_GetTick>
 8003ae8:	4602      	mov	r2, r0
 8003aea:	68bb      	ldr	r3, [r7, #8]
 8003aec:	1ad3      	subs	r3, r2, r3
 8003aee:	68fa      	ldr	r2, [r7, #12]
 8003af0:	429a      	cmp	r2, r3
 8003af2:	d8f7      	bhi.n	8003ae4 <HAL_Delay+0x28>
  {
  }
}
 8003af4:	bf00      	nop
 8003af6:	bf00      	nop
 8003af8:	3710      	adds	r7, #16
 8003afa:	46bd      	mov	sp, r7
 8003afc:	bd80      	pop	{r7, pc}
 8003afe:	bf00      	nop
 8003b00:	20001840 	.word	0x20001840

08003b04 <__NVIC_SetPriorityGrouping>:
           In case of a conflict between priority grouping and available
           priority bits (__NVIC_PRIO_BITS), the smallest possible priority group is set.
  \param [in]      PriorityGroup  Priority grouping field.
 */
__STATIC_INLINE void __NVIC_SetPriorityGrouping(uint32_t PriorityGroup)
{
 8003b04:	b480      	push	{r7}
 8003b06:	b085      	sub	sp, #20
 8003b08:	af00      	add	r7, sp, #0
 8003b0a:	6078      	str	r0, [r7, #4]
  uint32_t reg_value;
  uint32_t PriorityGroupTmp = (PriorityGroup & (uint32_t)0x07UL);             /* only values 0..7 are used          */
 8003b0c:	687b      	ldr	r3, [r7, #4]
 8003b0e:	f003 0307 	and.w	r3, r3, #7
 8003b12:	60fb      	str	r3, [r7, #12]

  reg_value  =  SCB->AIRCR;                                                   /* read old register configuration    */
 8003b14:	4b0c      	ldr	r3, [pc, #48]	; (8003b48 <__NVIC_SetPriorityGrouping+0x44>)
 8003b16:	68db      	ldr	r3, [r3, #12]
 8003b18:	60bb      	str	r3, [r7, #8]
  reg_value &= ~((uint32_t)(SCB_AIRCR_VECTKEY_Msk | SCB_AIRCR_PRIGROUP_Msk)); /* clear bits to change               */
 8003b1a:	68ba      	ldr	r2, [r7, #8]
 8003b1c:	f64f 03ff 	movw	r3, #63743	; 0xf8ff
 8003b20:	4013      	ands	r3, r2
 8003b22:	60bb      	str	r3, [r7, #8]
  reg_value  =  (reg_value                                   |
                ((uint32_t)0x5FAUL << SCB_AIRCR_VECTKEY_Pos) |
                (PriorityGroupTmp << SCB_AIRCR_PRIGROUP_Pos)  );              /* Insert write key and priority group */
 8003b24:	68fb      	ldr	r3, [r7, #12]
 8003b26:	021a      	lsls	r2, r3, #8
                ((uint32_t)0x5FAUL << SCB_AIRCR_VECTKEY_Pos) |
 8003b28:	68bb      	ldr	r3, [r7, #8]
 8003b2a:	4313      	orrs	r3, r2
  reg_value  =  (reg_value                                   |
 8003b2c:	f043 63bf 	orr.w	r3, r3, #100139008	; 0x5f80000
 8003b30:	f443 3300 	orr.w	r3, r3, #131072	; 0x20000
 8003b34:	60bb      	str	r3, [r7, #8]
  SCB->AIRCR =  reg_value;
 8003b36:	4a04      	ldr	r2, [pc, #16]	; (8003b48 <__NVIC_SetPriorityGrouping+0x44>)
 8003b38:	68bb      	ldr	r3, [r7, #8]
 8003b3a:	60d3      	str	r3, [r2, #12]
}
 8003b3c:	bf00      	nop
 8003b3e:	3714      	adds	r7, #20
 8003b40:	46bd      	mov	sp, r7
 8003b42:	f85d 7b04 	ldr.w	r7, [sp], #4
 8003b46:	4770      	bx	lr
 8003b48:	e000ed00 	.word	0xe000ed00

08003b4c <__NVIC_GetPriorityGrouping>:
  \brief   Get Priority Grouping
  \details Reads the priority grouping field from the NVIC Interrupt Controller.
  \return                Priority grouping field (SCB->AIRCR [10:8] PRIGROUP field).
 */
__STATIC_INLINE uint32_t __NVIC_GetPriorityGrouping(void)
{
 8003b4c:	b480      	push	{r7}
 8003b4e:	af00      	add	r7, sp, #0
  return ((uint32_t)((SCB->AIRCR & SCB_AIRCR_PRIGROUP_Msk) >> SCB_AIRCR_PRIGROUP_Pos));
 8003b50:	4b04      	ldr	r3, [pc, #16]	; (8003b64 <__NVIC_GetPriorityGrouping+0x18>)
 8003b52:	68db      	ldr	r3, [r3, #12]
 8003b54:	0a1b      	lsrs	r3, r3, #8
 8003b56:	f003 0307 	and.w	r3, r3, #7
}
 8003b5a:	4618      	mov	r0, r3
 8003b5c:	46bd      	mov	sp, r7
 8003b5e:	f85d 7b04 	ldr.w	r7, [sp], #4
 8003b62:	4770      	bx	lr
 8003b64:	e000ed00 	.word	0xe000ed00

08003b68 <__NVIC_EnableIRQ>:
  \details Enables a device specific interrupt in the NVIC interrupt controller.
  \param [in]      IRQn  Device specific interrupt number.
  \note    IRQn must not be negative.
 */
__STATIC_INLINE void __NVIC_EnableIRQ(IRQn_Type IRQn)
{
 8003b68:	b480      	push	{r7}
 8003b6a:	b083      	sub	sp, #12
 8003b6c:	af00      	add	r7, sp, #0
 8003b6e:	4603      	mov	r3, r0
 8003b70:	71fb      	strb	r3, [r7, #7]
  if ((int32_t)(IRQn) >= 0)
 8003b72:	f997 3007 	ldrsb.w	r3, [r7, #7]
 8003b76:	2b00      	cmp	r3, #0
 8003b78:	db0b      	blt.n	8003b92 <__NVIC_EnableIRQ+0x2a>
  {
    NVIC->ISER[(((uint32_t)IRQn) >> 5UL)] = (uint32_t)(1UL << (((uint32_t)IRQn) & 0x1FUL));
 8003b7a:	79fb      	ldrb	r3, [r7, #7]
 8003b7c:	f003 021f 	and.w	r2, r3, #31
 8003b80:	4907      	ldr	r1, [pc, #28]	; (8003ba0 <__NVIC_EnableIRQ+0x38>)
 8003b82:	f997 3007 	ldrsb.w	r3, [r7, #7]
 8003b86:	095b      	lsrs	r3, r3, #5
 8003b88:	2001      	movs	r0, #1
 8003b8a:	fa00 f202 	lsl.w	r2, r0, r2
 8003b8e:	f841 2023 	str.w	r2, [r1, r3, lsl #2]
  }
}
 8003b92:	bf00      	nop
 8003b94:	370c      	adds	r7, #12
 8003b96:	46bd      	mov	sp, r7
 8003b98:	f85d 7b04 	ldr.w	r7, [sp], #4
 8003b9c:	4770      	bx	lr
 8003b9e:	bf00      	nop
 8003ba0:	e000e100 	.word	0xe000e100

08003ba4 <__NVIC_DisableIRQ>:
  \details Disables a device specific interrupt in the NVIC interrupt controller.
  \param [in]      IRQn  Device specific interrupt number.
  \note    IRQn must not be negative.
 */
__STATIC_INLINE void __NVIC_DisableIRQ(IRQn_Type IRQn)
{
 8003ba4:	b480      	push	{r7}
 8003ba6:	b083      	sub	sp, #12
 8003ba8:	af00      	add	r7, sp, #0
 8003baa:	4603      	mov	r3, r0
 8003bac:	71fb      	strb	r3, [r7, #7]
  if ((int32_t)(IRQn) >= 0)
 8003bae:	f997 3007 	ldrsb.w	r3, [r7, #7]
 8003bb2:	2b00      	cmp	r3, #0
 8003bb4:	db12      	blt.n	8003bdc <__NVIC_DisableIRQ+0x38>
  {
    NVIC->ICER[(((uint32_t)IRQn) >> 5UL)] = (uint32_t)(1UL << (((uint32_t)IRQn) & 0x1FUL));
 8003bb6:	79fb      	ldrb	r3, [r7, #7]
 8003bb8:	f003 021f 	and.w	r2, r3, #31
 8003bbc:	490a      	ldr	r1, [pc, #40]	; (8003be8 <__NVIC_DisableIRQ+0x44>)
 8003bbe:	f997 3007 	ldrsb.w	r3, [r7, #7]
 8003bc2:	095b      	lsrs	r3, r3, #5
 8003bc4:	2001      	movs	r0, #1
 8003bc6:	fa00 f202 	lsl.w	r2, r0, r2
 8003bca:	3320      	adds	r3, #32
 8003bcc:	f841 2023 	str.w	r2, [r1, r3, lsl #2]
  __ASM volatile ("dsb 0xF":::"memory");
 8003bd0:	f3bf 8f4f 	dsb	sy
}
 8003bd4:	bf00      	nop
  __ASM volatile ("isb 0xF":::"memory");
 8003bd6:	f3bf 8f6f 	isb	sy
}
 8003bda:	bf00      	nop
    __DSB();
    __ISB();
  }
}
 8003bdc:	bf00      	nop
 8003bde:	370c      	adds	r7, #12
 8003be0:	46bd      	mov	sp, r7
 8003be2:	f85d 7b04 	ldr.w	r7, [sp], #4
 8003be6:	4770      	bx	lr
 8003be8:	e000e100 	.word	0xe000e100

08003bec <__NVIC_SetPriority>:
  \param [in]      IRQn  Interrupt number.
  \param [in]  priority  Priority to set.
  \note    The priority cannot be set for every processor exception.
 */
__STATIC_INLINE void __NVIC_SetPriority(IRQn_Type IRQn, uint32_t priority)
{
 8003bec:	b480      	push	{r7}
 8003bee:	b083      	sub	sp, #12
 8003bf0:	af00      	add	r7, sp, #0
 8003bf2:	4603      	mov	r3, r0
 8003bf4:	6039      	str	r1, [r7, #0]
 8003bf6:	71fb      	strb	r3, [r7, #7]
  if ((int32_t)(IRQn) >= 0)
 8003bf8:	f997 3007 	ldrsb.w	r3, [r7, #7]
 8003bfc:	2b00      	cmp	r3, #0
 8003bfe:	db0a      	blt.n	8003c16 <__NVIC_SetPriority+0x2a>
  {
    NVIC->IP[((uint32_t)IRQn)]               = (uint8_t)((priority << (8U - __NVIC_PRIO_BITS)) & (uint32_t)0xFFUL);
 8003c00:	683b      	ldr	r3, [r7, #0]
 8003c02:	b2da      	uxtb	r2, r3
 8003c04:	490c      	ldr	r1, [pc, #48]	; (8003c38 <__NVIC_SetPriority+0x4c>)
 8003c06:	f997 3007 	ldrsb.w	r3, [r7, #7]
 8003c0a:	0112      	lsls	r2, r2, #4
 8003c0c:	b2d2      	uxtb	r2, r2
 8003c0e:	440b      	add	r3, r1
 8003c10:	f883 2300 	strb.w	r2, [r3, #768]	; 0x300
  }
  else
  {
    SCB->SHP[(((uint32_t)IRQn) & 0xFUL)-4UL] = (uint8_t)((priority << (8U - __NVIC_PRIO_BITS)) & (uint32_t)0xFFUL);
  }
}
 8003c14:	e00a      	b.n	8003c2c <__NVIC_SetPriority+0x40>
    SCB->SHP[(((uint32_t)IRQn) & 0xFUL)-4UL] = (uint8_t)((priority << (8U - __NVIC_PRIO_BITS)) & (uint32_t)0xFFUL);
 8003c16:	683b      	ldr	r3, [r7, #0]
 8003c18:	b2da      	uxtb	r2, r3
 8003c1a:	4908      	ldr	r1, [pc, #32]	; (8003c3c <__NVIC_SetPriority+0x50>)
 8003c1c:	79fb      	ldrb	r3, [r7, #7]
 8003c1e:	f003 030f 	and.w	r3, r3, #15
 8003c22:	3b04      	subs	r3, #4
 8003c24:	0112      	lsls	r2, r2, #4
 8003c26:	b2d2      	uxtb	r2, r2
 8003c28:	440b      	add	r3, r1
 8003c2a:	761a      	strb	r2, [r3, #24]
}
 8003c2c:	bf00      	nop
 8003c2e:	370c      	adds	r7, #12
 8003c30:	46bd      	mov	sp, r7
 8003c32:	f85d 7b04 	ldr.w	r7, [sp], #4
 8003c36:	4770      	bx	lr
 8003c38:	e000e100 	.word	0xe000e100
 8003c3c:	e000ed00 	.word	0xe000ed00

08003c40 <NVIC_EncodePriority>:
  \param [in]   PreemptPriority  Preemptive priority value (starting from 0).
  \param [in]       SubPriority  Subpriority value (starting from 0).
  \return                        Encoded priority. Value can be used in the function \ref NVIC_SetPriority().
 */
__STATIC_INLINE uint32_t NVIC_EncodePriority (uint32_t PriorityGroup, uint32_t PreemptPriority, uint32_t SubPriority)
{
 8003c40:	b480      	push	{r7}
 8003c42:	b089      	sub	sp, #36	; 0x24
 8003c44:	af00      	add	r7, sp, #0
 8003c46:	60f8      	str	r0, [r7, #12]
 8003c48:	60b9      	str	r1, [r7, #8]
 8003c4a:	607a      	str	r2, [r7, #4]
  uint32_t PriorityGroupTmp = (PriorityGroup & (uint32_t)0x07UL);   /* only values 0..7 are used          */
 8003c4c:	68fb      	ldr	r3, [r7, #12]
 8003c4e:	f003 0307 	and.w	r3, r3, #7
 8003c52:	61fb      	str	r3, [r7, #28]
  uint32_t PreemptPriorityBits;
  uint32_t SubPriorityBits;

  PreemptPriorityBits = ((7UL - PriorityGroupTmp) > (uint32_t)(__NVIC_PRIO_BITS)) ? (uint32_t)(__NVIC_PRIO_BITS) : (uint32_t)(7UL - PriorityGroupTmp);
 8003c54:	69fb      	ldr	r3, [r7, #28]
 8003c56:	f1c3 0307 	rsb	r3, r3, #7
 8003c5a:	2b04      	cmp	r3, #4
 8003c5c:	bf28      	it	cs
 8003c5e:	2304      	movcs	r3, #4
 8003c60:	61bb      	str	r3, [r7, #24]
  SubPriorityBits     = ((PriorityGroupTmp + (uint32_t)(__NVIC_PRIO_BITS)) < (uint32_t)7UL) ? (uint32_t)0UL : (uint32_t)((PriorityGroupTmp - 7UL) + (uint32_t)(__NVIC_PRIO_BITS));
 8003c62:	69fb      	ldr	r3, [r7, #28]
 8003c64:	3304      	adds	r3, #4
 8003c66:	2b06      	cmp	r3, #6
 8003c68:	d902      	bls.n	8003c70 <NVIC_EncodePriority+0x30>
 8003c6a:	69fb      	ldr	r3, [r7, #28]
 8003c6c:	3b03      	subs	r3, #3
 8003c6e:	e000      	b.n	8003c72 <NVIC_EncodePriority+0x32>
 8003c70:	2300      	movs	r3, #0
 8003c72:	617b      	str	r3, [r7, #20]

  return (
           ((PreemptPriority & (uint32_t)((1UL << (PreemptPriorityBits)) - 1UL)) << SubPriorityBits) |
 8003c74:	f04f 32ff 	mov.w	r2, #4294967295
 8003c78:	69bb      	ldr	r3, [r7, #24]
 8003c7a:	fa02 f303 	lsl.w	r3, r2, r3
 8003c7e:	43da      	mvns	r2, r3
 8003c80:	68bb      	ldr	r3, [r7, #8]
 8003c82:	401a      	ands	r2, r3
 8003c84:	697b      	ldr	r3, [r7, #20]
 8003c86:	409a      	lsls	r2, r3
           ((SubPriority     & (uint32_t)((1UL << (SubPriorityBits    )) - 1UL)))
 8003c88:	f04f 31ff 	mov.w	r1, #4294967295
 8003c8c:	697b      	ldr	r3, [r7, #20]
 8003c8e:	fa01 f303 	lsl.w	r3, r1, r3
 8003c92:	43d9      	mvns	r1, r3
 8003c94:	687b      	ldr	r3, [r7, #4]
 8003c96:	400b      	ands	r3, r1
           ((PreemptPriority & (uint32_t)((1UL << (PreemptPriorityBits)) - 1UL)) << SubPriorityBits) |
 8003c98:	4313      	orrs	r3, r2
         );
}
 8003c9a:	4618      	mov	r0, r3
 8003c9c:	3724      	adds	r7, #36	; 0x24
 8003c9e:	46bd      	mov	sp, r7
 8003ca0:	f85d 7b04 	ldr.w	r7, [sp], #4
 8003ca4:	4770      	bx	lr
	...

08003ca8 <SysTick_Config>:
  \note    When the variable <b>__Vendor_SysTickConfig</b> is set to 1, then the
           function <b>SysTick_Config</b> is not included. In this case, the file <b><i>device</i>.h</b>
           must contain a vendor-specific implementation of this function.
 */
__STATIC_INLINE uint32_t SysTick_Config(uint32_t ticks)
{
 8003ca8:	b580      	push	{r7, lr}
 8003caa:	b082      	sub	sp, #8
 8003cac:	af00      	add	r7, sp, #0
 8003cae:	6078      	str	r0, [r7, #4]
  if ((ticks - 1UL) > SysTick_LOAD_RELOAD_Msk)
 8003cb0:	687b      	ldr	r3, [r7, #4]
 8003cb2:	3b01      	subs	r3, #1
 8003cb4:	f1b3 7f80 	cmp.w	r3, #16777216	; 0x1000000
 8003cb8:	d301      	bcc.n	8003cbe <SysTick_Config+0x16>
  {
    return (1UL);                                                   /* Reload value impossible */
 8003cba:	2301      	movs	r3, #1
 8003cbc:	e00f      	b.n	8003cde <SysTick_Config+0x36>
  }

  SysTick->LOAD  = (uint32_t)(ticks - 1UL);                         /* set reload register */
 8003cbe:	4a0a      	ldr	r2, [pc, #40]	; (8003ce8 <SysTick_Config+0x40>)
 8003cc0:	687b      	ldr	r3, [r7, #4]
 8003cc2:	3b01      	subs	r3, #1
 8003cc4:	6053      	str	r3, [r2, #4]
  NVIC_SetPriority (SysTick_IRQn, (1UL << __NVIC_PRIO_BITS) - 1UL); /* set Priority for Systick Interrupt */
 8003cc6:	210f      	movs	r1, #15
 8003cc8:	f04f 30ff 	mov.w	r0, #4294967295
 8003ccc:	f7ff ff8e 	bl	8003bec <__NVIC_SetPriority>
  SysTick->VAL   = 0UL;                                             /* Load the SysTick Counter Value */
 8003cd0:	4b05      	ldr	r3, [pc, #20]	; (8003ce8 <SysTick_Config+0x40>)
 8003cd2:	2200      	movs	r2, #0
 8003cd4:	609a      	str	r2, [r3, #8]
  SysTick->CTRL  = SysTick_CTRL_CLKSOURCE_Msk |
 8003cd6:	4b04      	ldr	r3, [pc, #16]	; (8003ce8 <SysTick_Config+0x40>)
 8003cd8:	2207      	movs	r2, #7
 8003cda:	601a      	str	r2, [r3, #0]
                   SysTick_CTRL_TICKINT_Msk   |
                   SysTick_CTRL_ENABLE_Msk;                         /* Enable SysTick IRQ and SysTick Timer */
  return (0UL);                                                     /* Function successful */
 8003cdc:	2300      	movs	r3, #0
}
 8003cde:	4618      	mov	r0, r3
 8003ce0:	3708      	adds	r7, #8
 8003ce2:	46bd      	mov	sp, r7
 8003ce4:	bd80      	pop	{r7, pc}
 8003ce6:	bf00      	nop
 8003ce8:	e000e010 	.word	0xe000e010

08003cec <HAL_NVIC_SetPriorityGrouping>:
  * @note   When the NVIC_PriorityGroup_0 is selected, IRQ pre-emption is no more possible.
  *         The pending IRQ priority will be managed only by the subpriority.
  * @retval None
  */
void HAL_NVIC_SetPriorityGrouping(uint32_t PriorityGroup)
{
 8003cec:	b580      	push	{r7, lr}
 8003cee:	b082      	sub	sp, #8
 8003cf0:	af00      	add	r7, sp, #0
 8003cf2:	6078      	str	r0, [r7, #4]
  /* Check the parameters */
  assert_param(IS_NVIC_PRIORITY_GROUP(PriorityGroup));

  /* Set the PRIGROUP[10:8] bits according to the PriorityGroup parameter value */
  NVIC_SetPriorityGrouping(PriorityGroup);
 8003cf4:	6878      	ldr	r0, [r7, #4]
 8003cf6:	f7ff ff05 	bl	8003b04 <__NVIC_SetPriorityGrouping>
}
 8003cfa:	bf00      	nop
 8003cfc:	3708      	adds	r7, #8
 8003cfe:	46bd      	mov	sp, r7
 8003d00:	bd80      	pop	{r7, pc}

08003d02 <HAL_NVIC_SetPriority>:
  *         This parameter can be a value between 0 and 15 as described in the table CORTEX_NVIC_Priority_Table
  *         A lower priority value indicates a higher priority.
  * @retval None
  */
void HAL_NVIC_SetPriority(IRQn_Type IRQn, uint32_t PreemptPriority, uint32_t SubPriority)
{
 8003d02:	b580      	push	{r7, lr}
 8003d04:	b086      	sub	sp, #24
 8003d06:	af00      	add	r7, sp, #0
 8003d08:	4603      	mov	r3, r0
 8003d0a:	60b9      	str	r1, [r7, #8]
 8003d0c:	607a      	str	r2, [r7, #4]
 8003d0e:	73fb      	strb	r3, [r7, #15]
  uint32_t prioritygroup = 0x00U;
 8003d10:	2300      	movs	r3, #0
 8003d12:	617b      	str	r3, [r7, #20]
  
  /* Check the parameters */
  assert_param(IS_NVIC_SUB_PRIORITY(SubPriority));
  assert_param(IS_NVIC_PREEMPTION_PRIORITY(PreemptPriority));
  
  prioritygroup = NVIC_GetPriorityGrouping();
 8003d14:	f7ff ff1a 	bl	8003b4c <__NVIC_GetPriorityGrouping>
 8003d18:	6178      	str	r0, [r7, #20]
  
  NVIC_SetPriority(IRQn, NVIC_EncodePriority(prioritygroup, PreemptPriority, SubPriority));
 8003d1a:	687a      	ldr	r2, [r7, #4]
 8003d1c:	68b9      	ldr	r1, [r7, #8]
 8003d1e:	6978      	ldr	r0, [r7, #20]
 8003d20:	f7ff ff8e 	bl	8003c40 <NVIC_EncodePriority>
 8003d24:	4602      	mov	r2, r0
 8003d26:	f997 300f 	ldrsb.w	r3, [r7, #15]
 8003d2a:	4611      	mov	r1, r2
 8003d2c:	4618      	mov	r0, r3
 8003d2e:	f7ff ff5d 	bl	8003bec <__NVIC_SetPriority>
}
 8003d32:	bf00      	nop
 8003d34:	3718      	adds	r7, #24
 8003d36:	46bd      	mov	sp, r7
 8003d38:	bd80      	pop	{r7, pc}

08003d3a <HAL_NVIC_EnableIRQ>:
  *         This parameter can be an enumerator of IRQn_Type enumeration
  *         (For the complete STM32 Devices IRQ Channels list, please refer to the appropriate CMSIS device file (stm32f3xxxx.h))
  * @retval None
  */
void HAL_NVIC_EnableIRQ(IRQn_Type IRQn)
{
 8003d3a:	b580      	push	{r7, lr}
 8003d3c:	b082      	sub	sp, #8
 8003d3e:	af00      	add	r7, sp, #0
 8003d40:	4603      	mov	r3, r0
 8003d42:	71fb      	strb	r3, [r7, #7]
  /* Check the parameters */
  assert_param(IS_NVIC_DEVICE_IRQ(IRQn));
  
  /* Enable interrupt */
  NVIC_EnableIRQ(IRQn);
 8003d44:	f997 3007 	ldrsb.w	r3, [r7, #7]
 8003d48:	4618      	mov	r0, r3
 8003d4a:	f7ff ff0d 	bl	8003b68 <__NVIC_EnableIRQ>
}
 8003d4e:	bf00      	nop
 8003d50:	3708      	adds	r7, #8
 8003d52:	46bd      	mov	sp, r7
 8003d54:	bd80      	pop	{r7, pc}

08003d56 <HAL_NVIC_DisableIRQ>:
  *         This parameter can be an enumerator of IRQn_Type enumeration
  *         (For the complete STM32 Devices IRQ Channels list, please refer to the appropriate CMSIS device file (stm32f3xxxx.h))
  * @retval None
  */
void HAL_NVIC_DisableIRQ(IRQn_Type IRQn)
{
 8003d56:	b580      	push	{r7, lr}
 8003d58:	b082      	sub	sp, #8
 8003d5a:	af00      	add	r7, sp, #0
 8003d5c:	4603      	mov	r3, r0
 8003d5e:	71fb      	strb	r3, [r7, #7]
  /* Check the parameters */
  assert_param(IS_NVIC_DEVICE_IRQ(IRQn));
  
  /* Disable interrupt */
  NVIC_DisableIRQ(IRQn);
 8003d60:	f997 3007 	ldrsb.w	r3, [r7, #7]
 8003d64:	4618      	mov	r0, r3
 8003d66:	f7ff ff1d 	bl	8003ba4 <__NVIC_DisableIRQ>
}
 8003d6a:	bf00      	nop
 8003d6c:	3708      	adds	r7, #8
 8003d6e:	46bd      	mov	sp, r7
 8003d70:	bd80      	pop	{r7, pc}

08003d72 <HAL_SYSTICK_Config>:
  * @param  TicksNumb Specifies the ticks Number of ticks between two interrupts.
  * @retval status:  - 0  Function succeeded.
  *                  - 1  Function failed.
  */
uint32_t HAL_SYSTICK_Config(uint32_t TicksNumb)
{
 8003d72:	b580      	push	{r7, lr}
 8003d74:	b082      	sub	sp, #8
 8003d76:	af00      	add	r7, sp, #0
 8003d78:	6078      	str	r0, [r7, #4]
   return SysTick_Config(TicksNumb);
 8003d7a:	6878      	ldr	r0, [r7, #4]
 8003d7c:	f7ff ff94 	bl	8003ca8 <SysTick_Config>
 8003d80:	4603      	mov	r3, r0
}
 8003d82:	4618      	mov	r0, r3
 8003d84:	3708      	adds	r7, #8
 8003d86:	46bd      	mov	sp, r7
 8003d88:	bd80      	pop	{r7, pc}
	...

08003d8c <HAL_GPIO_Init>:
  * @param  GPIO_Init pointer to a GPIO_InitTypeDef structure that contains
  *         the configuration information for the specified GPIO peripheral.
  * @retval None
  */
void HAL_GPIO_Init(GPIO_TypeDef  *GPIOx, GPIO_InitTypeDef *GPIO_Init)
{
 8003d8c:	b480      	push	{r7}
 8003d8e:	b087      	sub	sp, #28
 8003d90:	af00      	add	r7, sp, #0
 8003d92:	6078      	str	r0, [r7, #4]
 8003d94:	6039      	str	r1, [r7, #0]
  uint32_t position = 0x00u;
 8003d96:	2300      	movs	r3, #0
 8003d98:	617b      	str	r3, [r7, #20]
  assert_param(IS_GPIO_ALL_INSTANCE(GPIOx));
  assert_param(IS_GPIO_PIN(GPIO_Init->Pin));
  assert_param(IS_GPIO_MODE(GPIO_Init->Mode));

  /* Configure the port pins */
  while (((GPIO_Init->Pin) >> position) != 0x00u)
 8003d9a:	e14e      	b.n	800403a <HAL_GPIO_Init+0x2ae>
  {
    /* Get current io position */
    iocurrent = (GPIO_Init->Pin) & (1uL << position);
 8003d9c:	683b      	ldr	r3, [r7, #0]
 8003d9e:	681a      	ldr	r2, [r3, #0]
 8003da0:	2101      	movs	r1, #1
 8003da2:	697b      	ldr	r3, [r7, #20]
 8003da4:	fa01 f303 	lsl.w	r3, r1, r3
 8003da8:	4013      	ands	r3, r2
 8003daa:	60fb      	str	r3, [r7, #12]

    if (iocurrent != 0x00u)
 8003dac:	68fb      	ldr	r3, [r7, #12]
 8003dae:	2b00      	cmp	r3, #0
 8003db0:	f000 8140 	beq.w	8004034 <HAL_GPIO_Init+0x2a8>
    {
      /*--------------------- GPIO Mode Configuration ------------------------*/
      /* In case of Output or Alternate function mode selection */
      if(((GPIO_Init->Mode & GPIO_MODE) == MODE_OUTPUT) || ((GPIO_Init->Mode & GPIO_MODE) == MODE_AF))
 8003db4:	683b      	ldr	r3, [r7, #0]
 8003db6:	685b      	ldr	r3, [r3, #4]
 8003db8:	f003 0303 	and.w	r3, r3, #3
 8003dbc:	2b01      	cmp	r3, #1
 8003dbe:	d005      	beq.n	8003dcc <HAL_GPIO_Init+0x40>
 8003dc0:	683b      	ldr	r3, [r7, #0]
 8003dc2:	685b      	ldr	r3, [r3, #4]
 8003dc4:	f003 0303 	and.w	r3, r3, #3
 8003dc8:	2b02      	cmp	r3, #2
 8003dca:	d130      	bne.n	8003e2e <HAL_GPIO_Init+0xa2>
      {
        /* Check the Speed parameter */
        assert_param(IS_GPIO_SPEED(GPIO_Init->Speed));
        /* Configure the IO Speed */
        temp = GPIOx->OSPEEDR;
 8003dcc:	687b      	ldr	r3, [r7, #4]
 8003dce:	689b      	ldr	r3, [r3, #8]
 8003dd0:	613b      	str	r3, [r7, #16]
        temp &= ~(GPIO_OSPEEDER_OSPEEDR0 << (position * 2u));
 8003dd2:	697b      	ldr	r3, [r7, #20]
 8003dd4:	005b      	lsls	r3, r3, #1
 8003dd6:	2203      	movs	r2, #3
 8003dd8:	fa02 f303 	lsl.w	r3, r2, r3
 8003ddc:	43db      	mvns	r3, r3
 8003dde:	693a      	ldr	r2, [r7, #16]
 8003de0:	4013      	ands	r3, r2
 8003de2:	613b      	str	r3, [r7, #16]
        temp |= (GPIO_Init->Speed << (position * 2u));
 8003de4:	683b      	ldr	r3, [r7, #0]
 8003de6:	68da      	ldr	r2, [r3, #12]
 8003de8:	697b      	ldr	r3, [r7, #20]
 8003dea:	005b      	lsls	r3, r3, #1
 8003dec:	fa02 f303 	lsl.w	r3, r2, r3
 8003df0:	693a      	ldr	r2, [r7, #16]
 8003df2:	4313      	orrs	r3, r2
 8003df4:	613b      	str	r3, [r7, #16]
        GPIOx->OSPEEDR = temp;
 8003df6:	687b      	ldr	r3, [r7, #4]
 8003df8:	693a      	ldr	r2, [r7, #16]
 8003dfa:	609a      	str	r2, [r3, #8]

        /* Configure the IO Output Type */
        temp = GPIOx->OTYPER;
 8003dfc:	687b      	ldr	r3, [r7, #4]
 8003dfe:	685b      	ldr	r3, [r3, #4]
 8003e00:	613b      	str	r3, [r7, #16]
        temp &= ~(GPIO_OTYPER_OT_0 << position) ;
 8003e02:	2201      	movs	r2, #1
 8003e04:	697b      	ldr	r3, [r7, #20]
 8003e06:	fa02 f303 	lsl.w	r3, r2, r3
 8003e0a:	43db      	mvns	r3, r3
 8003e0c:	693a      	ldr	r2, [r7, #16]
 8003e0e:	4013      	ands	r3, r2
 8003e10:	613b      	str	r3, [r7, #16]
        temp |= (((GPIO_Init->Mode & OUTPUT_TYPE) >> OUTPUT_TYPE_Pos) << position);
 8003e12:	683b      	ldr	r3, [r7, #0]
 8003e14:	685b      	ldr	r3, [r3, #4]
 8003e16:	091b      	lsrs	r3, r3, #4
 8003e18:	f003 0201 	and.w	r2, r3, #1
 8003e1c:	697b      	ldr	r3, [r7, #20]
 8003e1e:	fa02 f303 	lsl.w	r3, r2, r3
 8003e22:	693a      	ldr	r2, [r7, #16]
 8003e24:	4313      	orrs	r3, r2
 8003e26:	613b      	str	r3, [r7, #16]
        GPIOx->OTYPER = temp;
 8003e28:	687b      	ldr	r3, [r7, #4]
 8003e2a:	693a      	ldr	r2, [r7, #16]
 8003e2c:	605a      	str	r2, [r3, #4]
      }

      if((GPIO_Init->Mode & GPIO_MODE) != MODE_ANALOG)
 8003e2e:	683b      	ldr	r3, [r7, #0]
 8003e30:	685b      	ldr	r3, [r3, #4]
 8003e32:	f003 0303 	and.w	r3, r3, #3
 8003e36:	2b03      	cmp	r3, #3
 8003e38:	d017      	beq.n	8003e6a <HAL_GPIO_Init+0xde>
      {
        /* Check the Pull parameter */
        assert_param(IS_GPIO_PULL(GPIO_Init->Pull));

        /* Activate the Pull-up or Pull down resistor for the current IO */
        temp = GPIOx->PUPDR;
 8003e3a:	687b      	ldr	r3, [r7, #4]
 8003e3c:	68db      	ldr	r3, [r3, #12]
 8003e3e:	613b      	str	r3, [r7, #16]
        temp &= ~(GPIO_PUPDR_PUPDR0 << (position * 2u));
 8003e40:	697b      	ldr	r3, [r7, #20]
 8003e42:	005b      	lsls	r3, r3, #1
 8003e44:	2203      	movs	r2, #3
 8003e46:	fa02 f303 	lsl.w	r3, r2, r3
 8003e4a:	43db      	mvns	r3, r3
 8003e4c:	693a      	ldr	r2, [r7, #16]
 8003e4e:	4013      	ands	r3, r2
 8003e50:	613b      	str	r3, [r7, #16]
        temp |= ((GPIO_Init->Pull) << (position * 2u));
 8003e52:	683b      	ldr	r3, [r7, #0]
 8003e54:	689a      	ldr	r2, [r3, #8]
 8003e56:	697b      	ldr	r3, [r7, #20]
 8003e58:	005b      	lsls	r3, r3, #1
 8003e5a:	fa02 f303 	lsl.w	r3, r2, r3
 8003e5e:	693a      	ldr	r2, [r7, #16]
 8003e60:	4313      	orrs	r3, r2
 8003e62:	613b      	str	r3, [r7, #16]
        GPIOx->PUPDR = temp;
 8003e64:	687b      	ldr	r3, [r7, #4]
 8003e66:	693a      	ldr	r2, [r7, #16]
 8003e68:	60da      	str	r2, [r3, #12]
      }

      /*--------------------- GPIO Mode Configuration ------------------------*/
      /* In case of Alternate function mode selection */
      if((GPIO_Init->Mode & GPIO_MODE) == MODE_AF)
 8003e6a:	683b      	ldr	r3, [r7, #0]
 8003e6c:	685b      	ldr	r3, [r3, #4]
 8003e6e:	f003 0303 	and.w	r3, r3, #3
 8003e72:	2b02      	cmp	r3, #2
 8003e74:	d123      	bne.n	8003ebe <HAL_GPIO_Init+0x132>
        /* Check the Alternate function parameters */
        assert_param(IS_GPIO_AF_INSTANCE(GPIOx));
        assert_param(IS_GPIO_AF(GPIO_Init->Alternate));

        /* Configure Alternate function mapped with the current IO */
        temp = GPIOx->AFR[position >> 3u];
 8003e76:	697b      	ldr	r3, [r7, #20]
 8003e78:	08da      	lsrs	r2, r3, #3
 8003e7a:	687b      	ldr	r3, [r7, #4]
 8003e7c:	3208      	adds	r2, #8
 8003e7e:	f853 3022 	ldr.w	r3, [r3, r2, lsl #2]
 8003e82:	613b      	str	r3, [r7, #16]
        temp &= ~(0xFu << ((position & 0x07u) * 4u));
 8003e84:	697b      	ldr	r3, [r7, #20]
 8003e86:	f003 0307 	and.w	r3, r3, #7
 8003e8a:	009b      	lsls	r3, r3, #2
 8003e8c:	220f      	movs	r2, #15
 8003e8e:	fa02 f303 	lsl.w	r3, r2, r3
 8003e92:	43db      	mvns	r3, r3
 8003e94:	693a      	ldr	r2, [r7, #16]
 8003e96:	4013      	ands	r3, r2
 8003e98:	613b      	str	r3, [r7, #16]
        temp |= ((GPIO_Init->Alternate) << ((position & 0x07u) * 4u));
 8003e9a:	683b      	ldr	r3, [r7, #0]
 8003e9c:	691a      	ldr	r2, [r3, #16]
 8003e9e:	697b      	ldr	r3, [r7, #20]
 8003ea0:	f003 0307 	and.w	r3, r3, #7
 8003ea4:	009b      	lsls	r3, r3, #2
 8003ea6:	fa02 f303 	lsl.w	r3, r2, r3
 8003eaa:	693a      	ldr	r2, [r7, #16]
 8003eac:	4313      	orrs	r3, r2
 8003eae:	613b      	str	r3, [r7, #16]
        GPIOx->AFR[position >> 3u] = temp;
 8003eb0:	697b      	ldr	r3, [r7, #20]
 8003eb2:	08da      	lsrs	r2, r3, #3
 8003eb4:	687b      	ldr	r3, [r7, #4]
 8003eb6:	3208      	adds	r2, #8
 8003eb8:	6939      	ldr	r1, [r7, #16]
 8003eba:	f843 1022 	str.w	r1, [r3, r2, lsl #2]
      }

      /* Configure IO Direction mode (Input, Output, Alternate or Analog) */
      temp = GPIOx->MODER;
 8003ebe:	687b      	ldr	r3, [r7, #4]
 8003ec0:	681b      	ldr	r3, [r3, #0]
 8003ec2:	613b      	str	r3, [r7, #16]
      temp &= ~(GPIO_MODER_MODER0 << (position * 2u));
 8003ec4:	697b      	ldr	r3, [r7, #20]
 8003ec6:	005b      	lsls	r3, r3, #1
 8003ec8:	2203      	movs	r2, #3
 8003eca:	fa02 f303 	lsl.w	r3, r2, r3
 8003ece:	43db      	mvns	r3, r3
 8003ed0:	693a      	ldr	r2, [r7, #16]
 8003ed2:	4013      	ands	r3, r2
 8003ed4:	613b      	str	r3, [r7, #16]
      temp |= ((GPIO_Init->Mode & GPIO_MODE) << (position * 2u));
 8003ed6:	683b      	ldr	r3, [r7, #0]
 8003ed8:	685b      	ldr	r3, [r3, #4]
 8003eda:	f003 0203 	and.w	r2, r3, #3
 8003ede:	697b      	ldr	r3, [r7, #20]
 8003ee0:	005b      	lsls	r3, r3, #1
 8003ee2:	fa02 f303 	lsl.w	r3, r2, r3
 8003ee6:	693a      	ldr	r2, [r7, #16]
 8003ee8:	4313      	orrs	r3, r2
 8003eea:	613b      	str	r3, [r7, #16]
      GPIOx->MODER = temp;
 8003eec:	687b      	ldr	r3, [r7, #4]
 8003eee:	693a      	ldr	r2, [r7, #16]
 8003ef0:	601a      	str	r2, [r3, #0]

      /*--------------------- EXTI Mode Configuration ------------------------*/
      /* Configure the External Interrupt or event for the current IO */
      if((GPIO_Init->Mode & EXTI_MODE) != 0x00u)
 8003ef2:	683b      	ldr	r3, [r7, #0]
 8003ef4:	685b      	ldr	r3, [r3, #4]
 8003ef6:	f403 3340 	and.w	r3, r3, #196608	; 0x30000
 8003efa:	2b00      	cmp	r3, #0
 8003efc:	f000 809a 	beq.w	8004034 <HAL_GPIO_Init+0x2a8>
      {
        /* Enable SYSCFG Clock */
        __HAL_RCC_SYSCFG_CLK_ENABLE();
 8003f00:	4b55      	ldr	r3, [pc, #340]	; (8004058 <HAL_GPIO_Init+0x2cc>)
 8003f02:	699b      	ldr	r3, [r3, #24]
 8003f04:	4a54      	ldr	r2, [pc, #336]	; (8004058 <HAL_GPIO_Init+0x2cc>)
 8003f06:	f043 0301 	orr.w	r3, r3, #1
 8003f0a:	6193      	str	r3, [r2, #24]
 8003f0c:	4b52      	ldr	r3, [pc, #328]	; (8004058 <HAL_GPIO_Init+0x2cc>)
 8003f0e:	699b      	ldr	r3, [r3, #24]
 8003f10:	f003 0301 	and.w	r3, r3, #1
 8003f14:	60bb      	str	r3, [r7, #8]
 8003f16:	68bb      	ldr	r3, [r7, #8]

        temp = SYSCFG->EXTICR[position >> 2u];
 8003f18:	4a50      	ldr	r2, [pc, #320]	; (800405c <HAL_GPIO_Init+0x2d0>)
 8003f1a:	697b      	ldr	r3, [r7, #20]
 8003f1c:	089b      	lsrs	r3, r3, #2
 8003f1e:	3302      	adds	r3, #2
 8003f20:	f852 3023 	ldr.w	r3, [r2, r3, lsl #2]
 8003f24:	613b      	str	r3, [r7, #16]
        temp &= ~(0x0FuL << (4u * (position & 0x03u)));
 8003f26:	697b      	ldr	r3, [r7, #20]
 8003f28:	f003 0303 	and.w	r3, r3, #3
 8003f2c:	009b      	lsls	r3, r3, #2
 8003f2e:	220f      	movs	r2, #15
 8003f30:	fa02 f303 	lsl.w	r3, r2, r3
 8003f34:	43db      	mvns	r3, r3
 8003f36:	693a      	ldr	r2, [r7, #16]
 8003f38:	4013      	ands	r3, r2
 8003f3a:	613b      	str	r3, [r7, #16]
        temp |= (GPIO_GET_INDEX(GPIOx) << (4u * (position & 0x03u)));
 8003f3c:	687b      	ldr	r3, [r7, #4]
 8003f3e:	f1b3 4f90 	cmp.w	r3, #1207959552	; 0x48000000
 8003f42:	d013      	beq.n	8003f6c <HAL_GPIO_Init+0x1e0>
 8003f44:	687b      	ldr	r3, [r7, #4]
 8003f46:	4a46      	ldr	r2, [pc, #280]	; (8004060 <HAL_GPIO_Init+0x2d4>)
 8003f48:	4293      	cmp	r3, r2
 8003f4a:	d00d      	beq.n	8003f68 <HAL_GPIO_Init+0x1dc>
 8003f4c:	687b      	ldr	r3, [r7, #4]
 8003f4e:	4a45      	ldr	r2, [pc, #276]	; (8004064 <HAL_GPIO_Init+0x2d8>)
 8003f50:	4293      	cmp	r3, r2
 8003f52:	d007      	beq.n	8003f64 <HAL_GPIO_Init+0x1d8>
 8003f54:	687b      	ldr	r3, [r7, #4]
 8003f56:	4a44      	ldr	r2, [pc, #272]	; (8004068 <HAL_GPIO_Init+0x2dc>)
 8003f58:	4293      	cmp	r3, r2
 8003f5a:	d101      	bne.n	8003f60 <HAL_GPIO_Init+0x1d4>
 8003f5c:	2303      	movs	r3, #3
 8003f5e:	e006      	b.n	8003f6e <HAL_GPIO_Init+0x1e2>
 8003f60:	2305      	movs	r3, #5
 8003f62:	e004      	b.n	8003f6e <HAL_GPIO_Init+0x1e2>
 8003f64:	2302      	movs	r3, #2
 8003f66:	e002      	b.n	8003f6e <HAL_GPIO_Init+0x1e2>
 8003f68:	2301      	movs	r3, #1
 8003f6a:	e000      	b.n	8003f6e <HAL_GPIO_Init+0x1e2>
 8003f6c:	2300      	movs	r3, #0
 8003f6e:	697a      	ldr	r2, [r7, #20]
 8003f70:	f002 0203 	and.w	r2, r2, #3
 8003f74:	0092      	lsls	r2, r2, #2
 8003f76:	4093      	lsls	r3, r2
 8003f78:	693a      	ldr	r2, [r7, #16]
 8003f7a:	4313      	orrs	r3, r2
 8003f7c:	613b      	str	r3, [r7, #16]
        SYSCFG->EXTICR[position >> 2u] = temp;
 8003f7e:	4937      	ldr	r1, [pc, #220]	; (800405c <HAL_GPIO_Init+0x2d0>)
 8003f80:	697b      	ldr	r3, [r7, #20]
 8003f82:	089b      	lsrs	r3, r3, #2
 8003f84:	3302      	adds	r3, #2
 8003f86:	693a      	ldr	r2, [r7, #16]
 8003f88:	f841 2023 	str.w	r2, [r1, r3, lsl #2]

        /* Clear EXTI line configuration */
        temp = EXTI->IMR;
 8003f8c:	4b37      	ldr	r3, [pc, #220]	; (800406c <HAL_GPIO_Init+0x2e0>)
 8003f8e:	681b      	ldr	r3, [r3, #0]
 8003f90:	613b      	str	r3, [r7, #16]
        temp &= ~(iocurrent);
 8003f92:	68fb      	ldr	r3, [r7, #12]
 8003f94:	43db      	mvns	r3, r3
 8003f96:	693a      	ldr	r2, [r7, #16]
 8003f98:	4013      	ands	r3, r2
 8003f9a:	613b      	str	r3, [r7, #16]
        if((GPIO_Init->Mode & EXTI_IT) != 0x00u)
 8003f9c:	683b      	ldr	r3, [r7, #0]
 8003f9e:	685b      	ldr	r3, [r3, #4]
 8003fa0:	f403 3380 	and.w	r3, r3, #65536	; 0x10000
 8003fa4:	2b00      	cmp	r3, #0
 8003fa6:	d003      	beq.n	8003fb0 <HAL_GPIO_Init+0x224>
        {
          temp |= iocurrent;
 8003fa8:	693a      	ldr	r2, [r7, #16]
 8003faa:	68fb      	ldr	r3, [r7, #12]
 8003fac:	4313      	orrs	r3, r2
 8003fae:	613b      	str	r3, [r7, #16]
        }
        EXTI->IMR = temp;
 8003fb0:	4a2e      	ldr	r2, [pc, #184]	; (800406c <HAL_GPIO_Init+0x2e0>)
 8003fb2:	693b      	ldr	r3, [r7, #16]
 8003fb4:	6013      	str	r3, [r2, #0]

        temp = EXTI->EMR;
 8003fb6:	4b2d      	ldr	r3, [pc, #180]	; (800406c <HAL_GPIO_Init+0x2e0>)
 8003fb8:	685b      	ldr	r3, [r3, #4]
 8003fba:	613b      	str	r3, [r7, #16]
        temp &= ~(iocurrent);
 8003fbc:	68fb      	ldr	r3, [r7, #12]
 8003fbe:	43db      	mvns	r3, r3
 8003fc0:	693a      	ldr	r2, [r7, #16]
 8003fc2:	4013      	ands	r3, r2
 8003fc4:	613b      	str	r3, [r7, #16]
        if((GPIO_Init->Mode & EXTI_EVT) != 0x00u)
 8003fc6:	683b      	ldr	r3, [r7, #0]
 8003fc8:	685b      	ldr	r3, [r3, #4]
 8003fca:	f403 3300 	and.w	r3, r3, #131072	; 0x20000
 8003fce:	2b00      	cmp	r3, #0
 8003fd0:	d003      	beq.n	8003fda <HAL_GPIO_Init+0x24e>
        {
          temp |= iocurrent;
 8003fd2:	693a      	ldr	r2, [r7, #16]
 8003fd4:	68fb      	ldr	r3, [r7, #12]
 8003fd6:	4313      	orrs	r3, r2
 8003fd8:	613b      	str	r3, [r7, #16]
        }
        EXTI->EMR = temp;
 8003fda:	4a24      	ldr	r2, [pc, #144]	; (800406c <HAL_GPIO_Init+0x2e0>)
 8003fdc:	693b      	ldr	r3, [r7, #16]
 8003fde:	6053      	str	r3, [r2, #4]

        /* Clear Rising Falling edge configuration */
        temp = EXTI->RTSR;
 8003fe0:	4b22      	ldr	r3, [pc, #136]	; (800406c <HAL_GPIO_Init+0x2e0>)
 8003fe2:	689b      	ldr	r3, [r3, #8]
 8003fe4:	613b      	str	r3, [r7, #16]
        temp &= ~(iocurrent);
 8003fe6:	68fb      	ldr	r3, [r7, #12]
 8003fe8:	43db      	mvns	r3, r3
 8003fea:	693a      	ldr	r2, [r7, #16]
 8003fec:	4013      	ands	r3, r2
 8003fee:	613b      	str	r3, [r7, #16]
        if((GPIO_Init->Mode & TRIGGER_RISING) != 0x00u)
 8003ff0:	683b      	ldr	r3, [r7, #0]
 8003ff2:	685b      	ldr	r3, [r3, #4]
 8003ff4:	f403 1380 	and.w	r3, r3, #1048576	; 0x100000
 8003ff8:	2b00      	cmp	r3, #0
 8003ffa:	d003      	beq.n	8004004 <HAL_GPIO_Init+0x278>
        {
          temp |= iocurrent;
 8003ffc:	693a      	ldr	r2, [r7, #16]
 8003ffe:	68fb      	ldr	r3, [r7, #12]
 8004000:	4313      	orrs	r3, r2
 8004002:	613b      	str	r3, [r7, #16]
        }
        EXTI->RTSR = temp;
 8004004:	4a19      	ldr	r2, [pc, #100]	; (800406c <HAL_GPIO_Init+0x2e0>)
 8004006:	693b      	ldr	r3, [r7, #16]
 8004008:	6093      	str	r3, [r2, #8]

        temp = EXTI->FTSR;
 800400a:	4b18      	ldr	r3, [pc, #96]	; (800406c <HAL_GPIO_Init+0x2e0>)
 800400c:	68db      	ldr	r3, [r3, #12]
 800400e:	613b      	str	r3, [r7, #16]
        temp &= ~(iocurrent);
 8004010:	68fb      	ldr	r3, [r7, #12]
 8004012:	43db      	mvns	r3, r3
 8004014:	693a      	ldr	r2, [r7, #16]
 8004016:	4013      	ands	r3, r2
 8004018:	613b      	str	r3, [r7, #16]
        if((GPIO_Init->Mode & TRIGGER_FALLING) != 0x00u)
 800401a:	683b      	ldr	r3, [r7, #0]
 800401c:	685b      	ldr	r3, [r3, #4]
 800401e:	f403 1300 	and.w	r3, r3, #2097152	; 0x200000
 8004022:	2b00      	cmp	r3, #0
 8004024:	d003      	beq.n	800402e <HAL_GPIO_Init+0x2a2>
        {
          temp |= iocurrent;
 8004026:	693a      	ldr	r2, [r7, #16]
 8004028:	68fb      	ldr	r3, [r7, #12]
 800402a:	4313      	orrs	r3, r2
 800402c:	613b      	str	r3, [r7, #16]
        }
        EXTI->FTSR = temp;
 800402e:	4a0f      	ldr	r2, [pc, #60]	; (800406c <HAL_GPIO_Init+0x2e0>)
 8004030:	693b      	ldr	r3, [r7, #16]
 8004032:	60d3      	str	r3, [r2, #12]
      }
    }

    position++;
 8004034:	697b      	ldr	r3, [r7, #20]
 8004036:	3301      	adds	r3, #1
 8004038:	617b      	str	r3, [r7, #20]
  while (((GPIO_Init->Pin) >> position) != 0x00u)
 800403a:	683b      	ldr	r3, [r7, #0]
 800403c:	681a      	ldr	r2, [r3, #0]
 800403e:	697b      	ldr	r3, [r7, #20]
 8004040:	fa22 f303 	lsr.w	r3, r2, r3
 8004044:	2b00      	cmp	r3, #0
 8004046:	f47f aea9 	bne.w	8003d9c <HAL_GPIO_Init+0x10>
  }
}
 800404a:	bf00      	nop
 800404c:	bf00      	nop
 800404e:	371c      	adds	r7, #28
 8004050:	46bd      	mov	sp, r7
 8004052:	f85d 7b04 	ldr.w	r7, [sp], #4
 8004056:	4770      	bx	lr
 8004058:	40021000 	.word	0x40021000
 800405c:	40010000 	.word	0x40010000
 8004060:	48000400 	.word	0x48000400
 8004064:	48000800 	.word	0x48000800
 8004068:	48000c00 	.word	0x48000c00
 800406c:	40010400 	.word	0x40010400

08004070 <HAL_GPIO_WritePin>:
  *            @arg GPIO_PIN_RESET: to clear the port pin
  *            @arg GPIO_PIN_SET: to set the port pin
  * @retval None
  */
void HAL_GPIO_WritePin(GPIO_TypeDef* GPIOx, uint16_t GPIO_Pin, GPIO_PinState PinState)
{
 8004070:	b480      	push	{r7}
 8004072:	b083      	sub	sp, #12
 8004074:	af00      	add	r7, sp, #0
 8004076:	6078      	str	r0, [r7, #4]
 8004078:	460b      	mov	r3, r1
 800407a:	807b      	strh	r3, [r7, #2]
 800407c:	4613      	mov	r3, r2
 800407e:	707b      	strb	r3, [r7, #1]
  /* Check the parameters */
  assert_param(IS_GPIO_PIN(GPIO_Pin));
  assert_param(IS_GPIO_PIN_ACTION(PinState));

  if(PinState != GPIO_PIN_RESET)
 8004080:	787b      	ldrb	r3, [r7, #1]
 8004082:	2b00      	cmp	r3, #0
 8004084:	d003      	beq.n	800408e <HAL_GPIO_WritePin+0x1e>
  {
    GPIOx->BSRR = (uint32_t)GPIO_Pin;
 8004086:	887a      	ldrh	r2, [r7, #2]
 8004088:	687b      	ldr	r3, [r7, #4]
 800408a:	619a      	str	r2, [r3, #24]
  }
  else
  {
    GPIOx->BRR = (uint32_t)GPIO_Pin;
  }
}
 800408c:	e002      	b.n	8004094 <HAL_GPIO_WritePin+0x24>
    GPIOx->BRR = (uint32_t)GPIO_Pin;
 800408e:	887a      	ldrh	r2, [r7, #2]
 8004090:	687b      	ldr	r3, [r7, #4]
 8004092:	629a      	str	r2, [r3, #40]	; 0x28
}
 8004094:	bf00      	nop
 8004096:	370c      	adds	r7, #12
 8004098:	46bd      	mov	sp, r7
 800409a:	f85d 7b04 	ldr.w	r7, [sp], #4
 800409e:	4770      	bx	lr

080040a0 <HAL_GPIO_EXTI_IRQHandler>:
  * @brief  Handle EXTI interrupt request.
  * @param  GPIO_Pin Specifies the port pin connected to corresponding EXTI line.
  * @retval None
  */
void HAL_GPIO_EXTI_IRQHandler(uint16_t GPIO_Pin)
{
 80040a0:	b580      	push	{r7, lr}
 80040a2:	b082      	sub	sp, #8
 80040a4:	af00      	add	r7, sp, #0
 80040a6:	4603      	mov	r3, r0
 80040a8:	80fb      	strh	r3, [r7, #6]
  /* EXTI line interrupt detected */
  if(__HAL_GPIO_EXTI_GET_IT(GPIO_Pin) != 0x00u)
 80040aa:	4b08      	ldr	r3, [pc, #32]	; (80040cc <HAL_GPIO_EXTI_IRQHandler+0x2c>)
 80040ac:	695a      	ldr	r2, [r3, #20]
 80040ae:	88fb      	ldrh	r3, [r7, #6]
 80040b0:	4013      	ands	r3, r2
 80040b2:	2b00      	cmp	r3, #0
 80040b4:	d006      	beq.n	80040c4 <HAL_GPIO_EXTI_IRQHandler+0x24>
  {
    __HAL_GPIO_EXTI_CLEAR_IT(GPIO_Pin);
 80040b6:	4a05      	ldr	r2, [pc, #20]	; (80040cc <HAL_GPIO_EXTI_IRQHandler+0x2c>)
 80040b8:	88fb      	ldrh	r3, [r7, #6]
 80040ba:	6153      	str	r3, [r2, #20]
    HAL_GPIO_EXTI_Callback(GPIO_Pin);
 80040bc:	88fb      	ldrh	r3, [r7, #6]
 80040be:	4618      	mov	r0, r3
 80040c0:	f7fd fa44 	bl	800154c <HAL_GPIO_EXTI_Callback>
  }
}
 80040c4:	bf00      	nop
 80040c6:	3708      	adds	r7, #8
 80040c8:	46bd      	mov	sp, r7
 80040ca:	bd80      	pop	{r7, pc}
 80040cc:	40010400 	.word	0x40010400

080040d0 <HAL_PWR_EnableBkUpAccess>:
  * @note  If the HSE divided by 32 is used as the RTC clock, the
  *         Backup Domain Access should be kept enabled.
  * @retval None
  */
void HAL_PWR_EnableBkUpAccess(void)
{
 80040d0:	b480      	push	{r7}
 80040d2:	af00      	add	r7, sp, #0
  SET_BIT(PWR->CR, PWR_CR_DBP);  
 80040d4:	4b05      	ldr	r3, [pc, #20]	; (80040ec <HAL_PWR_EnableBkUpAccess+0x1c>)
 80040d6:	681b      	ldr	r3, [r3, #0]
 80040d8:	4a04      	ldr	r2, [pc, #16]	; (80040ec <HAL_PWR_EnableBkUpAccess+0x1c>)
 80040da:	f443 7380 	orr.w	r3, r3, #256	; 0x100
 80040de:	6013      	str	r3, [r2, #0]
}
 80040e0:	bf00      	nop
 80040e2:	46bd      	mov	sp, r7
 80040e4:	f85d 7b04 	ldr.w	r7, [sp], #4
 80040e8:	4770      	bx	lr
 80040ea:	bf00      	nop
 80040ec:	40007000 	.word	0x40007000

080040f0 <HAL_PWR_DisableBkUpAccess>:
  * @note  If the HSE divided by 32 is used as the RTC clock, the
  *         Backup Domain Access should be kept enabled.
  * @retval None
  */
void HAL_PWR_DisableBkUpAccess(void)
{
 80040f0:	b480      	push	{r7}
 80040f2:	af00      	add	r7, sp, #0
  CLEAR_BIT(PWR->CR, PWR_CR_DBP);  
 80040f4:	4b05      	ldr	r3, [pc, #20]	; (800410c <HAL_PWR_DisableBkUpAccess+0x1c>)
 80040f6:	681b      	ldr	r3, [r3, #0]
 80040f8:	4a04      	ldr	r2, [pc, #16]	; (800410c <HAL_PWR_DisableBkUpAccess+0x1c>)
 80040fa:	f423 7380 	bic.w	r3, r3, #256	; 0x100
 80040fe:	6013      	str	r3, [r2, #0]
}
 8004100:	bf00      	nop
 8004102:	46bd      	mov	sp, r7
 8004104:	f85d 7b04 	ldr.w	r7, [sp], #4
 8004108:	4770      	bx	lr
 800410a:	bf00      	nop
 800410c:	40007000 	.word	0x40007000

08004110 <HAL_RCC_OscConfig>:
  *         supported by this macro. User should request a transition to HSE Off
  *         first and then HSE On or HSE Bypass.
  * @retval HAL status
  */
HAL_StatusTypeDef HAL_RCC_OscConfig(RCC_OscInitTypeDef  *RCC_OscInitStruct)
{
 8004110:	b580      	push	{r7, lr}
 8004112:	f5ad 7d00 	sub.w	sp, sp, #512	; 0x200
 8004116:	af00      	add	r7, sp, #0
 8004118:	f507 7300 	add.w	r3, r7, #512	; 0x200
 800411c:	f5a3 73fe 	sub.w	r3, r3, #508	; 0x1fc
 8004120:	6018      	str	r0, [r3, #0]
#if defined(RCC_CFGR_PLLSRC_HSI_PREDIV)
  uint32_t pll_config2;
#endif /* RCC_CFGR_PLLSRC_HSI_PREDIV */

  /* Check Null pointer */
  if(RCC_OscInitStruct == NULL)
 8004122:	f507 7300 	add.w	r3, r7, #512	; 0x200
 8004126:	f5a3 73fe 	sub.w	r3, r3, #508	; 0x1fc
 800412a:	681b      	ldr	r3, [r3, #0]
 800412c:	2b00      	cmp	r3, #0
 800412e:	d102      	bne.n	8004136 <HAL_RCC_OscConfig+0x26>
  {
    return HAL_ERROR;
 8004130:	2301      	movs	r3, #1
 8004132:	f001 b823 	b.w	800517c <HAL_RCC_OscConfig+0x106c>

  /* Check the parameters */
  assert_param(IS_RCC_OSCILLATORTYPE(RCC_OscInitStruct->OscillatorType));

  /*------------------------------- HSE Configuration ------------------------*/ 
  if(((RCC_OscInitStruct->OscillatorType) & RCC_OSCILLATORTYPE_HSE) == RCC_OSCILLATORTYPE_HSE)
 8004136:	f507 7300 	add.w	r3, r7, #512	; 0x200
 800413a:	f5a3 73fe 	sub.w	r3, r3, #508	; 0x1fc
 800413e:	681b      	ldr	r3, [r3, #0]
 8004140:	681b      	ldr	r3, [r3, #0]
 8004142:	f003 0301 	and.w	r3, r3, #1
 8004146:	2b00      	cmp	r3, #0
 8004148:	f000 817d 	beq.w	8004446 <HAL_RCC_OscConfig+0x336>
  {
    /* Check the parameters */
    assert_param(IS_RCC_HSE(RCC_OscInitStruct->HSEState));

    /* When the HSE is used as system clock or clock source for PLL in these cases it is not allowed to be disabled */
    if((__HAL_RCC_GET_SYSCLK_SOURCE() == RCC_SYSCLKSOURCE_STATUS_HSE) 
 800414c:	4bbc      	ldr	r3, [pc, #752]	; (8004440 <HAL_RCC_OscConfig+0x330>)
 800414e:	685b      	ldr	r3, [r3, #4]
 8004150:	f003 030c 	and.w	r3, r3, #12
 8004154:	2b04      	cmp	r3, #4
 8004156:	d00c      	beq.n	8004172 <HAL_RCC_OscConfig+0x62>
       || ((__HAL_RCC_GET_SYSCLK_SOURCE() == RCC_SYSCLKSOURCE_STATUS_PLLCLK) && (__HAL_RCC_GET_PLL_OSCSOURCE() == RCC_PLLSOURCE_HSE)))
 8004158:	4bb9      	ldr	r3, [pc, #740]	; (8004440 <HAL_RCC_OscConfig+0x330>)
 800415a:	685b      	ldr	r3, [r3, #4]
 800415c:	f003 030c 	and.w	r3, r3, #12
 8004160:	2b08      	cmp	r3, #8
 8004162:	d15c      	bne.n	800421e <HAL_RCC_OscConfig+0x10e>
 8004164:	4bb6      	ldr	r3, [pc, #728]	; (8004440 <HAL_RCC_OscConfig+0x330>)
 8004166:	685b      	ldr	r3, [r3, #4]
 8004168:	f403 3380 	and.w	r3, r3, #65536	; 0x10000
 800416c:	f5b3 3f80 	cmp.w	r3, #65536	; 0x10000
 8004170:	d155      	bne.n	800421e <HAL_RCC_OscConfig+0x10e>
 8004172:	f44f 3300 	mov.w	r3, #131072	; 0x20000
 8004176:	f8c7 31f0 	str.w	r3, [r7, #496]	; 0x1f0
   __ASM volatile ("rbit %0, %1" : "=r" (result) : "r" (value) );
 800417a:	f8d7 31f0 	ldr.w	r3, [r7, #496]	; 0x1f0
 800417e:	fa93 f3a3 	rbit	r3, r3
 8004182:	f8c7 31ec 	str.w	r3, [r7, #492]	; 0x1ec
  return result;
 8004186:	f8d7 31ec 	ldr.w	r3, [r7, #492]	; 0x1ec
    {
      if((__HAL_RCC_GET_FLAG(RCC_FLAG_HSERDY) != RESET) && (RCC_OscInitStruct->HSEState == RCC_HSE_OFF))
 800418a:	fab3 f383 	clz	r3, r3
 800418e:	b2db      	uxtb	r3, r3
 8004190:	095b      	lsrs	r3, r3, #5
 8004192:	b2db      	uxtb	r3, r3
 8004194:	f043 0301 	orr.w	r3, r3, #1
 8004198:	b2db      	uxtb	r3, r3
 800419a:	2b01      	cmp	r3, #1
 800419c:	d102      	bne.n	80041a4 <HAL_RCC_OscConfig+0x94>
 800419e:	4ba8      	ldr	r3, [pc, #672]	; (8004440 <HAL_RCC_OscConfig+0x330>)
 80041a0:	681b      	ldr	r3, [r3, #0]
 80041a2:	e015      	b.n	80041d0 <HAL_RCC_OscConfig+0xc0>
 80041a4:	f44f 3300 	mov.w	r3, #131072	; 0x20000
 80041a8:	f8c7 31e8 	str.w	r3, [r7, #488]	; 0x1e8
   __ASM volatile ("rbit %0, %1" : "=r" (result) : "r" (value) );
 80041ac:	f8d7 31e8 	ldr.w	r3, [r7, #488]	; 0x1e8
 80041b0:	fa93 f3a3 	rbit	r3, r3
 80041b4:	f8c7 31e4 	str.w	r3, [r7, #484]	; 0x1e4
 80041b8:	f44f 3300 	mov.w	r3, #131072	; 0x20000
 80041bc:	f8c7 31e0 	str.w	r3, [r7, #480]	; 0x1e0
 80041c0:	f8d7 31e0 	ldr.w	r3, [r7, #480]	; 0x1e0
 80041c4:	fa93 f3a3 	rbit	r3, r3
 80041c8:	f8c7 31dc 	str.w	r3, [r7, #476]	; 0x1dc
 80041cc:	4b9c      	ldr	r3, [pc, #624]	; (8004440 <HAL_RCC_OscConfig+0x330>)
 80041ce:	6a5b      	ldr	r3, [r3, #36]	; 0x24
 80041d0:	f44f 3200 	mov.w	r2, #131072	; 0x20000
 80041d4:	f8c7 21d8 	str.w	r2, [r7, #472]	; 0x1d8
 80041d8:	f8d7 21d8 	ldr.w	r2, [r7, #472]	; 0x1d8
 80041dc:	fa92 f2a2 	rbit	r2, r2
 80041e0:	f8c7 21d4 	str.w	r2, [r7, #468]	; 0x1d4
  return result;
 80041e4:	f8d7 21d4 	ldr.w	r2, [r7, #468]	; 0x1d4
 80041e8:	fab2 f282 	clz	r2, r2
 80041ec:	b2d2      	uxtb	r2, r2
 80041ee:	f042 0220 	orr.w	r2, r2, #32
 80041f2:	b2d2      	uxtb	r2, r2
 80041f4:	f002 021f 	and.w	r2, r2, #31
 80041f8:	2101      	movs	r1, #1
 80041fa:	fa01 f202 	lsl.w	r2, r1, r2
 80041fe:	4013      	ands	r3, r2
 8004200:	2b00      	cmp	r3, #0
 8004202:	f000 811f 	beq.w	8004444 <HAL_RCC_OscConfig+0x334>
 8004206:	f507 7300 	add.w	r3, r7, #512	; 0x200
 800420a:	f5a3 73fe 	sub.w	r3, r3, #508	; 0x1fc
 800420e:	681b      	ldr	r3, [r3, #0]
 8004210:	685b      	ldr	r3, [r3, #4]
 8004212:	2b00      	cmp	r3, #0
 8004214:	f040 8116 	bne.w	8004444 <HAL_RCC_OscConfig+0x334>
      {
        return HAL_ERROR;
 8004218:	2301      	movs	r3, #1
 800421a:	f000 bfaf 	b.w	800517c <HAL_RCC_OscConfig+0x106c>
      }
    }
    else
    {
      /* Set the new HSE configuration ---------------------------------------*/
      __HAL_RCC_HSE_CONFIG(RCC_OscInitStruct->HSEState);
 800421e:	f507 7300 	add.w	r3, r7, #512	; 0x200
 8004222:	f5a3 73fe 	sub.w	r3, r3, #508	; 0x1fc
 8004226:	681b      	ldr	r3, [r3, #0]
 8004228:	685b      	ldr	r3, [r3, #4]
 800422a:	f5b3 3f80 	cmp.w	r3, #65536	; 0x10000
 800422e:	d106      	bne.n	800423e <HAL_RCC_OscConfig+0x12e>
 8004230:	4b83      	ldr	r3, [pc, #524]	; (8004440 <HAL_RCC_OscConfig+0x330>)
 8004232:	681b      	ldr	r3, [r3, #0]
 8004234:	4a82      	ldr	r2, [pc, #520]	; (8004440 <HAL_RCC_OscConfig+0x330>)
 8004236:	f443 3380 	orr.w	r3, r3, #65536	; 0x10000
 800423a:	6013      	str	r3, [r2, #0]
 800423c:	e036      	b.n	80042ac <HAL_RCC_OscConfig+0x19c>
 800423e:	f507 7300 	add.w	r3, r7, #512	; 0x200
 8004242:	f5a3 73fe 	sub.w	r3, r3, #508	; 0x1fc
 8004246:	681b      	ldr	r3, [r3, #0]
 8004248:	685b      	ldr	r3, [r3, #4]
 800424a:	2b00      	cmp	r3, #0
 800424c:	d10c      	bne.n	8004268 <HAL_RCC_OscConfig+0x158>
 800424e:	4b7c      	ldr	r3, [pc, #496]	; (8004440 <HAL_RCC_OscConfig+0x330>)
 8004250:	681b      	ldr	r3, [r3, #0]
 8004252:	4a7b      	ldr	r2, [pc, #492]	; (8004440 <HAL_RCC_OscConfig+0x330>)
 8004254:	f423 3380 	bic.w	r3, r3, #65536	; 0x10000
 8004258:	6013      	str	r3, [r2, #0]
 800425a:	4b79      	ldr	r3, [pc, #484]	; (8004440 <HAL_RCC_OscConfig+0x330>)
 800425c:	681b      	ldr	r3, [r3, #0]
 800425e:	4a78      	ldr	r2, [pc, #480]	; (8004440 <HAL_RCC_OscConfig+0x330>)
 8004260:	f423 2380 	bic.w	r3, r3, #262144	; 0x40000
 8004264:	6013      	str	r3, [r2, #0]
 8004266:	e021      	b.n	80042ac <HAL_RCC_OscConfig+0x19c>
 8004268:	f507 7300 	add.w	r3, r7, #512	; 0x200
 800426c:	f5a3 73fe 	sub.w	r3, r3, #508	; 0x1fc
 8004270:	681b      	ldr	r3, [r3, #0]
 8004272:	685b      	ldr	r3, [r3, #4]
 8004274:	f5b3 2fa0 	cmp.w	r3, #327680	; 0x50000
 8004278:	d10c      	bne.n	8004294 <HAL_RCC_OscConfig+0x184>
 800427a:	4b71      	ldr	r3, [pc, #452]	; (8004440 <HAL_RCC_OscConfig+0x330>)
 800427c:	681b      	ldr	r3, [r3, #0]
 800427e:	4a70      	ldr	r2, [pc, #448]	; (8004440 <HAL_RCC_OscConfig+0x330>)
 8004280:	f443 2380 	orr.w	r3, r3, #262144	; 0x40000
 8004284:	6013      	str	r3, [r2, #0]
 8004286:	4b6e      	ldr	r3, [pc, #440]	; (8004440 <HAL_RCC_OscConfig+0x330>)
 8004288:	681b      	ldr	r3, [r3, #0]
 800428a:	4a6d      	ldr	r2, [pc, #436]	; (8004440 <HAL_RCC_OscConfig+0x330>)
 800428c:	f443 3380 	orr.w	r3, r3, #65536	; 0x10000
 8004290:	6013      	str	r3, [r2, #0]
 8004292:	e00b      	b.n	80042ac <HAL_RCC_OscConfig+0x19c>
 8004294:	4b6a      	ldr	r3, [pc, #424]	; (8004440 <HAL_RCC_OscConfig+0x330>)
 8004296:	681b      	ldr	r3, [r3, #0]
 8004298:	4a69      	ldr	r2, [pc, #420]	; (8004440 <HAL_RCC_OscConfig+0x330>)
 800429a:	f423 3380 	bic.w	r3, r3, #65536	; 0x10000
 800429e:	6013      	str	r3, [r2, #0]
 80042a0:	4b67      	ldr	r3, [pc, #412]	; (8004440 <HAL_RCC_OscConfig+0x330>)
 80042a2:	681b      	ldr	r3, [r3, #0]
 80042a4:	4a66      	ldr	r2, [pc, #408]	; (8004440 <HAL_RCC_OscConfig+0x330>)
 80042a6:	f423 2380 	bic.w	r3, r3, #262144	; 0x40000
 80042aa:	6013      	str	r3, [r2, #0]
      
#if defined(RCC_CFGR_PLLSRC_HSI_DIV2)
      /* Configure the HSE predivision factor --------------------------------*/
      __HAL_RCC_HSE_PREDIV_CONFIG(RCC_OscInitStruct->HSEPredivValue);
 80042ac:	4b64      	ldr	r3, [pc, #400]	; (8004440 <HAL_RCC_OscConfig+0x330>)
 80042ae:	6adb      	ldr	r3, [r3, #44]	; 0x2c
 80042b0:	f023 020f 	bic.w	r2, r3, #15
 80042b4:	f507 7300 	add.w	r3, r7, #512	; 0x200
 80042b8:	f5a3 73fe 	sub.w	r3, r3, #508	; 0x1fc
 80042bc:	681b      	ldr	r3, [r3, #0]
 80042be:	689b      	ldr	r3, [r3, #8]
 80042c0:	495f      	ldr	r1, [pc, #380]	; (8004440 <HAL_RCC_OscConfig+0x330>)
 80042c2:	4313      	orrs	r3, r2
 80042c4:	62cb      	str	r3, [r1, #44]	; 0x2c
#endif /* RCC_CFGR_PLLSRC_HSI_DIV2 */

       /* Check the HSE State */
      if(RCC_OscInitStruct->HSEState != RCC_HSE_OFF)
 80042c6:	f507 7300 	add.w	r3, r7, #512	; 0x200
 80042ca:	f5a3 73fe 	sub.w	r3, r3, #508	; 0x1fc
 80042ce:	681b      	ldr	r3, [r3, #0]
 80042d0:	685b      	ldr	r3, [r3, #4]
 80042d2:	2b00      	cmp	r3, #0
 80042d4:	d059      	beq.n	800438a <HAL_RCC_OscConfig+0x27a>
      {
        /* Get Start Tick */
        tickstart = HAL_GetTick();
 80042d6:	f7ff fbe5 	bl	8003aa4 <HAL_GetTick>
 80042da:	f8c7 01f8 	str.w	r0, [r7, #504]	; 0x1f8
        
        /* Wait till HSE is ready */
        while(__HAL_RCC_GET_FLAG(RCC_FLAG_HSERDY) == RESET)
 80042de:	e00a      	b.n	80042f6 <HAL_RCC_OscConfig+0x1e6>
        {
          if((HAL_GetTick() - tickstart ) > HSE_TIMEOUT_VALUE)
 80042e0:	f7ff fbe0 	bl	8003aa4 <HAL_GetTick>
 80042e4:	4602      	mov	r2, r0
 80042e6:	f8d7 31f8 	ldr.w	r3, [r7, #504]	; 0x1f8
 80042ea:	1ad3      	subs	r3, r2, r3
 80042ec:	2b64      	cmp	r3, #100	; 0x64
 80042ee:	d902      	bls.n	80042f6 <HAL_RCC_OscConfig+0x1e6>
          {
            return HAL_TIMEOUT;
 80042f0:	2303      	movs	r3, #3
 80042f2:	f000 bf43 	b.w	800517c <HAL_RCC_OscConfig+0x106c>
 80042f6:	f44f 3300 	mov.w	r3, #131072	; 0x20000
 80042fa:	f8c7 31d0 	str.w	r3, [r7, #464]	; 0x1d0
   __ASM volatile ("rbit %0, %1" : "=r" (result) : "r" (value) );
 80042fe:	f8d7 31d0 	ldr.w	r3, [r7, #464]	; 0x1d0
 8004302:	fa93 f3a3 	rbit	r3, r3
 8004306:	f8c7 31cc 	str.w	r3, [r7, #460]	; 0x1cc
  return result;
 800430a:	f8d7 31cc 	ldr.w	r3, [r7, #460]	; 0x1cc
        while(__HAL_RCC_GET_FLAG(RCC_FLAG_HSERDY) == RESET)
 800430e:	fab3 f383 	clz	r3, r3
 8004312:	b2db      	uxtb	r3, r3
 8004314:	095b      	lsrs	r3, r3, #5
 8004316:	b2db      	uxtb	r3, r3
 8004318:	f043 0301 	orr.w	r3, r3, #1
 800431c:	b2db      	uxtb	r3, r3
 800431e:	2b01      	cmp	r3, #1
 8004320:	d102      	bne.n	8004328 <HAL_RCC_OscConfig+0x218>
 8004322:	4b47      	ldr	r3, [pc, #284]	; (8004440 <HAL_RCC_OscConfig+0x330>)
 8004324:	681b      	ldr	r3, [r3, #0]
 8004326:	e015      	b.n	8004354 <HAL_RCC_OscConfig+0x244>
 8004328:	f44f 3300 	mov.w	r3, #131072	; 0x20000
 800432c:	f8c7 31c8 	str.w	r3, [r7, #456]	; 0x1c8
   __ASM volatile ("rbit %0, %1" : "=r" (result) : "r" (value) );
 8004330:	f8d7 31c8 	ldr.w	r3, [r7, #456]	; 0x1c8
 8004334:	fa93 f3a3 	rbit	r3, r3
 8004338:	f8c7 31c4 	str.w	r3, [r7, #452]	; 0x1c4
 800433c:	f44f 3300 	mov.w	r3, #131072	; 0x20000
 8004340:	f8c7 31c0 	str.w	r3, [r7, #448]	; 0x1c0
 8004344:	f8d7 31c0 	ldr.w	r3, [r7, #448]	; 0x1c0
 8004348:	fa93 f3a3 	rbit	r3, r3
 800434c:	f8c7 31bc 	str.w	r3, [r7, #444]	; 0x1bc
 8004350:	4b3b      	ldr	r3, [pc, #236]	; (8004440 <HAL_RCC_OscConfig+0x330>)
 8004352:	6a5b      	ldr	r3, [r3, #36]	; 0x24
 8004354:	f44f 3200 	mov.w	r2, #131072	; 0x20000
 8004358:	f8c7 21b8 	str.w	r2, [r7, #440]	; 0x1b8
 800435c:	f8d7 21b8 	ldr.w	r2, [r7, #440]	; 0x1b8
 8004360:	fa92 f2a2 	rbit	r2, r2
 8004364:	f8c7 21b4 	str.w	r2, [r7, #436]	; 0x1b4
  return result;
 8004368:	f8d7 21b4 	ldr.w	r2, [r7, #436]	; 0x1b4
 800436c:	fab2 f282 	clz	r2, r2
 8004370:	b2d2      	uxtb	r2, r2
 8004372:	f042 0220 	orr.w	r2, r2, #32
 8004376:	b2d2      	uxtb	r2, r2
 8004378:	f002 021f 	and.w	r2, r2, #31
 800437c:	2101      	movs	r1, #1
 800437e:	fa01 f202 	lsl.w	r2, r1, r2
 8004382:	4013      	ands	r3, r2
 8004384:	2b00      	cmp	r3, #0
 8004386:	d0ab      	beq.n	80042e0 <HAL_RCC_OscConfig+0x1d0>
 8004388:	e05d      	b.n	8004446 <HAL_RCC_OscConfig+0x336>
        }
      }
      else
      {
        /* Get Start Tick */
        tickstart = HAL_GetTick();
 800438a:	f7ff fb8b 	bl	8003aa4 <HAL_GetTick>
 800438e:	f8c7 01f8 	str.w	r0, [r7, #504]	; 0x1f8
        
        /* Wait till HSE is disabled */
        while(__HAL_RCC_GET_FLAG(RCC_FLAG_HSERDY) != RESET)
 8004392:	e00a      	b.n	80043aa <HAL_RCC_OscConfig+0x29a>
        {
           if((HAL_GetTick() - tickstart ) > HSE_TIMEOUT_VALUE)
 8004394:	f7ff fb86 	bl	8003aa4 <HAL_GetTick>
 8004398:	4602      	mov	r2, r0
 800439a:	f8d7 31f8 	ldr.w	r3, [r7, #504]	; 0x1f8
 800439e:	1ad3      	subs	r3, r2, r3
 80043a0:	2b64      	cmp	r3, #100	; 0x64
 80043a2:	d902      	bls.n	80043aa <HAL_RCC_OscConfig+0x29a>
          {
            return HAL_TIMEOUT;
 80043a4:	2303      	movs	r3, #3
 80043a6:	f000 bee9 	b.w	800517c <HAL_RCC_OscConfig+0x106c>
 80043aa:	f44f 3300 	mov.w	r3, #131072	; 0x20000
 80043ae:	f8c7 31b0 	str.w	r3, [r7, #432]	; 0x1b0
   __ASM volatile ("rbit %0, %1" : "=r" (result) : "r" (value) );
 80043b2:	f8d7 31b0 	ldr.w	r3, [r7, #432]	; 0x1b0
 80043b6:	fa93 f3a3 	rbit	r3, r3
 80043ba:	f8c7 31ac 	str.w	r3, [r7, #428]	; 0x1ac
  return result;
 80043be:	f8d7 31ac 	ldr.w	r3, [r7, #428]	; 0x1ac
        while(__HAL_RCC_GET_FLAG(RCC_FLAG_HSERDY) != RESET)
 80043c2:	fab3 f383 	clz	r3, r3
 80043c6:	b2db      	uxtb	r3, r3
 80043c8:	095b      	lsrs	r3, r3, #5
 80043ca:	b2db      	uxtb	r3, r3
 80043cc:	f043 0301 	orr.w	r3, r3, #1
 80043d0:	b2db      	uxtb	r3, r3
 80043d2:	2b01      	cmp	r3, #1
 80043d4:	d102      	bne.n	80043dc <HAL_RCC_OscConfig+0x2cc>
 80043d6:	4b1a      	ldr	r3, [pc, #104]	; (8004440 <HAL_RCC_OscConfig+0x330>)
 80043d8:	681b      	ldr	r3, [r3, #0]
 80043da:	e015      	b.n	8004408 <HAL_RCC_OscConfig+0x2f8>
 80043dc:	f44f 3300 	mov.w	r3, #131072	; 0x20000
 80043e0:	f8c7 31a8 	str.w	r3, [r7, #424]	; 0x1a8
   __ASM volatile ("rbit %0, %1" : "=r" (result) : "r" (value) );
 80043e4:	f8d7 31a8 	ldr.w	r3, [r7, #424]	; 0x1a8
 80043e8:	fa93 f3a3 	rbit	r3, r3
 80043ec:	f8c7 31a4 	str.w	r3, [r7, #420]	; 0x1a4
 80043f0:	f44f 3300 	mov.w	r3, #131072	; 0x20000
 80043f4:	f8c7 31a0 	str.w	r3, [r7, #416]	; 0x1a0
 80043f8:	f8d7 31a0 	ldr.w	r3, [r7, #416]	; 0x1a0
 80043fc:	fa93 f3a3 	rbit	r3, r3
 8004400:	f8c7 319c 	str.w	r3, [r7, #412]	; 0x19c
 8004404:	4b0e      	ldr	r3, [pc, #56]	; (8004440 <HAL_RCC_OscConfig+0x330>)
 8004406:	6a5b      	ldr	r3, [r3, #36]	; 0x24
 8004408:	f44f 3200 	mov.w	r2, #131072	; 0x20000
 800440c:	f8c7 2198 	str.w	r2, [r7, #408]	; 0x198
 8004410:	f8d7 2198 	ldr.w	r2, [r7, #408]	; 0x198
 8004414:	fa92 f2a2 	rbit	r2, r2
 8004418:	f8c7 2194 	str.w	r2, [r7, #404]	; 0x194
  return result;
 800441c:	f8d7 2194 	ldr.w	r2, [r7, #404]	; 0x194
 8004420:	fab2 f282 	clz	r2, r2
 8004424:	b2d2      	uxtb	r2, r2
 8004426:	f042 0220 	orr.w	r2, r2, #32
 800442a:	b2d2      	uxtb	r2, r2
 800442c:	f002 021f 	and.w	r2, r2, #31
 8004430:	2101      	movs	r1, #1
 8004432:	fa01 f202 	lsl.w	r2, r1, r2
 8004436:	4013      	ands	r3, r2
 8004438:	2b00      	cmp	r3, #0
 800443a:	d1ab      	bne.n	8004394 <HAL_RCC_OscConfig+0x284>
 800443c:	e003      	b.n	8004446 <HAL_RCC_OscConfig+0x336>
 800443e:	bf00      	nop
 8004440:	40021000 	.word	0x40021000
      if((__HAL_RCC_GET_FLAG(RCC_FLAG_HSERDY) != RESET) && (RCC_OscInitStruct->HSEState == RCC_HSE_OFF))
 8004444:	bf00      	nop
        }
      }
    }
  }
  /*----------------------------- HSI Configuration --------------------------*/ 
  if(((RCC_OscInitStruct->OscillatorType) & RCC_OSCILLATORTYPE_HSI) == RCC_OSCILLATORTYPE_HSI)
 8004446:	f507 7300 	add.w	r3, r7, #512	; 0x200
 800444a:	f5a3 73fe 	sub.w	r3, r3, #508	; 0x1fc
 800444e:	681b      	ldr	r3, [r3, #0]
 8004450:	681b      	ldr	r3, [r3, #0]
 8004452:	f003 0302 	and.w	r3, r3, #2
 8004456:	2b00      	cmp	r3, #0
 8004458:	f000 817d 	beq.w	8004756 <HAL_RCC_OscConfig+0x646>
    /* Check the parameters */
    assert_param(IS_RCC_HSI(RCC_OscInitStruct->HSIState));
    assert_param(IS_RCC_CALIBRATION_VALUE(RCC_OscInitStruct->HSICalibrationValue));
    
    /* Check if HSI is used as system clock or as PLL source when PLL is selected as system clock */ 
    if((__HAL_RCC_GET_SYSCLK_SOURCE() == RCC_SYSCLKSOURCE_STATUS_HSI) 
 800445c:	4ba6      	ldr	r3, [pc, #664]	; (80046f8 <HAL_RCC_OscConfig+0x5e8>)
 800445e:	685b      	ldr	r3, [r3, #4]
 8004460:	f003 030c 	and.w	r3, r3, #12
 8004464:	2b00      	cmp	r3, #0
 8004466:	d00b      	beq.n	8004480 <HAL_RCC_OscConfig+0x370>
       || ((__HAL_RCC_GET_SYSCLK_SOURCE() == RCC_SYSCLKSOURCE_STATUS_PLLCLK) && (__HAL_RCC_GET_PLL_OSCSOURCE() == RCC_PLLSOURCE_HSI)))
 8004468:	4ba3      	ldr	r3, [pc, #652]	; (80046f8 <HAL_RCC_OscConfig+0x5e8>)
 800446a:	685b      	ldr	r3, [r3, #4]
 800446c:	f003 030c 	and.w	r3, r3, #12
 8004470:	2b08      	cmp	r3, #8
 8004472:	d172      	bne.n	800455a <HAL_RCC_OscConfig+0x44a>
 8004474:	4ba0      	ldr	r3, [pc, #640]	; (80046f8 <HAL_RCC_OscConfig+0x5e8>)
 8004476:	685b      	ldr	r3, [r3, #4]
 8004478:	f403 3380 	and.w	r3, r3, #65536	; 0x10000
 800447c:	2b00      	cmp	r3, #0
 800447e:	d16c      	bne.n	800455a <HAL_RCC_OscConfig+0x44a>
 8004480:	2302      	movs	r3, #2
 8004482:	f8c7 3190 	str.w	r3, [r7, #400]	; 0x190
   __ASM volatile ("rbit %0, %1" : "=r" (result) : "r" (value) );
 8004486:	f8d7 3190 	ldr.w	r3, [r7, #400]	; 0x190
 800448a:	fa93 f3a3 	rbit	r3, r3
 800448e:	f8c7 318c 	str.w	r3, [r7, #396]	; 0x18c
  return result;
 8004492:	f8d7 318c 	ldr.w	r3, [r7, #396]	; 0x18c
    {
      /* When HSI is used as system clock it will not disabled */
      if((__HAL_RCC_GET_FLAG(RCC_FLAG_HSIRDY) != RESET) && (RCC_OscInitStruct->HSIState != RCC_HSI_ON))
 8004496:	fab3 f383 	clz	r3, r3
 800449a:	b2db      	uxtb	r3, r3
 800449c:	095b      	lsrs	r3, r3, #5
 800449e:	b2db      	uxtb	r3, r3
 80044a0:	f043 0301 	orr.w	r3, r3, #1
 80044a4:	b2db      	uxtb	r3, r3
 80044a6:	2b01      	cmp	r3, #1
 80044a8:	d102      	bne.n	80044b0 <HAL_RCC_OscConfig+0x3a0>
 80044aa:	4b93      	ldr	r3, [pc, #588]	; (80046f8 <HAL_RCC_OscConfig+0x5e8>)
 80044ac:	681b      	ldr	r3, [r3, #0]
 80044ae:	e013      	b.n	80044d8 <HAL_RCC_OscConfig+0x3c8>
 80044b0:	2302      	movs	r3, #2
 80044b2:	f8c7 3188 	str.w	r3, [r7, #392]	; 0x188
   __ASM volatile ("rbit %0, %1" : "=r" (result) : "r" (value) );
 80044b6:	f8d7 3188 	ldr.w	r3, [r7, #392]	; 0x188
 80044ba:	fa93 f3a3 	rbit	r3, r3
 80044be:	f8c7 3184 	str.w	r3, [r7, #388]	; 0x184
 80044c2:	2302      	movs	r3, #2
 80044c4:	f8c7 3180 	str.w	r3, [r7, #384]	; 0x180
 80044c8:	f8d7 3180 	ldr.w	r3, [r7, #384]	; 0x180
 80044cc:	fa93 f3a3 	rbit	r3, r3
 80044d0:	f8c7 317c 	str.w	r3, [r7, #380]	; 0x17c
 80044d4:	4b88      	ldr	r3, [pc, #544]	; (80046f8 <HAL_RCC_OscConfig+0x5e8>)
 80044d6:	6a5b      	ldr	r3, [r3, #36]	; 0x24
 80044d8:	2202      	movs	r2, #2
 80044da:	f8c7 2178 	str.w	r2, [r7, #376]	; 0x178
 80044de:	f8d7 2178 	ldr.w	r2, [r7, #376]	; 0x178
 80044e2:	fa92 f2a2 	rbit	r2, r2
 80044e6:	f8c7 2174 	str.w	r2, [r7, #372]	; 0x174
  return result;
 80044ea:	f8d7 2174 	ldr.w	r2, [r7, #372]	; 0x174
 80044ee:	fab2 f282 	clz	r2, r2
 80044f2:	b2d2      	uxtb	r2, r2
 80044f4:	f042 0220 	orr.w	r2, r2, #32
 80044f8:	b2d2      	uxtb	r2, r2
 80044fa:	f002 021f 	and.w	r2, r2, #31
 80044fe:	2101      	movs	r1, #1
 8004500:	fa01 f202 	lsl.w	r2, r1, r2
 8004504:	4013      	ands	r3, r2
 8004506:	2b00      	cmp	r3, #0
 8004508:	d00a      	beq.n	8004520 <HAL_RCC_OscConfig+0x410>
 800450a:	f507 7300 	add.w	r3, r7, #512	; 0x200
 800450e:	f5a3 73fe 	sub.w	r3, r3, #508	; 0x1fc
 8004512:	681b      	ldr	r3, [r3, #0]
 8004514:	691b      	ldr	r3, [r3, #16]
 8004516:	2b01      	cmp	r3, #1
 8004518:	d002      	beq.n	8004520 <HAL_RCC_OscConfig+0x410>
      {
        return HAL_ERROR;
 800451a:	2301      	movs	r3, #1
 800451c:	f000 be2e 	b.w	800517c <HAL_RCC_OscConfig+0x106c>
      }
      /* Otherwise, just the calibration is allowed */
      else
      {
        /* Adjusts the Internal High Speed oscillator (HSI) calibration value.*/
        __HAL_RCC_HSI_CALIBRATIONVALUE_ADJUST(RCC_OscInitStruct->HSICalibrationValue);
 8004520:	4b75      	ldr	r3, [pc, #468]	; (80046f8 <HAL_RCC_OscConfig+0x5e8>)
 8004522:	681b      	ldr	r3, [r3, #0]
 8004524:	f023 02f8 	bic.w	r2, r3, #248	; 0xf8
 8004528:	f507 7300 	add.w	r3, r7, #512	; 0x200
 800452c:	f5a3 73fe 	sub.w	r3, r3, #508	; 0x1fc
 8004530:	681b      	ldr	r3, [r3, #0]
 8004532:	695b      	ldr	r3, [r3, #20]
 8004534:	21f8      	movs	r1, #248	; 0xf8
 8004536:	f8c7 1170 	str.w	r1, [r7, #368]	; 0x170
   __ASM volatile ("rbit %0, %1" : "=r" (result) : "r" (value) );
 800453a:	f8d7 1170 	ldr.w	r1, [r7, #368]	; 0x170
 800453e:	fa91 f1a1 	rbit	r1, r1
 8004542:	f8c7 116c 	str.w	r1, [r7, #364]	; 0x16c
  return result;
 8004546:	f8d7 116c 	ldr.w	r1, [r7, #364]	; 0x16c
 800454a:	fab1 f181 	clz	r1, r1
 800454e:	b2c9      	uxtb	r1, r1
 8004550:	408b      	lsls	r3, r1
 8004552:	4969      	ldr	r1, [pc, #420]	; (80046f8 <HAL_RCC_OscConfig+0x5e8>)
 8004554:	4313      	orrs	r3, r2
 8004556:	600b      	str	r3, [r1, #0]
      if((__HAL_RCC_GET_FLAG(RCC_FLAG_HSIRDY) != RESET) && (RCC_OscInitStruct->HSIState != RCC_HSI_ON))
 8004558:	e0fd      	b.n	8004756 <HAL_RCC_OscConfig+0x646>
      }
    }
    else
    {
      /* Check the HSI State */
      if(RCC_OscInitStruct->HSIState != RCC_HSI_OFF)
 800455a:	f507 7300 	add.w	r3, r7, #512	; 0x200
 800455e:	f5a3 73fe 	sub.w	r3, r3, #508	; 0x1fc
 8004562:	681b      	ldr	r3, [r3, #0]
 8004564:	691b      	ldr	r3, [r3, #16]
 8004566:	2b00      	cmp	r3, #0
 8004568:	f000 8088 	beq.w	800467c <HAL_RCC_OscConfig+0x56c>
 800456c:	2301      	movs	r3, #1
 800456e:	f8c7 3168 	str.w	r3, [r7, #360]	; 0x168
   __ASM volatile ("rbit %0, %1" : "=r" (result) : "r" (value) );
 8004572:	f8d7 3168 	ldr.w	r3, [r7, #360]	; 0x168
 8004576:	fa93 f3a3 	rbit	r3, r3
 800457a:	f8c7 3164 	str.w	r3, [r7, #356]	; 0x164
  return result;
 800457e:	f8d7 3164 	ldr.w	r3, [r7, #356]	; 0x164
      {
       /* Enable the Internal High Speed oscillator (HSI). */
        __HAL_RCC_HSI_ENABLE();
 8004582:	fab3 f383 	clz	r3, r3
 8004586:	b2db      	uxtb	r3, r3
 8004588:	f103 5384 	add.w	r3, r3, #276824064	; 0x10800000
 800458c:	f503 1384 	add.w	r3, r3, #1081344	; 0x108000
 8004590:	009b      	lsls	r3, r3, #2
 8004592:	461a      	mov	r2, r3
 8004594:	2301      	movs	r3, #1
 8004596:	6013      	str	r3, [r2, #0]
        
        /* Get Start Tick */
        tickstart = HAL_GetTick();
 8004598:	f7ff fa84 	bl	8003aa4 <HAL_GetTick>
 800459c:	f8c7 01f8 	str.w	r0, [r7, #504]	; 0x1f8
        
        /* Wait till HSI is ready */
        while(__HAL_RCC_GET_FLAG(RCC_FLAG_HSIRDY) == RESET)
 80045a0:	e00a      	b.n	80045b8 <HAL_RCC_OscConfig+0x4a8>
        {
          if((HAL_GetTick() - tickstart ) > HSI_TIMEOUT_VALUE)
 80045a2:	f7ff fa7f 	bl	8003aa4 <HAL_GetTick>
 80045a6:	4602      	mov	r2, r0
 80045a8:	f8d7 31f8 	ldr.w	r3, [r7, #504]	; 0x1f8
 80045ac:	1ad3      	subs	r3, r2, r3
 80045ae:	2b02      	cmp	r3, #2
 80045b0:	d902      	bls.n	80045b8 <HAL_RCC_OscConfig+0x4a8>
          {
            return HAL_TIMEOUT;
 80045b2:	2303      	movs	r3, #3
 80045b4:	f000 bde2 	b.w	800517c <HAL_RCC_OscConfig+0x106c>
 80045b8:	2302      	movs	r3, #2
 80045ba:	f8c7 3160 	str.w	r3, [r7, #352]	; 0x160
   __ASM volatile ("rbit %0, %1" : "=r" (result) : "r" (value) );
 80045be:	f8d7 3160 	ldr.w	r3, [r7, #352]	; 0x160
 80045c2:	fa93 f3a3 	rbit	r3, r3
 80045c6:	f8c7 315c 	str.w	r3, [r7, #348]	; 0x15c
  return result;
 80045ca:	f8d7 315c 	ldr.w	r3, [r7, #348]	; 0x15c
        while(__HAL_RCC_GET_FLAG(RCC_FLAG_HSIRDY) == RESET)
 80045ce:	fab3 f383 	clz	r3, r3
 80045d2:	b2db      	uxtb	r3, r3
 80045d4:	095b      	lsrs	r3, r3, #5
 80045d6:	b2db      	uxtb	r3, r3
 80045d8:	f043 0301 	orr.w	r3, r3, #1
 80045dc:	b2db      	uxtb	r3, r3
 80045de:	2b01      	cmp	r3, #1
 80045e0:	d102      	bne.n	80045e8 <HAL_RCC_OscConfig+0x4d8>
 80045e2:	4b45      	ldr	r3, [pc, #276]	; (80046f8 <HAL_RCC_OscConfig+0x5e8>)
 80045e4:	681b      	ldr	r3, [r3, #0]
 80045e6:	e013      	b.n	8004610 <HAL_RCC_OscConfig+0x500>
 80045e8:	2302      	movs	r3, #2
 80045ea:	f8c7 3158 	str.w	r3, [r7, #344]	; 0x158
   __ASM volatile ("rbit %0, %1" : "=r" (result) : "r" (value) );
 80045ee:	f8d7 3158 	ldr.w	r3, [r7, #344]	; 0x158
 80045f2:	fa93 f3a3 	rbit	r3, r3
 80045f6:	f8c7 3154 	str.w	r3, [r7, #340]	; 0x154
 80045fa:	2302      	movs	r3, #2
 80045fc:	f8c7 3150 	str.w	r3, [r7, #336]	; 0x150
 8004600:	f8d7 3150 	ldr.w	r3, [r7, #336]	; 0x150
 8004604:	fa93 f3a3 	rbit	r3, r3
 8004608:	f8c7 314c 	str.w	r3, [r7, #332]	; 0x14c
 800460c:	4b3a      	ldr	r3, [pc, #232]	; (80046f8 <HAL_RCC_OscConfig+0x5e8>)
 800460e:	6a5b      	ldr	r3, [r3, #36]	; 0x24
 8004610:	2202      	movs	r2, #2
 8004612:	f8c7 2148 	str.w	r2, [r7, #328]	; 0x148
 8004616:	f8d7 2148 	ldr.w	r2, [r7, #328]	; 0x148
 800461a:	fa92 f2a2 	rbit	r2, r2
 800461e:	f8c7 2144 	str.w	r2, [r7, #324]	; 0x144
  return result;
 8004622:	f8d7 2144 	ldr.w	r2, [r7, #324]	; 0x144
 8004626:	fab2 f282 	clz	r2, r2
 800462a:	b2d2      	uxtb	r2, r2
 800462c:	f042 0220 	orr.w	r2, r2, #32
 8004630:	b2d2      	uxtb	r2, r2
 8004632:	f002 021f 	and.w	r2, r2, #31
 8004636:	2101      	movs	r1, #1
 8004638:	fa01 f202 	lsl.w	r2, r1, r2
 800463c:	4013      	ands	r3, r2
 800463e:	2b00      	cmp	r3, #0
 8004640:	d0af      	beq.n	80045a2 <HAL_RCC_OscConfig+0x492>
          }
        }
                
        /* Adjusts the Internal High Speed oscillator (HSI) calibration value.*/
        __HAL_RCC_HSI_CALIBRATIONVALUE_ADJUST(RCC_OscInitStruct->HSICalibrationValue);
 8004642:	4b2d      	ldr	r3, [pc, #180]	; (80046f8 <HAL_RCC_OscConfig+0x5e8>)
 8004644:	681b      	ldr	r3, [r3, #0]
 8004646:	f023 02f8 	bic.w	r2, r3, #248	; 0xf8
 800464a:	f507 7300 	add.w	r3, r7, #512	; 0x200
 800464e:	f5a3 73fe 	sub.w	r3, r3, #508	; 0x1fc
 8004652:	681b      	ldr	r3, [r3, #0]
 8004654:	695b      	ldr	r3, [r3, #20]
 8004656:	21f8      	movs	r1, #248	; 0xf8
 8004658:	f8c7 1140 	str.w	r1, [r7, #320]	; 0x140
   __ASM volatile ("rbit %0, %1" : "=r" (result) : "r" (value) );
 800465c:	f8d7 1140 	ldr.w	r1, [r7, #320]	; 0x140
 8004660:	fa91 f1a1 	rbit	r1, r1
 8004664:	f8c7 113c 	str.w	r1, [r7, #316]	; 0x13c
  return result;
 8004668:	f8d7 113c 	ldr.w	r1, [r7, #316]	; 0x13c
 800466c:	fab1 f181 	clz	r1, r1
 8004670:	b2c9      	uxtb	r1, r1
 8004672:	408b      	lsls	r3, r1
 8004674:	4920      	ldr	r1, [pc, #128]	; (80046f8 <HAL_RCC_OscConfig+0x5e8>)
 8004676:	4313      	orrs	r3, r2
 8004678:	600b      	str	r3, [r1, #0]
 800467a:	e06c      	b.n	8004756 <HAL_RCC_OscConfig+0x646>
 800467c:	2301      	movs	r3, #1
 800467e:	f8c7 3138 	str.w	r3, [r7, #312]	; 0x138
   __ASM volatile ("rbit %0, %1" : "=r" (result) : "r" (value) );
 8004682:	f8d7 3138 	ldr.w	r3, [r7, #312]	; 0x138
 8004686:	fa93 f3a3 	rbit	r3, r3
 800468a:	f8c7 3134 	str.w	r3, [r7, #308]	; 0x134
  return result;
 800468e:	f8d7 3134 	ldr.w	r3, [r7, #308]	; 0x134
      }
      else
      {
        /* Disable the Internal High Speed oscillator (HSI). */
        __HAL_RCC_HSI_DISABLE();
 8004692:	fab3 f383 	clz	r3, r3
 8004696:	b2db      	uxtb	r3, r3
 8004698:	f103 5384 	add.w	r3, r3, #276824064	; 0x10800000
 800469c:	f503 1384 	add.w	r3, r3, #1081344	; 0x108000
 80046a0:	009b      	lsls	r3, r3, #2
 80046a2:	461a      	mov	r2, r3
 80046a4:	2300      	movs	r3, #0
 80046a6:	6013      	str	r3, [r2, #0]
        
        /* Get Start Tick */
        tickstart = HAL_GetTick();
 80046a8:	f7ff f9fc 	bl	8003aa4 <HAL_GetTick>
 80046ac:	f8c7 01f8 	str.w	r0, [r7, #504]	; 0x1f8
        
        /* Wait till HSI is disabled */
        while(__HAL_RCC_GET_FLAG(RCC_FLAG_HSIRDY) != RESET)
 80046b0:	e00a      	b.n	80046c8 <HAL_RCC_OscConfig+0x5b8>
        {
          if((HAL_GetTick() - tickstart ) > HSI_TIMEOUT_VALUE)
 80046b2:	f7ff f9f7 	bl	8003aa4 <HAL_GetTick>
 80046b6:	4602      	mov	r2, r0
 80046b8:	f8d7 31f8 	ldr.w	r3, [r7, #504]	; 0x1f8
 80046bc:	1ad3      	subs	r3, r2, r3
 80046be:	2b02      	cmp	r3, #2
 80046c0:	d902      	bls.n	80046c8 <HAL_RCC_OscConfig+0x5b8>
          {
            return HAL_TIMEOUT;
 80046c2:	2303      	movs	r3, #3
 80046c4:	f000 bd5a 	b.w	800517c <HAL_RCC_OscConfig+0x106c>
 80046c8:	2302      	movs	r3, #2
 80046ca:	f8c7 3130 	str.w	r3, [r7, #304]	; 0x130
   __ASM volatile ("rbit %0, %1" : "=r" (result) : "r" (value) );
 80046ce:	f8d7 3130 	ldr.w	r3, [r7, #304]	; 0x130
 80046d2:	fa93 f3a3 	rbit	r3, r3
 80046d6:	f8c7 312c 	str.w	r3, [r7, #300]	; 0x12c
  return result;
 80046da:	f8d7 312c 	ldr.w	r3, [r7, #300]	; 0x12c
        while(__HAL_RCC_GET_FLAG(RCC_FLAG_HSIRDY) != RESET)
 80046de:	fab3 f383 	clz	r3, r3
 80046e2:	b2db      	uxtb	r3, r3
 80046e4:	095b      	lsrs	r3, r3, #5
 80046e6:	b2db      	uxtb	r3, r3
 80046e8:	f043 0301 	orr.w	r3, r3, #1
 80046ec:	b2db      	uxtb	r3, r3
 80046ee:	2b01      	cmp	r3, #1
 80046f0:	d104      	bne.n	80046fc <HAL_RCC_OscConfig+0x5ec>
 80046f2:	4b01      	ldr	r3, [pc, #4]	; (80046f8 <HAL_RCC_OscConfig+0x5e8>)
 80046f4:	681b      	ldr	r3, [r3, #0]
 80046f6:	e015      	b.n	8004724 <HAL_RCC_OscConfig+0x614>
 80046f8:	40021000 	.word	0x40021000
 80046fc:	2302      	movs	r3, #2
 80046fe:	f8c7 3128 	str.w	r3, [r7, #296]	; 0x128
   __ASM volatile ("rbit %0, %1" : "=r" (result) : "r" (value) );
 8004702:	f8d7 3128 	ldr.w	r3, [r7, #296]	; 0x128
 8004706:	fa93 f3a3 	rbit	r3, r3
 800470a:	f8c7 3124 	str.w	r3, [r7, #292]	; 0x124
 800470e:	2302      	movs	r3, #2
 8004710:	f8c7 3120 	str.w	r3, [r7, #288]	; 0x120
 8004714:	f8d7 3120 	ldr.w	r3, [r7, #288]	; 0x120
 8004718:	fa93 f3a3 	rbit	r3, r3
 800471c:	f8c7 311c 	str.w	r3, [r7, #284]	; 0x11c
 8004720:	4bc8      	ldr	r3, [pc, #800]	; (8004a44 <HAL_RCC_OscConfig+0x934>)
 8004722:	6a5b      	ldr	r3, [r3, #36]	; 0x24
 8004724:	2202      	movs	r2, #2
 8004726:	f8c7 2118 	str.w	r2, [r7, #280]	; 0x118
 800472a:	f8d7 2118 	ldr.w	r2, [r7, #280]	; 0x118
 800472e:	fa92 f2a2 	rbit	r2, r2
 8004732:	f8c7 2114 	str.w	r2, [r7, #276]	; 0x114
  return result;
 8004736:	f8d7 2114 	ldr.w	r2, [r7, #276]	; 0x114
 800473a:	fab2 f282 	clz	r2, r2
 800473e:	b2d2      	uxtb	r2, r2
 8004740:	f042 0220 	orr.w	r2, r2, #32
 8004744:	b2d2      	uxtb	r2, r2
 8004746:	f002 021f 	and.w	r2, r2, #31
 800474a:	2101      	movs	r1, #1
 800474c:	fa01 f202 	lsl.w	r2, r1, r2
 8004750:	4013      	ands	r3, r2
 8004752:	2b00      	cmp	r3, #0
 8004754:	d1ad      	bne.n	80046b2 <HAL_RCC_OscConfig+0x5a2>
        }
      }
    }
  }
  /*------------------------------ LSI Configuration -------------------------*/ 
  if(((RCC_OscInitStruct->OscillatorType) & RCC_OSCILLATORTYPE_LSI) == RCC_OSCILLATORTYPE_LSI)
 8004756:	f507 7300 	add.w	r3, r7, #512	; 0x200
 800475a:	f5a3 73fe 	sub.w	r3, r3, #508	; 0x1fc
 800475e:	681b      	ldr	r3, [r3, #0]
 8004760:	681b      	ldr	r3, [r3, #0]
 8004762:	f003 0308 	and.w	r3, r3, #8
 8004766:	2b00      	cmp	r3, #0
 8004768:	f000 8110 	beq.w	800498c <HAL_RCC_OscConfig+0x87c>
  {
    /* Check the parameters */
    assert_param(IS_RCC_LSI(RCC_OscInitStruct->LSIState));
    
    /* Check the LSI State */
    if(RCC_OscInitStruct->LSIState != RCC_LSI_OFF)
 800476c:	f507 7300 	add.w	r3, r7, #512	; 0x200
 8004770:	f5a3 73fe 	sub.w	r3, r3, #508	; 0x1fc
 8004774:	681b      	ldr	r3, [r3, #0]
 8004776:	699b      	ldr	r3, [r3, #24]
 8004778:	2b00      	cmp	r3, #0
 800477a:	d079      	beq.n	8004870 <HAL_RCC_OscConfig+0x760>
 800477c:	2301      	movs	r3, #1
 800477e:	f8c7 3110 	str.w	r3, [r7, #272]	; 0x110
   __ASM volatile ("rbit %0, %1" : "=r" (result) : "r" (value) );
 8004782:	f8d7 3110 	ldr.w	r3, [r7, #272]	; 0x110
 8004786:	fa93 f3a3 	rbit	r3, r3
 800478a:	f8c7 310c 	str.w	r3, [r7, #268]	; 0x10c
  return result;
 800478e:	f8d7 310c 	ldr.w	r3, [r7, #268]	; 0x10c
    {
      /* Enable the Internal Low Speed oscillator (LSI). */
      __HAL_RCC_LSI_ENABLE();
 8004792:	fab3 f383 	clz	r3, r3
 8004796:	b2db      	uxtb	r3, r3
 8004798:	461a      	mov	r2, r3
 800479a:	4bab      	ldr	r3, [pc, #684]	; (8004a48 <HAL_RCC_OscConfig+0x938>)
 800479c:	4413      	add	r3, r2
 800479e:	009b      	lsls	r3, r3, #2
 80047a0:	461a      	mov	r2, r3
 80047a2:	2301      	movs	r3, #1
 80047a4:	6013      	str	r3, [r2, #0]
      
      /* Get Start Tick */
      tickstart = HAL_GetTick();
 80047a6:	f7ff f97d 	bl	8003aa4 <HAL_GetTick>
 80047aa:	f8c7 01f8 	str.w	r0, [r7, #504]	; 0x1f8
      
      /* Wait till LSI is ready */  
      while(__HAL_RCC_GET_FLAG(RCC_FLAG_LSIRDY) == RESET)
 80047ae:	e00a      	b.n	80047c6 <HAL_RCC_OscConfig+0x6b6>
      {
        if((HAL_GetTick() - tickstart ) > LSI_TIMEOUT_VALUE)
 80047b0:	f7ff f978 	bl	8003aa4 <HAL_GetTick>
 80047b4:	4602      	mov	r2, r0
 80047b6:	f8d7 31f8 	ldr.w	r3, [r7, #504]	; 0x1f8
 80047ba:	1ad3      	subs	r3, r2, r3
 80047bc:	2b02      	cmp	r3, #2
 80047be:	d902      	bls.n	80047c6 <HAL_RCC_OscConfig+0x6b6>
        {
          return HAL_TIMEOUT;
 80047c0:	2303      	movs	r3, #3
 80047c2:	f000 bcdb 	b.w	800517c <HAL_RCC_OscConfig+0x106c>
 80047c6:	2302      	movs	r3, #2
 80047c8:	f8c7 3108 	str.w	r3, [r7, #264]	; 0x108
   __ASM volatile ("rbit %0, %1" : "=r" (result) : "r" (value) );
 80047cc:	f8d7 3108 	ldr.w	r3, [r7, #264]	; 0x108
 80047d0:	fa93 f3a3 	rbit	r3, r3
 80047d4:	f8c7 3104 	str.w	r3, [r7, #260]	; 0x104
 80047d8:	f507 7300 	add.w	r3, r7, #512	; 0x200
 80047dc:	f5a3 7380 	sub.w	r3, r3, #256	; 0x100
 80047e0:	2202      	movs	r2, #2
 80047e2:	601a      	str	r2, [r3, #0]
 80047e4:	f507 7300 	add.w	r3, r7, #512	; 0x200
 80047e8:	f5a3 7380 	sub.w	r3, r3, #256	; 0x100
 80047ec:	681b      	ldr	r3, [r3, #0]
 80047ee:	fa93 f2a3 	rbit	r2, r3
 80047f2:	f507 7300 	add.w	r3, r7, #512	; 0x200
 80047f6:	f5a3 7382 	sub.w	r3, r3, #260	; 0x104
 80047fa:	601a      	str	r2, [r3, #0]
 80047fc:	f507 7300 	add.w	r3, r7, #512	; 0x200
 8004800:	f5a3 7384 	sub.w	r3, r3, #264	; 0x108
 8004804:	2202      	movs	r2, #2
 8004806:	601a      	str	r2, [r3, #0]
 8004808:	f507 7300 	add.w	r3, r7, #512	; 0x200
 800480c:	f5a3 7384 	sub.w	r3, r3, #264	; 0x108
 8004810:	681b      	ldr	r3, [r3, #0]
 8004812:	fa93 f2a3 	rbit	r2, r3
 8004816:	f507 7300 	add.w	r3, r7, #512	; 0x200
 800481a:	f5a3 7386 	sub.w	r3, r3, #268	; 0x10c
 800481e:	601a      	str	r2, [r3, #0]
      while(__HAL_RCC_GET_FLAG(RCC_FLAG_LSIRDY) == RESET)
 8004820:	4b88      	ldr	r3, [pc, #544]	; (8004a44 <HAL_RCC_OscConfig+0x934>)
 8004822:	6a5a      	ldr	r2, [r3, #36]	; 0x24
 8004824:	f507 7300 	add.w	r3, r7, #512	; 0x200
 8004828:	f5a3 7388 	sub.w	r3, r3, #272	; 0x110
 800482c:	2102      	movs	r1, #2
 800482e:	6019      	str	r1, [r3, #0]
 8004830:	f507 7300 	add.w	r3, r7, #512	; 0x200
 8004834:	f5a3 7388 	sub.w	r3, r3, #272	; 0x110
 8004838:	681b      	ldr	r3, [r3, #0]
 800483a:	fa93 f1a3 	rbit	r1, r3
 800483e:	f507 7300 	add.w	r3, r7, #512	; 0x200
 8004842:	f5a3 738a 	sub.w	r3, r3, #276	; 0x114
 8004846:	6019      	str	r1, [r3, #0]
  return result;
 8004848:	f507 7300 	add.w	r3, r7, #512	; 0x200
 800484c:	f5a3 738a 	sub.w	r3, r3, #276	; 0x114
 8004850:	681b      	ldr	r3, [r3, #0]
 8004852:	fab3 f383 	clz	r3, r3
 8004856:	b2db      	uxtb	r3, r3
 8004858:	f043 0360 	orr.w	r3, r3, #96	; 0x60
 800485c:	b2db      	uxtb	r3, r3
 800485e:	f003 031f 	and.w	r3, r3, #31
 8004862:	2101      	movs	r1, #1
 8004864:	fa01 f303 	lsl.w	r3, r1, r3
 8004868:	4013      	ands	r3, r2
 800486a:	2b00      	cmp	r3, #0
 800486c:	d0a0      	beq.n	80047b0 <HAL_RCC_OscConfig+0x6a0>
 800486e:	e08d      	b.n	800498c <HAL_RCC_OscConfig+0x87c>
 8004870:	f507 7300 	add.w	r3, r7, #512	; 0x200
 8004874:	f5a3 738c 	sub.w	r3, r3, #280	; 0x118
 8004878:	2201      	movs	r2, #1
 800487a:	601a      	str	r2, [r3, #0]
   __ASM volatile ("rbit %0, %1" : "=r" (result) : "r" (value) );
 800487c:	f507 7300 	add.w	r3, r7, #512	; 0x200
 8004880:	f5a3 738c 	sub.w	r3, r3, #280	; 0x118
 8004884:	681b      	ldr	r3, [r3, #0]
 8004886:	fa93 f2a3 	rbit	r2, r3
 800488a:	f507 7300 	add.w	r3, r7, #512	; 0x200
 800488e:	f5a3 738e 	sub.w	r3, r3, #284	; 0x11c
 8004892:	601a      	str	r2, [r3, #0]
  return result;
 8004894:	f507 7300 	add.w	r3, r7, #512	; 0x200
 8004898:	f5a3 738e 	sub.w	r3, r3, #284	; 0x11c
 800489c:	681b      	ldr	r3, [r3, #0]
      }
    }
    else
    {
      /* Disable the Internal Low Speed oscillator (LSI). */
      __HAL_RCC_LSI_DISABLE();
 800489e:	fab3 f383 	clz	r3, r3
 80048a2:	b2db      	uxtb	r3, r3
 80048a4:	461a      	mov	r2, r3
 80048a6:	4b68      	ldr	r3, [pc, #416]	; (8004a48 <HAL_RCC_OscConfig+0x938>)
 80048a8:	4413      	add	r3, r2
 80048aa:	009b      	lsls	r3, r3, #2
 80048ac:	461a      	mov	r2, r3
 80048ae:	2300      	movs	r3, #0
 80048b0:	6013      	str	r3, [r2, #0]
      
      /* Get Start Tick */
      tickstart = HAL_GetTick();
 80048b2:	f7ff f8f7 	bl	8003aa4 <HAL_GetTick>
 80048b6:	f8c7 01f8 	str.w	r0, [r7, #504]	; 0x1f8
      
      /* Wait till LSI is disabled */  
      while(__HAL_RCC_GET_FLAG(RCC_FLAG_LSIRDY) != RESET)
 80048ba:	e00a      	b.n	80048d2 <HAL_RCC_OscConfig+0x7c2>
      {
        if((HAL_GetTick() - tickstart ) > LSI_TIMEOUT_VALUE)
 80048bc:	f7ff f8f2 	bl	8003aa4 <HAL_GetTick>
 80048c0:	4602      	mov	r2, r0
 80048c2:	f8d7 31f8 	ldr.w	r3, [r7, #504]	; 0x1f8
 80048c6:	1ad3      	subs	r3, r2, r3
 80048c8:	2b02      	cmp	r3, #2
 80048ca:	d902      	bls.n	80048d2 <HAL_RCC_OscConfig+0x7c2>
        {
          return HAL_TIMEOUT;
 80048cc:	2303      	movs	r3, #3
 80048ce:	f000 bc55 	b.w	800517c <HAL_RCC_OscConfig+0x106c>
 80048d2:	f507 7300 	add.w	r3, r7, #512	; 0x200
 80048d6:	f5a3 7390 	sub.w	r3, r3, #288	; 0x120
 80048da:	2202      	movs	r2, #2
 80048dc:	601a      	str	r2, [r3, #0]
   __ASM volatile ("rbit %0, %1" : "=r" (result) : "r" (value) );
 80048de:	f507 7300 	add.w	r3, r7, #512	; 0x200
 80048e2:	f5a3 7390 	sub.w	r3, r3, #288	; 0x120
 80048e6:	681b      	ldr	r3, [r3, #0]
 80048e8:	fa93 f2a3 	rbit	r2, r3
 80048ec:	f507 7300 	add.w	r3, r7, #512	; 0x200
 80048f0:	f5a3 7392 	sub.w	r3, r3, #292	; 0x124
 80048f4:	601a      	str	r2, [r3, #0]
 80048f6:	f507 7300 	add.w	r3, r7, #512	; 0x200
 80048fa:	f5a3 7394 	sub.w	r3, r3, #296	; 0x128
 80048fe:	2202      	movs	r2, #2
 8004900:	601a      	str	r2, [r3, #0]
 8004902:	f507 7300 	add.w	r3, r7, #512	; 0x200
 8004906:	f5a3 7394 	sub.w	r3, r3, #296	; 0x128
 800490a:	681b      	ldr	r3, [r3, #0]
 800490c:	fa93 f2a3 	rbit	r2, r3
 8004910:	f507 7300 	add.w	r3, r7, #512	; 0x200
 8004914:	f5a3 7396 	sub.w	r3, r3, #300	; 0x12c
 8004918:	601a      	str	r2, [r3, #0]
 800491a:	f507 7300 	add.w	r3, r7, #512	; 0x200
 800491e:	f5a3 7398 	sub.w	r3, r3, #304	; 0x130
 8004922:	2202      	movs	r2, #2
 8004924:	601a      	str	r2, [r3, #0]
 8004926:	f507 7300 	add.w	r3, r7, #512	; 0x200
 800492a:	f5a3 7398 	sub.w	r3, r3, #304	; 0x130
 800492e:	681b      	ldr	r3, [r3, #0]
 8004930:	fa93 f2a3 	rbit	r2, r3
 8004934:	f507 7300 	add.w	r3, r7, #512	; 0x200
 8004938:	f5a3 739a 	sub.w	r3, r3, #308	; 0x134
 800493c:	601a      	str	r2, [r3, #0]
      while(__HAL_RCC_GET_FLAG(RCC_FLAG_LSIRDY) != RESET)
 800493e:	4b41      	ldr	r3, [pc, #260]	; (8004a44 <HAL_RCC_OscConfig+0x934>)
 8004940:	6a5a      	ldr	r2, [r3, #36]	; 0x24
 8004942:	f507 7300 	add.w	r3, r7, #512	; 0x200
 8004946:	f5a3 739c 	sub.w	r3, r3, #312	; 0x138
 800494a:	2102      	movs	r1, #2
 800494c:	6019      	str	r1, [r3, #0]
 800494e:	f507 7300 	add.w	r3, r7, #512	; 0x200
 8004952:	f5a3 739c 	sub.w	r3, r3, #312	; 0x138
 8004956:	681b      	ldr	r3, [r3, #0]
 8004958:	fa93 f1a3 	rbit	r1, r3
 800495c:	f507 7300 	add.w	r3, r7, #512	; 0x200
 8004960:	f5a3 739e 	sub.w	r3, r3, #316	; 0x13c
 8004964:	6019      	str	r1, [r3, #0]
  return result;
 8004966:	f507 7300 	add.w	r3, r7, #512	; 0x200
 800496a:	f5a3 739e 	sub.w	r3, r3, #316	; 0x13c
 800496e:	681b      	ldr	r3, [r3, #0]
 8004970:	fab3 f383 	clz	r3, r3
 8004974:	b2db      	uxtb	r3, r3
 8004976:	f043 0360 	orr.w	r3, r3, #96	; 0x60
 800497a:	b2db      	uxtb	r3, r3
 800497c:	f003 031f 	and.w	r3, r3, #31
 8004980:	2101      	movs	r1, #1
 8004982:	fa01 f303 	lsl.w	r3, r1, r3
 8004986:	4013      	ands	r3, r2
 8004988:	2b00      	cmp	r3, #0
 800498a:	d197      	bne.n	80048bc <HAL_RCC_OscConfig+0x7ac>
        }
      }
    }
  }
  /*------------------------------ LSE Configuration -------------------------*/ 
  if(((RCC_OscInitStruct->OscillatorType) & RCC_OSCILLATORTYPE_LSE) == RCC_OSCILLATORTYPE_LSE)
 800498c:	f507 7300 	add.w	r3, r7, #512	; 0x200
 8004990:	f5a3 73fe 	sub.w	r3, r3, #508	; 0x1fc
 8004994:	681b      	ldr	r3, [r3, #0]
 8004996:	681b      	ldr	r3, [r3, #0]
 8004998:	f003 0304 	and.w	r3, r3, #4
 800499c:	2b00      	cmp	r3, #0
 800499e:	f000 81a1 	beq.w	8004ce4 <HAL_RCC_OscConfig+0xbd4>
  {
    FlagStatus       pwrclkchanged = RESET;
 80049a2:	2300      	movs	r3, #0
 80049a4:	f887 31ff 	strb.w	r3, [r7, #511]	; 0x1ff
    /* Check the parameters */
    assert_param(IS_RCC_LSE(RCC_OscInitStruct->LSEState));

    /* Update LSE configuration in Backup Domain control register    */
    /* Requires to enable write access to Backup Domain of necessary */
    if(__HAL_RCC_PWR_IS_CLK_DISABLED())
 80049a8:	4b26      	ldr	r3, [pc, #152]	; (8004a44 <HAL_RCC_OscConfig+0x934>)
 80049aa:	69db      	ldr	r3, [r3, #28]
 80049ac:	f003 5380 	and.w	r3, r3, #268435456	; 0x10000000
 80049b0:	2b00      	cmp	r3, #0
 80049b2:	d116      	bne.n	80049e2 <HAL_RCC_OscConfig+0x8d2>
    {
      __HAL_RCC_PWR_CLK_ENABLE();
 80049b4:	4b23      	ldr	r3, [pc, #140]	; (8004a44 <HAL_RCC_OscConfig+0x934>)
 80049b6:	69db      	ldr	r3, [r3, #28]
 80049b8:	4a22      	ldr	r2, [pc, #136]	; (8004a44 <HAL_RCC_OscConfig+0x934>)
 80049ba:	f043 5380 	orr.w	r3, r3, #268435456	; 0x10000000
 80049be:	61d3      	str	r3, [r2, #28]
 80049c0:	4b20      	ldr	r3, [pc, #128]	; (8004a44 <HAL_RCC_OscConfig+0x934>)
 80049c2:	69db      	ldr	r3, [r3, #28]
 80049c4:	f003 5280 	and.w	r2, r3, #268435456	; 0x10000000
 80049c8:	f507 7300 	add.w	r3, r7, #512	; 0x200
 80049cc:	f5a3 73fc 	sub.w	r3, r3, #504	; 0x1f8
 80049d0:	601a      	str	r2, [r3, #0]
 80049d2:	f507 7300 	add.w	r3, r7, #512	; 0x200
 80049d6:	f5a3 73fc 	sub.w	r3, r3, #504	; 0x1f8
 80049da:	681b      	ldr	r3, [r3, #0]
      pwrclkchanged = SET;
 80049dc:	2301      	movs	r3, #1
 80049de:	f887 31ff 	strb.w	r3, [r7, #511]	; 0x1ff
    }
    
    if(HAL_IS_BIT_CLR(PWR->CR, PWR_CR_DBP))
 80049e2:	4b1a      	ldr	r3, [pc, #104]	; (8004a4c <HAL_RCC_OscConfig+0x93c>)
 80049e4:	681b      	ldr	r3, [r3, #0]
 80049e6:	f403 7380 	and.w	r3, r3, #256	; 0x100
 80049ea:	2b00      	cmp	r3, #0
 80049ec:	d11a      	bne.n	8004a24 <HAL_RCC_OscConfig+0x914>
    {
      /* Enable write access to Backup domain */
      SET_BIT(PWR->CR, PWR_CR_DBP);
 80049ee:	4b17      	ldr	r3, [pc, #92]	; (8004a4c <HAL_RCC_OscConfig+0x93c>)
 80049f0:	681b      	ldr	r3, [r3, #0]
 80049f2:	4a16      	ldr	r2, [pc, #88]	; (8004a4c <HAL_RCC_OscConfig+0x93c>)
 80049f4:	f443 7380 	orr.w	r3, r3, #256	; 0x100
 80049f8:	6013      	str	r3, [r2, #0]
      
      /* Wait for Backup domain Write protection disable */
      tickstart = HAL_GetTick();
 80049fa:	f7ff f853 	bl	8003aa4 <HAL_GetTick>
 80049fe:	f8c7 01f8 	str.w	r0, [r7, #504]	; 0x1f8

      while(HAL_IS_BIT_CLR(PWR->CR, PWR_CR_DBP))
 8004a02:	e009      	b.n	8004a18 <HAL_RCC_OscConfig+0x908>
      {
        if((HAL_GetTick() - tickstart) > RCC_DBP_TIMEOUT_VALUE)
 8004a04:	f7ff f84e 	bl	8003aa4 <HAL_GetTick>
 8004a08:	4602      	mov	r2, r0
 8004a0a:	f8d7 31f8 	ldr.w	r3, [r7, #504]	; 0x1f8
 8004a0e:	1ad3      	subs	r3, r2, r3
 8004a10:	2b64      	cmp	r3, #100	; 0x64
 8004a12:	d901      	bls.n	8004a18 <HAL_RCC_OscConfig+0x908>
        {
          return HAL_TIMEOUT;
 8004a14:	2303      	movs	r3, #3
 8004a16:	e3b1      	b.n	800517c <HAL_RCC_OscConfig+0x106c>
      while(HAL_IS_BIT_CLR(PWR->CR, PWR_CR_DBP))
 8004a18:	4b0c      	ldr	r3, [pc, #48]	; (8004a4c <HAL_RCC_OscConfig+0x93c>)
 8004a1a:	681b      	ldr	r3, [r3, #0]
 8004a1c:	f403 7380 	and.w	r3, r3, #256	; 0x100
 8004a20:	2b00      	cmp	r3, #0
 8004a22:	d0ef      	beq.n	8004a04 <HAL_RCC_OscConfig+0x8f4>
        }
      }
    }

    /* Set the new LSE configuration -----------------------------------------*/
    __HAL_RCC_LSE_CONFIG(RCC_OscInitStruct->LSEState);
 8004a24:	f507 7300 	add.w	r3, r7, #512	; 0x200
 8004a28:	f5a3 73fe 	sub.w	r3, r3, #508	; 0x1fc
 8004a2c:	681b      	ldr	r3, [r3, #0]
 8004a2e:	68db      	ldr	r3, [r3, #12]
 8004a30:	2b01      	cmp	r3, #1
 8004a32:	d10d      	bne.n	8004a50 <HAL_RCC_OscConfig+0x940>
 8004a34:	4b03      	ldr	r3, [pc, #12]	; (8004a44 <HAL_RCC_OscConfig+0x934>)
 8004a36:	6a1b      	ldr	r3, [r3, #32]
 8004a38:	4a02      	ldr	r2, [pc, #8]	; (8004a44 <HAL_RCC_OscConfig+0x934>)
 8004a3a:	f043 0301 	orr.w	r3, r3, #1
 8004a3e:	6213      	str	r3, [r2, #32]
 8004a40:	e03c      	b.n	8004abc <HAL_RCC_OscConfig+0x9ac>
 8004a42:	bf00      	nop
 8004a44:	40021000 	.word	0x40021000
 8004a48:	10908120 	.word	0x10908120
 8004a4c:	40007000 	.word	0x40007000
 8004a50:	f507 7300 	add.w	r3, r7, #512	; 0x200
 8004a54:	f5a3 73fe 	sub.w	r3, r3, #508	; 0x1fc
 8004a58:	681b      	ldr	r3, [r3, #0]
 8004a5a:	68db      	ldr	r3, [r3, #12]
 8004a5c:	2b00      	cmp	r3, #0
 8004a5e:	d10c      	bne.n	8004a7a <HAL_RCC_OscConfig+0x96a>
 8004a60:	4bc1      	ldr	r3, [pc, #772]	; (8004d68 <HAL_RCC_OscConfig+0xc58>)
 8004a62:	6a1b      	ldr	r3, [r3, #32]
 8004a64:	4ac0      	ldr	r2, [pc, #768]	; (8004d68 <HAL_RCC_OscConfig+0xc58>)
 8004a66:	f023 0301 	bic.w	r3, r3, #1
 8004a6a:	6213      	str	r3, [r2, #32]
 8004a6c:	4bbe      	ldr	r3, [pc, #760]	; (8004d68 <HAL_RCC_OscConfig+0xc58>)
 8004a6e:	6a1b      	ldr	r3, [r3, #32]
 8004a70:	4abd      	ldr	r2, [pc, #756]	; (8004d68 <HAL_RCC_OscConfig+0xc58>)
 8004a72:	f023 0304 	bic.w	r3, r3, #4
 8004a76:	6213      	str	r3, [r2, #32]
 8004a78:	e020      	b.n	8004abc <HAL_RCC_OscConfig+0x9ac>
 8004a7a:	f507 7300 	add.w	r3, r7, #512	; 0x200
 8004a7e:	f5a3 73fe 	sub.w	r3, r3, #508	; 0x1fc
 8004a82:	681b      	ldr	r3, [r3, #0]
 8004a84:	68db      	ldr	r3, [r3, #12]
 8004a86:	2b05      	cmp	r3, #5
 8004a88:	d10c      	bne.n	8004aa4 <HAL_RCC_OscConfig+0x994>
 8004a8a:	4bb7      	ldr	r3, [pc, #732]	; (8004d68 <HAL_RCC_OscConfig+0xc58>)
 8004a8c:	6a1b      	ldr	r3, [r3, #32]
 8004a8e:	4ab6      	ldr	r2, [pc, #728]	; (8004d68 <HAL_RCC_OscConfig+0xc58>)
 8004a90:	f043 0304 	orr.w	r3, r3, #4
 8004a94:	6213      	str	r3, [r2, #32]
 8004a96:	4bb4      	ldr	r3, [pc, #720]	; (8004d68 <HAL_RCC_OscConfig+0xc58>)
 8004a98:	6a1b      	ldr	r3, [r3, #32]
 8004a9a:	4ab3      	ldr	r2, [pc, #716]	; (8004d68 <HAL_RCC_OscConfig+0xc58>)
 8004a9c:	f043 0301 	orr.w	r3, r3, #1
 8004aa0:	6213      	str	r3, [r2, #32]
 8004aa2:	e00b      	b.n	8004abc <HAL_RCC_OscConfig+0x9ac>
 8004aa4:	4bb0      	ldr	r3, [pc, #704]	; (8004d68 <HAL_RCC_OscConfig+0xc58>)
 8004aa6:	6a1b      	ldr	r3, [r3, #32]
 8004aa8:	4aaf      	ldr	r2, [pc, #700]	; (8004d68 <HAL_RCC_OscConfig+0xc58>)
 8004aaa:	f023 0301 	bic.w	r3, r3, #1
 8004aae:	6213      	str	r3, [r2, #32]
 8004ab0:	4bad      	ldr	r3, [pc, #692]	; (8004d68 <HAL_RCC_OscConfig+0xc58>)
 8004ab2:	6a1b      	ldr	r3, [r3, #32]
 8004ab4:	4aac      	ldr	r2, [pc, #688]	; (8004d68 <HAL_RCC_OscConfig+0xc58>)
 8004ab6:	f023 0304 	bic.w	r3, r3, #4
 8004aba:	6213      	str	r3, [r2, #32]
    /* Check the LSE State */
    if(RCC_OscInitStruct->LSEState != RCC_LSE_OFF)
 8004abc:	f507 7300 	add.w	r3, r7, #512	; 0x200
 8004ac0:	f5a3 73fe 	sub.w	r3, r3, #508	; 0x1fc
 8004ac4:	681b      	ldr	r3, [r3, #0]
 8004ac6:	68db      	ldr	r3, [r3, #12]
 8004ac8:	2b00      	cmp	r3, #0
 8004aca:	f000 8081 	beq.w	8004bd0 <HAL_RCC_OscConfig+0xac0>
    {
      /* Get Start Tick */
      tickstart = HAL_GetTick();
 8004ace:	f7fe ffe9 	bl	8003aa4 <HAL_GetTick>
 8004ad2:	f8c7 01f8 	str.w	r0, [r7, #504]	; 0x1f8
      
      /* Wait till LSE is ready */  
      while(__HAL_RCC_GET_FLAG(RCC_FLAG_LSERDY) == RESET)
 8004ad6:	e00b      	b.n	8004af0 <HAL_RCC_OscConfig+0x9e0>
      {
        if((HAL_GetTick() - tickstart ) > RCC_LSE_TIMEOUT_VALUE)
 8004ad8:	f7fe ffe4 	bl	8003aa4 <HAL_GetTick>
 8004adc:	4602      	mov	r2, r0
 8004ade:	f8d7 31f8 	ldr.w	r3, [r7, #504]	; 0x1f8
 8004ae2:	1ad3      	subs	r3, r2, r3
 8004ae4:	f241 3288 	movw	r2, #5000	; 0x1388
 8004ae8:	4293      	cmp	r3, r2
 8004aea:	d901      	bls.n	8004af0 <HAL_RCC_OscConfig+0x9e0>
        {
          return HAL_TIMEOUT;
 8004aec:	2303      	movs	r3, #3
 8004aee:	e345      	b.n	800517c <HAL_RCC_OscConfig+0x106c>
 8004af0:	f507 7300 	add.w	r3, r7, #512	; 0x200
 8004af4:	f5a3 73a0 	sub.w	r3, r3, #320	; 0x140
 8004af8:	2202      	movs	r2, #2
 8004afa:	601a      	str	r2, [r3, #0]
   __ASM volatile ("rbit %0, %1" : "=r" (result) : "r" (value) );
 8004afc:	f507 7300 	add.w	r3, r7, #512	; 0x200
 8004b00:	f5a3 73a0 	sub.w	r3, r3, #320	; 0x140
 8004b04:	681b      	ldr	r3, [r3, #0]
 8004b06:	fa93 f2a3 	rbit	r2, r3
 8004b0a:	f507 7300 	add.w	r3, r7, #512	; 0x200
 8004b0e:	f5a3 73a2 	sub.w	r3, r3, #324	; 0x144
 8004b12:	601a      	str	r2, [r3, #0]
 8004b14:	f507 7300 	add.w	r3, r7, #512	; 0x200
 8004b18:	f5a3 73a4 	sub.w	r3, r3, #328	; 0x148
 8004b1c:	2202      	movs	r2, #2
 8004b1e:	601a      	str	r2, [r3, #0]
 8004b20:	f507 7300 	add.w	r3, r7, #512	; 0x200
 8004b24:	f5a3 73a4 	sub.w	r3, r3, #328	; 0x148
 8004b28:	681b      	ldr	r3, [r3, #0]
 8004b2a:	fa93 f2a3 	rbit	r2, r3
 8004b2e:	f507 7300 	add.w	r3, r7, #512	; 0x200
 8004b32:	f5a3 73a6 	sub.w	r3, r3, #332	; 0x14c
 8004b36:	601a      	str	r2, [r3, #0]
  return result;
 8004b38:	f507 7300 	add.w	r3, r7, #512	; 0x200
 8004b3c:	f5a3 73a6 	sub.w	r3, r3, #332	; 0x14c
 8004b40:	681b      	ldr	r3, [r3, #0]
      while(__HAL_RCC_GET_FLAG(RCC_FLAG_LSERDY) == RESET)
 8004b42:	fab3 f383 	clz	r3, r3
 8004b46:	b2db      	uxtb	r3, r3
 8004b48:	095b      	lsrs	r3, r3, #5
 8004b4a:	b2db      	uxtb	r3, r3
 8004b4c:	f043 0302 	orr.w	r3, r3, #2
 8004b50:	b2db      	uxtb	r3, r3
 8004b52:	2b02      	cmp	r3, #2
 8004b54:	d102      	bne.n	8004b5c <HAL_RCC_OscConfig+0xa4c>
 8004b56:	4b84      	ldr	r3, [pc, #528]	; (8004d68 <HAL_RCC_OscConfig+0xc58>)
 8004b58:	6a1b      	ldr	r3, [r3, #32]
 8004b5a:	e013      	b.n	8004b84 <HAL_RCC_OscConfig+0xa74>
 8004b5c:	f507 7300 	add.w	r3, r7, #512	; 0x200
 8004b60:	f5a3 73a8 	sub.w	r3, r3, #336	; 0x150
 8004b64:	2202      	movs	r2, #2
 8004b66:	601a      	str	r2, [r3, #0]
   __ASM volatile ("rbit %0, %1" : "=r" (result) : "r" (value) );
 8004b68:	f507 7300 	add.w	r3, r7, #512	; 0x200
 8004b6c:	f5a3 73a8 	sub.w	r3, r3, #336	; 0x150
 8004b70:	681b      	ldr	r3, [r3, #0]
 8004b72:	fa93 f2a3 	rbit	r2, r3
 8004b76:	f507 7300 	add.w	r3, r7, #512	; 0x200
 8004b7a:	f5a3 73aa 	sub.w	r3, r3, #340	; 0x154
 8004b7e:	601a      	str	r2, [r3, #0]
 8004b80:	4b79      	ldr	r3, [pc, #484]	; (8004d68 <HAL_RCC_OscConfig+0xc58>)
 8004b82:	6a5b      	ldr	r3, [r3, #36]	; 0x24
 8004b84:	f507 7200 	add.w	r2, r7, #512	; 0x200
 8004b88:	f5a2 72ac 	sub.w	r2, r2, #344	; 0x158
 8004b8c:	2102      	movs	r1, #2
 8004b8e:	6011      	str	r1, [r2, #0]
 8004b90:	f507 7200 	add.w	r2, r7, #512	; 0x200
 8004b94:	f5a2 72ac 	sub.w	r2, r2, #344	; 0x158
 8004b98:	6812      	ldr	r2, [r2, #0]
 8004b9a:	fa92 f1a2 	rbit	r1, r2
 8004b9e:	f507 7200 	add.w	r2, r7, #512	; 0x200
 8004ba2:	f5a2 72ae 	sub.w	r2, r2, #348	; 0x15c
 8004ba6:	6011      	str	r1, [r2, #0]
  return result;
 8004ba8:	f507 7200 	add.w	r2, r7, #512	; 0x200
 8004bac:	f5a2 72ae 	sub.w	r2, r2, #348	; 0x15c
 8004bb0:	6812      	ldr	r2, [r2, #0]
 8004bb2:	fab2 f282 	clz	r2, r2
 8004bb6:	b2d2      	uxtb	r2, r2
 8004bb8:	f042 0240 	orr.w	r2, r2, #64	; 0x40
 8004bbc:	b2d2      	uxtb	r2, r2
 8004bbe:	f002 021f 	and.w	r2, r2, #31
 8004bc2:	2101      	movs	r1, #1
 8004bc4:	fa01 f202 	lsl.w	r2, r1, r2
 8004bc8:	4013      	ands	r3, r2
 8004bca:	2b00      	cmp	r3, #0
 8004bcc:	d084      	beq.n	8004ad8 <HAL_RCC_OscConfig+0x9c8>
 8004bce:	e07f      	b.n	8004cd0 <HAL_RCC_OscConfig+0xbc0>
      }
    }
    else
    {
      /* Get Start Tick */
      tickstart = HAL_GetTick();
 8004bd0:	f7fe ff68 	bl	8003aa4 <HAL_GetTick>
 8004bd4:	f8c7 01f8 	str.w	r0, [r7, #504]	; 0x1f8
      
      /* Wait till LSE is disabled */  
      while(__HAL_RCC_GET_FLAG(RCC_FLAG_LSERDY) != RESET)
 8004bd8:	e00b      	b.n	8004bf2 <HAL_RCC_OscConfig+0xae2>
      {
        if((HAL_GetTick() - tickstart ) > RCC_LSE_TIMEOUT_VALUE)
 8004bda:	f7fe ff63 	bl	8003aa4 <HAL_GetTick>
 8004bde:	4602      	mov	r2, r0
 8004be0:	f8d7 31f8 	ldr.w	r3, [r7, #504]	; 0x1f8
 8004be4:	1ad3      	subs	r3, r2, r3
 8004be6:	f241 3288 	movw	r2, #5000	; 0x1388
 8004bea:	4293      	cmp	r3, r2
 8004bec:	d901      	bls.n	8004bf2 <HAL_RCC_OscConfig+0xae2>
        {
          return HAL_TIMEOUT;
 8004bee:	2303      	movs	r3, #3
 8004bf0:	e2c4      	b.n	800517c <HAL_RCC_OscConfig+0x106c>
 8004bf2:	f507 7300 	add.w	r3, r7, #512	; 0x200
 8004bf6:	f5a3 73b0 	sub.w	r3, r3, #352	; 0x160
 8004bfa:	2202      	movs	r2, #2
 8004bfc:	601a      	str	r2, [r3, #0]
   __ASM volatile ("rbit %0, %1" : "=r" (result) : "r" (value) );
 8004bfe:	f507 7300 	add.w	r3, r7, #512	; 0x200
 8004c02:	f5a3 73b0 	sub.w	r3, r3, #352	; 0x160
 8004c06:	681b      	ldr	r3, [r3, #0]
 8004c08:	fa93 f2a3 	rbit	r2, r3
 8004c0c:	f507 7300 	add.w	r3, r7, #512	; 0x200
 8004c10:	f5a3 73b2 	sub.w	r3, r3, #356	; 0x164
 8004c14:	601a      	str	r2, [r3, #0]
 8004c16:	f507 7300 	add.w	r3, r7, #512	; 0x200
 8004c1a:	f5a3 73b4 	sub.w	r3, r3, #360	; 0x168
 8004c1e:	2202      	movs	r2, #2
 8004c20:	601a      	str	r2, [r3, #0]
 8004c22:	f507 7300 	add.w	r3, r7, #512	; 0x200
 8004c26:	f5a3 73b4 	sub.w	r3, r3, #360	; 0x168
 8004c2a:	681b      	ldr	r3, [r3, #0]
 8004c2c:	fa93 f2a3 	rbit	r2, r3
 8004c30:	f507 7300 	add.w	r3, r7, #512	; 0x200
 8004c34:	f5a3 73b6 	sub.w	r3, r3, #364	; 0x16c
 8004c38:	601a      	str	r2, [r3, #0]
  return result;
 8004c3a:	f507 7300 	add.w	r3, r7, #512	; 0x200
 8004c3e:	f5a3 73b6 	sub.w	r3, r3, #364	; 0x16c
 8004c42:	681b      	ldr	r3, [r3, #0]
      while(__HAL_RCC_GET_FLAG(RCC_FLAG_LSERDY) != RESET)
 8004c44:	fab3 f383 	clz	r3, r3
 8004c48:	b2db      	uxtb	r3, r3
 8004c4a:	095b      	lsrs	r3, r3, #5
 8004c4c:	b2db      	uxtb	r3, r3
 8004c4e:	f043 0302 	orr.w	r3, r3, #2
 8004c52:	b2db      	uxtb	r3, r3
 8004c54:	2b02      	cmp	r3, #2
 8004c56:	d102      	bne.n	8004c5e <HAL_RCC_OscConfig+0xb4e>
 8004c58:	4b43      	ldr	r3, [pc, #268]	; (8004d68 <HAL_RCC_OscConfig+0xc58>)
 8004c5a:	6a1b      	ldr	r3, [r3, #32]
 8004c5c:	e013      	b.n	8004c86 <HAL_RCC_OscConfig+0xb76>
 8004c5e:	f507 7300 	add.w	r3, r7, #512	; 0x200
 8004c62:	f5a3 73b8 	sub.w	r3, r3, #368	; 0x170
 8004c66:	2202      	movs	r2, #2
 8004c68:	601a      	str	r2, [r3, #0]
   __ASM volatile ("rbit %0, %1" : "=r" (result) : "r" (value) );
 8004c6a:	f507 7300 	add.w	r3, r7, #512	; 0x200
 8004c6e:	f5a3 73b8 	sub.w	r3, r3, #368	; 0x170
 8004c72:	681b      	ldr	r3, [r3, #0]
 8004c74:	fa93 f2a3 	rbit	r2, r3
 8004c78:	f507 7300 	add.w	r3, r7, #512	; 0x200
 8004c7c:	f5a3 73ba 	sub.w	r3, r3, #372	; 0x174
 8004c80:	601a      	str	r2, [r3, #0]
 8004c82:	4b39      	ldr	r3, [pc, #228]	; (8004d68 <HAL_RCC_OscConfig+0xc58>)
 8004c84:	6a5b      	ldr	r3, [r3, #36]	; 0x24
 8004c86:	f507 7200 	add.w	r2, r7, #512	; 0x200
 8004c8a:	f5a2 72bc 	sub.w	r2, r2, #376	; 0x178
 8004c8e:	2102      	movs	r1, #2
 8004c90:	6011      	str	r1, [r2, #0]
 8004c92:	f507 7200 	add.w	r2, r7, #512	; 0x200
 8004c96:	f5a2 72bc 	sub.w	r2, r2, #376	; 0x178
 8004c9a:	6812      	ldr	r2, [r2, #0]
 8004c9c:	fa92 f1a2 	rbit	r1, r2
 8004ca0:	f507 7200 	add.w	r2, r7, #512	; 0x200
 8004ca4:	f5a2 72be 	sub.w	r2, r2, #380	; 0x17c
 8004ca8:	6011      	str	r1, [r2, #0]
  return result;
 8004caa:	f507 7200 	add.w	r2, r7, #512	; 0x200
 8004cae:	f5a2 72be 	sub.w	r2, r2, #380	; 0x17c
 8004cb2:	6812      	ldr	r2, [r2, #0]
 8004cb4:	fab2 f282 	clz	r2, r2
 8004cb8:	b2d2      	uxtb	r2, r2
 8004cba:	f042 0240 	orr.w	r2, r2, #64	; 0x40
 8004cbe:	b2d2      	uxtb	r2, r2
 8004cc0:	f002 021f 	and.w	r2, r2, #31
 8004cc4:	2101      	movs	r1, #1
 8004cc6:	fa01 f202 	lsl.w	r2, r1, r2
 8004cca:	4013      	ands	r3, r2
 8004ccc:	2b00      	cmp	r3, #0
 8004cce:	d184      	bne.n	8004bda <HAL_RCC_OscConfig+0xaca>
        }
      }
    }

    /* Require to disable power clock if necessary */
    if(pwrclkchanged == SET)
 8004cd0:	f897 31ff 	ldrb.w	r3, [r7, #511]	; 0x1ff
 8004cd4:	2b01      	cmp	r3, #1
 8004cd6:	d105      	bne.n	8004ce4 <HAL_RCC_OscConfig+0xbd4>
    {
      __HAL_RCC_PWR_CLK_DISABLE();
 8004cd8:	4b23      	ldr	r3, [pc, #140]	; (8004d68 <HAL_RCC_OscConfig+0xc58>)
 8004cda:	69db      	ldr	r3, [r3, #28]
 8004cdc:	4a22      	ldr	r2, [pc, #136]	; (8004d68 <HAL_RCC_OscConfig+0xc58>)
 8004cde:	f023 5380 	bic.w	r3, r3, #268435456	; 0x10000000
 8004ce2:	61d3      	str	r3, [r2, #28]
  }

  /*-------------------------------- PLL Configuration -----------------------*/
  /* Check the parameters */
  assert_param(IS_RCC_PLL(RCC_OscInitStruct->PLL.PLLState));
  if ((RCC_OscInitStruct->PLL.PLLState) != RCC_PLL_NONE)
 8004ce4:	f507 7300 	add.w	r3, r7, #512	; 0x200
 8004ce8:	f5a3 73fe 	sub.w	r3, r3, #508	; 0x1fc
 8004cec:	681b      	ldr	r3, [r3, #0]
 8004cee:	69db      	ldr	r3, [r3, #28]
 8004cf0:	2b00      	cmp	r3, #0
 8004cf2:	f000 8242 	beq.w	800517a <HAL_RCC_OscConfig+0x106a>
  {
    /* Check if the PLL is used as system clock or not */
    if(__HAL_RCC_GET_SYSCLK_SOURCE() != RCC_SYSCLKSOURCE_STATUS_PLLCLK)
 8004cf6:	4b1c      	ldr	r3, [pc, #112]	; (8004d68 <HAL_RCC_OscConfig+0xc58>)
 8004cf8:	685b      	ldr	r3, [r3, #4]
 8004cfa:	f003 030c 	and.w	r3, r3, #12
 8004cfe:	2b08      	cmp	r3, #8
 8004d00:	f000 8213 	beq.w	800512a <HAL_RCC_OscConfig+0x101a>
    { 
      if((RCC_OscInitStruct->PLL.PLLState) == RCC_PLL_ON)
 8004d04:	f507 7300 	add.w	r3, r7, #512	; 0x200
 8004d08:	f5a3 73fe 	sub.w	r3, r3, #508	; 0x1fc
 8004d0c:	681b      	ldr	r3, [r3, #0]
 8004d0e:	69db      	ldr	r3, [r3, #28]
 8004d10:	2b02      	cmp	r3, #2
 8004d12:	f040 8162 	bne.w	8004fda <HAL_RCC_OscConfig+0xeca>
 8004d16:	f507 7300 	add.w	r3, r7, #512	; 0x200
 8004d1a:	f5a3 73c0 	sub.w	r3, r3, #384	; 0x180
 8004d1e:	f04f 7280 	mov.w	r2, #16777216	; 0x1000000
 8004d22:	601a      	str	r2, [r3, #0]
   __ASM volatile ("rbit %0, %1" : "=r" (result) : "r" (value) );
 8004d24:	f507 7300 	add.w	r3, r7, #512	; 0x200
 8004d28:	f5a3 73c0 	sub.w	r3, r3, #384	; 0x180
 8004d2c:	681b      	ldr	r3, [r3, #0]
 8004d2e:	fa93 f2a3 	rbit	r2, r3
 8004d32:	f507 7300 	add.w	r3, r7, #512	; 0x200
 8004d36:	f5a3 73c2 	sub.w	r3, r3, #388	; 0x184
 8004d3a:	601a      	str	r2, [r3, #0]
  return result;
 8004d3c:	f507 7300 	add.w	r3, r7, #512	; 0x200
 8004d40:	f5a3 73c2 	sub.w	r3, r3, #388	; 0x184
 8004d44:	681b      	ldr	r3, [r3, #0]
#if   defined(RCC_CFGR_PLLSRC_HSI_PREDIV)
        assert_param(IS_RCC_PREDIV(RCC_OscInitStruct->PLL.PREDIV));
#endif
  
        /* Disable the main PLL. */
        __HAL_RCC_PLL_DISABLE();
 8004d46:	fab3 f383 	clz	r3, r3
 8004d4a:	b2db      	uxtb	r3, r3
 8004d4c:	f103 5384 	add.w	r3, r3, #276824064	; 0x10800000
 8004d50:	f503 1384 	add.w	r3, r3, #1081344	; 0x108000
 8004d54:	009b      	lsls	r3, r3, #2
 8004d56:	461a      	mov	r2, r3
 8004d58:	2300      	movs	r3, #0
 8004d5a:	6013      	str	r3, [r2, #0]
        
        /* Get Start Tick */
        tickstart = HAL_GetTick();
 8004d5c:	f7fe fea2 	bl	8003aa4 <HAL_GetTick>
 8004d60:	f8c7 01f8 	str.w	r0, [r7, #504]	; 0x1f8
        
        /* Wait till PLL is disabled */
        while(__HAL_RCC_GET_FLAG(RCC_FLAG_PLLRDY)  != RESET)
 8004d64:	e00c      	b.n	8004d80 <HAL_RCC_OscConfig+0xc70>
 8004d66:	bf00      	nop
 8004d68:	40021000 	.word	0x40021000
        {
          if((HAL_GetTick() - tickstart ) > PLL_TIMEOUT_VALUE)
 8004d6c:	f7fe fe9a 	bl	8003aa4 <HAL_GetTick>
 8004d70:	4602      	mov	r2, r0
 8004d72:	f8d7 31f8 	ldr.w	r3, [r7, #504]	; 0x1f8
 8004d76:	1ad3      	subs	r3, r2, r3
 8004d78:	2b02      	cmp	r3, #2
 8004d7a:	d901      	bls.n	8004d80 <HAL_RCC_OscConfig+0xc70>
          {
            return HAL_TIMEOUT;
 8004d7c:	2303      	movs	r3, #3
 8004d7e:	e1fd      	b.n	800517c <HAL_RCC_OscConfig+0x106c>
 8004d80:	f507 7300 	add.w	r3, r7, #512	; 0x200
 8004d84:	f5a3 73c4 	sub.w	r3, r3, #392	; 0x188
 8004d88:	f04f 7200 	mov.w	r2, #33554432	; 0x2000000
 8004d8c:	601a      	str	r2, [r3, #0]
   __ASM volatile ("rbit %0, %1" : "=r" (result) : "r" (value) );
 8004d8e:	f507 7300 	add.w	r3, r7, #512	; 0x200
 8004d92:	f5a3 73c4 	sub.w	r3, r3, #392	; 0x188
 8004d96:	681b      	ldr	r3, [r3, #0]
 8004d98:	fa93 f2a3 	rbit	r2, r3
 8004d9c:	f507 7300 	add.w	r3, r7, #512	; 0x200
 8004da0:	f5a3 73c6 	sub.w	r3, r3, #396	; 0x18c
 8004da4:	601a      	str	r2, [r3, #0]
  return result;
 8004da6:	f507 7300 	add.w	r3, r7, #512	; 0x200
 8004daa:	f5a3 73c6 	sub.w	r3, r3, #396	; 0x18c
 8004dae:	681b      	ldr	r3, [r3, #0]
        while(__HAL_RCC_GET_FLAG(RCC_FLAG_PLLRDY)  != RESET)
 8004db0:	fab3 f383 	clz	r3, r3
 8004db4:	b2db      	uxtb	r3, r3
 8004db6:	095b      	lsrs	r3, r3, #5
 8004db8:	b2db      	uxtb	r3, r3
 8004dba:	f043 0301 	orr.w	r3, r3, #1
 8004dbe:	b2db      	uxtb	r3, r3
 8004dc0:	2b01      	cmp	r3, #1
 8004dc2:	d102      	bne.n	8004dca <HAL_RCC_OscConfig+0xcba>
 8004dc4:	4bb0      	ldr	r3, [pc, #704]	; (8005088 <HAL_RCC_OscConfig+0xf78>)
 8004dc6:	681b      	ldr	r3, [r3, #0]
 8004dc8:	e027      	b.n	8004e1a <HAL_RCC_OscConfig+0xd0a>
 8004dca:	f507 7300 	add.w	r3, r7, #512	; 0x200
 8004dce:	f5a3 73c8 	sub.w	r3, r3, #400	; 0x190
 8004dd2:	f04f 7200 	mov.w	r2, #33554432	; 0x2000000
 8004dd6:	601a      	str	r2, [r3, #0]
   __ASM volatile ("rbit %0, %1" : "=r" (result) : "r" (value) );
 8004dd8:	f507 7300 	add.w	r3, r7, #512	; 0x200
 8004ddc:	f5a3 73c8 	sub.w	r3, r3, #400	; 0x190
 8004de0:	681b      	ldr	r3, [r3, #0]
 8004de2:	fa93 f2a3 	rbit	r2, r3
 8004de6:	f507 7300 	add.w	r3, r7, #512	; 0x200
 8004dea:	f5a3 73ca 	sub.w	r3, r3, #404	; 0x194
 8004dee:	601a      	str	r2, [r3, #0]
 8004df0:	f507 7300 	add.w	r3, r7, #512	; 0x200
 8004df4:	f5a3 73cc 	sub.w	r3, r3, #408	; 0x198
 8004df8:	f04f 7200 	mov.w	r2, #33554432	; 0x2000000
 8004dfc:	601a      	str	r2, [r3, #0]
 8004dfe:	f507 7300 	add.w	r3, r7, #512	; 0x200
 8004e02:	f5a3 73cc 	sub.w	r3, r3, #408	; 0x198
 8004e06:	681b      	ldr	r3, [r3, #0]
 8004e08:	fa93 f2a3 	rbit	r2, r3
 8004e0c:	f507 7300 	add.w	r3, r7, #512	; 0x200
 8004e10:	f5a3 73ce 	sub.w	r3, r3, #412	; 0x19c
 8004e14:	601a      	str	r2, [r3, #0]
 8004e16:	4b9c      	ldr	r3, [pc, #624]	; (8005088 <HAL_RCC_OscConfig+0xf78>)
 8004e18:	6a5b      	ldr	r3, [r3, #36]	; 0x24
 8004e1a:	f507 7200 	add.w	r2, r7, #512	; 0x200
 8004e1e:	f5a2 72d0 	sub.w	r2, r2, #416	; 0x1a0
 8004e22:	f04f 7100 	mov.w	r1, #33554432	; 0x2000000
 8004e26:	6011      	str	r1, [r2, #0]
 8004e28:	f507 7200 	add.w	r2, r7, #512	; 0x200
 8004e2c:	f5a2 72d0 	sub.w	r2, r2, #416	; 0x1a0
 8004e30:	6812      	ldr	r2, [r2, #0]
 8004e32:	fa92 f1a2 	rbit	r1, r2
 8004e36:	f507 7200 	add.w	r2, r7, #512	; 0x200
 8004e3a:	f5a2 72d2 	sub.w	r2, r2, #420	; 0x1a4
 8004e3e:	6011      	str	r1, [r2, #0]
  return result;
 8004e40:	f507 7200 	add.w	r2, r7, #512	; 0x200
 8004e44:	f5a2 72d2 	sub.w	r2, r2, #420	; 0x1a4
 8004e48:	6812      	ldr	r2, [r2, #0]
 8004e4a:	fab2 f282 	clz	r2, r2
 8004e4e:	b2d2      	uxtb	r2, r2
 8004e50:	f042 0220 	orr.w	r2, r2, #32
 8004e54:	b2d2      	uxtb	r2, r2
 8004e56:	f002 021f 	and.w	r2, r2, #31
 8004e5a:	2101      	movs	r1, #1
 8004e5c:	fa01 f202 	lsl.w	r2, r1, r2
 8004e60:	4013      	ands	r3, r2
 8004e62:	2b00      	cmp	r3, #0
 8004e64:	d182      	bne.n	8004d6c <HAL_RCC_OscConfig+0xc5c>
        __HAL_RCC_PLL_CONFIG(RCC_OscInitStruct->PLL.PLLSource,
                             RCC_OscInitStruct->PLL.PREDIV,
                             RCC_OscInitStruct->PLL.PLLMUL);
#else
      /* Configure the main PLL clock source and multiplication factor. */
      __HAL_RCC_PLL_CONFIG(RCC_OscInitStruct->PLL.PLLSource,
 8004e66:	4b88      	ldr	r3, [pc, #544]	; (8005088 <HAL_RCC_OscConfig+0xf78>)
 8004e68:	685b      	ldr	r3, [r3, #4]
 8004e6a:	f423 1274 	bic.w	r2, r3, #3997696	; 0x3d0000
 8004e6e:	f507 7300 	add.w	r3, r7, #512	; 0x200
 8004e72:	f5a3 73fe 	sub.w	r3, r3, #508	; 0x1fc
 8004e76:	681b      	ldr	r3, [r3, #0]
 8004e78:	6a59      	ldr	r1, [r3, #36]	; 0x24
 8004e7a:	f507 7300 	add.w	r3, r7, #512	; 0x200
 8004e7e:	f5a3 73fe 	sub.w	r3, r3, #508	; 0x1fc
 8004e82:	681b      	ldr	r3, [r3, #0]
 8004e84:	6a1b      	ldr	r3, [r3, #32]
 8004e86:	430b      	orrs	r3, r1
 8004e88:	497f      	ldr	r1, [pc, #508]	; (8005088 <HAL_RCC_OscConfig+0xf78>)
 8004e8a:	4313      	orrs	r3, r2
 8004e8c:	604b      	str	r3, [r1, #4]
 8004e8e:	f507 7300 	add.w	r3, r7, #512	; 0x200
 8004e92:	f5a3 73d4 	sub.w	r3, r3, #424	; 0x1a8
 8004e96:	f04f 7280 	mov.w	r2, #16777216	; 0x1000000
 8004e9a:	601a      	str	r2, [r3, #0]
   __ASM volatile ("rbit %0, %1" : "=r" (result) : "r" (value) );
 8004e9c:	f507 7300 	add.w	r3, r7, #512	; 0x200
 8004ea0:	f5a3 73d4 	sub.w	r3, r3, #424	; 0x1a8
 8004ea4:	681b      	ldr	r3, [r3, #0]
 8004ea6:	fa93 f2a3 	rbit	r2, r3
 8004eaa:	f507 7300 	add.w	r3, r7, #512	; 0x200
 8004eae:	f5a3 73d6 	sub.w	r3, r3, #428	; 0x1ac
 8004eb2:	601a      	str	r2, [r3, #0]
  return result;
 8004eb4:	f507 7300 	add.w	r3, r7, #512	; 0x200
 8004eb8:	f5a3 73d6 	sub.w	r3, r3, #428	; 0x1ac
 8004ebc:	681b      	ldr	r3, [r3, #0]
                           RCC_OscInitStruct->PLL.PLLMUL);
#endif /* RCC_CFGR_PLLSRC_HSI_PREDIV */
        /* Enable the main PLL. */
        __HAL_RCC_PLL_ENABLE();
 8004ebe:	fab3 f383 	clz	r3, r3
 8004ec2:	b2db      	uxtb	r3, r3
 8004ec4:	f103 5384 	add.w	r3, r3, #276824064	; 0x10800000
 8004ec8:	f503 1384 	add.w	r3, r3, #1081344	; 0x108000
 8004ecc:	009b      	lsls	r3, r3, #2
 8004ece:	461a      	mov	r2, r3
 8004ed0:	2301      	movs	r3, #1
 8004ed2:	6013      	str	r3, [r2, #0]
        
        /* Get Start Tick */
        tickstart = HAL_GetTick();
 8004ed4:	f7fe fde6 	bl	8003aa4 <HAL_GetTick>
 8004ed8:	f8c7 01f8 	str.w	r0, [r7, #504]	; 0x1f8
        
        /* Wait till PLL is ready */
        while(__HAL_RCC_GET_FLAG(RCC_FLAG_PLLRDY)  == RESET)
 8004edc:	e009      	b.n	8004ef2 <HAL_RCC_OscConfig+0xde2>
        {
          if((HAL_GetTick() - tickstart ) > PLL_TIMEOUT_VALUE)
 8004ede:	f7fe fde1 	bl	8003aa4 <HAL_GetTick>
 8004ee2:	4602      	mov	r2, r0
 8004ee4:	f8d7 31f8 	ldr.w	r3, [r7, #504]	; 0x1f8
 8004ee8:	1ad3      	subs	r3, r2, r3
 8004eea:	2b02      	cmp	r3, #2
 8004eec:	d901      	bls.n	8004ef2 <HAL_RCC_OscConfig+0xde2>
          {
            return HAL_TIMEOUT;
 8004eee:	2303      	movs	r3, #3
 8004ef0:	e144      	b.n	800517c <HAL_RCC_OscConfig+0x106c>
 8004ef2:	f507 7300 	add.w	r3, r7, #512	; 0x200
 8004ef6:	f5a3 73d8 	sub.w	r3, r3, #432	; 0x1b0
 8004efa:	f04f 7200 	mov.w	r2, #33554432	; 0x2000000
 8004efe:	601a      	str	r2, [r3, #0]
   __ASM volatile ("rbit %0, %1" : "=r" (result) : "r" (value) );
 8004f00:	f507 7300 	add.w	r3, r7, #512	; 0x200
 8004f04:	f5a3 73d8 	sub.w	r3, r3, #432	; 0x1b0
 8004f08:	681b      	ldr	r3, [r3, #0]
 8004f0a:	fa93 f2a3 	rbit	r2, r3
 8004f0e:	f507 7300 	add.w	r3, r7, #512	; 0x200
 8004f12:	f5a3 73da 	sub.w	r3, r3, #436	; 0x1b4
 8004f16:	601a      	str	r2, [r3, #0]
  return result;
 8004f18:	f507 7300 	add.w	r3, r7, #512	; 0x200
 8004f1c:	f5a3 73da 	sub.w	r3, r3, #436	; 0x1b4
 8004f20:	681b      	ldr	r3, [r3, #0]
        while(__HAL_RCC_GET_FLAG(RCC_FLAG_PLLRDY)  == RESET)
 8004f22:	fab3 f383 	clz	r3, r3
 8004f26:	b2db      	uxtb	r3, r3
 8004f28:	095b      	lsrs	r3, r3, #5
 8004f2a:	b2db      	uxtb	r3, r3
 8004f2c:	f043 0301 	orr.w	r3, r3, #1
 8004f30:	b2db      	uxtb	r3, r3
 8004f32:	2b01      	cmp	r3, #1
 8004f34:	d102      	bne.n	8004f3c <HAL_RCC_OscConfig+0xe2c>
 8004f36:	4b54      	ldr	r3, [pc, #336]	; (8005088 <HAL_RCC_OscConfig+0xf78>)
 8004f38:	681b      	ldr	r3, [r3, #0]
 8004f3a:	e027      	b.n	8004f8c <HAL_RCC_OscConfig+0xe7c>
 8004f3c:	f507 7300 	add.w	r3, r7, #512	; 0x200
 8004f40:	f5a3 73dc 	sub.w	r3, r3, #440	; 0x1b8
 8004f44:	f04f 7200 	mov.w	r2, #33554432	; 0x2000000
 8004f48:	601a      	str	r2, [r3, #0]
   __ASM volatile ("rbit %0, %1" : "=r" (result) : "r" (value) );
 8004f4a:	f507 7300 	add.w	r3, r7, #512	; 0x200
 8004f4e:	f5a3 73dc 	sub.w	r3, r3, #440	; 0x1b8
 8004f52:	681b      	ldr	r3, [r3, #0]
 8004f54:	fa93 f2a3 	rbit	r2, r3
 8004f58:	f507 7300 	add.w	r3, r7, #512	; 0x200
 8004f5c:	f5a3 73de 	sub.w	r3, r3, #444	; 0x1bc
 8004f60:	601a      	str	r2, [r3, #0]
 8004f62:	f507 7300 	add.w	r3, r7, #512	; 0x200
 8004f66:	f5a3 73e0 	sub.w	r3, r3, #448	; 0x1c0
 8004f6a:	f04f 7200 	mov.w	r2, #33554432	; 0x2000000
 8004f6e:	601a      	str	r2, [r3, #0]
 8004f70:	f507 7300 	add.w	r3, r7, #512	; 0x200
 8004f74:	f5a3 73e0 	sub.w	r3, r3, #448	; 0x1c0
 8004f78:	681b      	ldr	r3, [r3, #0]
 8004f7a:	fa93 f2a3 	rbit	r2, r3
 8004f7e:	f507 7300 	add.w	r3, r7, #512	; 0x200
 8004f82:	f5a3 73e2 	sub.w	r3, r3, #452	; 0x1c4
 8004f86:	601a      	str	r2, [r3, #0]
 8004f88:	4b3f      	ldr	r3, [pc, #252]	; (8005088 <HAL_RCC_OscConfig+0xf78>)
 8004f8a:	6a5b      	ldr	r3, [r3, #36]	; 0x24
 8004f8c:	f507 7200 	add.w	r2, r7, #512	; 0x200
 8004f90:	f5a2 72e4 	sub.w	r2, r2, #456	; 0x1c8
 8004f94:	f04f 7100 	mov.w	r1, #33554432	; 0x2000000
 8004f98:	6011      	str	r1, [r2, #0]
 8004f9a:	f507 7200 	add.w	r2, r7, #512	; 0x200
 8004f9e:	f5a2 72e4 	sub.w	r2, r2, #456	; 0x1c8
 8004fa2:	6812      	ldr	r2, [r2, #0]
 8004fa4:	fa92 f1a2 	rbit	r1, r2
 8004fa8:	f507 7200 	add.w	r2, r7, #512	; 0x200
 8004fac:	f5a2 72e6 	sub.w	r2, r2, #460	; 0x1cc
 8004fb0:	6011      	str	r1, [r2, #0]
  return result;
 8004fb2:	f507 7200 	add.w	r2, r7, #512	; 0x200
 8004fb6:	f5a2 72e6 	sub.w	r2, r2, #460	; 0x1cc
 8004fba:	6812      	ldr	r2, [r2, #0]
 8004fbc:	fab2 f282 	clz	r2, r2
 8004fc0:	b2d2      	uxtb	r2, r2
 8004fc2:	f042 0220 	orr.w	r2, r2, #32
 8004fc6:	b2d2      	uxtb	r2, r2
 8004fc8:	f002 021f 	and.w	r2, r2, #31
 8004fcc:	2101      	movs	r1, #1
 8004fce:	fa01 f202 	lsl.w	r2, r1, r2
 8004fd2:	4013      	ands	r3, r2
 8004fd4:	2b00      	cmp	r3, #0
 8004fd6:	d082      	beq.n	8004ede <HAL_RCC_OscConfig+0xdce>
 8004fd8:	e0cf      	b.n	800517a <HAL_RCC_OscConfig+0x106a>
 8004fda:	f507 7300 	add.w	r3, r7, #512	; 0x200
 8004fde:	f5a3 73e8 	sub.w	r3, r3, #464	; 0x1d0
 8004fe2:	f04f 7280 	mov.w	r2, #16777216	; 0x1000000
 8004fe6:	601a      	str	r2, [r3, #0]
   __ASM volatile ("rbit %0, %1" : "=r" (result) : "r" (value) );
 8004fe8:	f507 7300 	add.w	r3, r7, #512	; 0x200
 8004fec:	f5a3 73e8 	sub.w	r3, r3, #464	; 0x1d0
 8004ff0:	681b      	ldr	r3, [r3, #0]
 8004ff2:	fa93 f2a3 	rbit	r2, r3
 8004ff6:	f507 7300 	add.w	r3, r7, #512	; 0x200
 8004ffa:	f5a3 73ea 	sub.w	r3, r3, #468	; 0x1d4
 8004ffe:	601a      	str	r2, [r3, #0]
  return result;
 8005000:	f507 7300 	add.w	r3, r7, #512	; 0x200
 8005004:	f5a3 73ea 	sub.w	r3, r3, #468	; 0x1d4
 8005008:	681b      	ldr	r3, [r3, #0]
        }
      }
      else
      {
        /* Disable the main PLL. */
        __HAL_RCC_PLL_DISABLE();
 800500a:	fab3 f383 	clz	r3, r3
 800500e:	b2db      	uxtb	r3, r3
 8005010:	f103 5384 	add.w	r3, r3, #276824064	; 0x10800000
 8005014:	f503 1384 	add.w	r3, r3, #1081344	; 0x108000
 8005018:	009b      	lsls	r3, r3, #2
 800501a:	461a      	mov	r2, r3
 800501c:	2300      	movs	r3, #0
 800501e:	6013      	str	r3, [r2, #0]
 
        /* Get Start Tick */
        tickstart = HAL_GetTick();
 8005020:	f7fe fd40 	bl	8003aa4 <HAL_GetTick>
 8005024:	f8c7 01f8 	str.w	r0, [r7, #504]	; 0x1f8
        
        /* Wait till PLL is disabled */  
        while(__HAL_RCC_GET_FLAG(RCC_FLAG_PLLRDY)  != RESET)
 8005028:	e009      	b.n	800503e <HAL_RCC_OscConfig+0xf2e>
        {
          if((HAL_GetTick() - tickstart ) > PLL_TIMEOUT_VALUE)
 800502a:	f7fe fd3b 	bl	8003aa4 <HAL_GetTick>
 800502e:	4602      	mov	r2, r0
 8005030:	f8d7 31f8 	ldr.w	r3, [r7, #504]	; 0x1f8
 8005034:	1ad3      	subs	r3, r2, r3
 8005036:	2b02      	cmp	r3, #2
 8005038:	d901      	bls.n	800503e <HAL_RCC_OscConfig+0xf2e>
          {
            return HAL_TIMEOUT;
 800503a:	2303      	movs	r3, #3
 800503c:	e09e      	b.n	800517c <HAL_RCC_OscConfig+0x106c>
 800503e:	f507 7300 	add.w	r3, r7, #512	; 0x200
 8005042:	f5a3 73ec 	sub.w	r3, r3, #472	; 0x1d8
 8005046:	f04f 7200 	mov.w	r2, #33554432	; 0x2000000
 800504a:	601a      	str	r2, [r3, #0]
   __ASM volatile ("rbit %0, %1" : "=r" (result) : "r" (value) );
 800504c:	f507 7300 	add.w	r3, r7, #512	; 0x200
 8005050:	f5a3 73ec 	sub.w	r3, r3, #472	; 0x1d8
 8005054:	681b      	ldr	r3, [r3, #0]
 8005056:	fa93 f2a3 	rbit	r2, r3
 800505a:	f507 7300 	add.w	r3, r7, #512	; 0x200
 800505e:	f5a3 73ee 	sub.w	r3, r3, #476	; 0x1dc
 8005062:	601a      	str	r2, [r3, #0]
  return result;
 8005064:	f507 7300 	add.w	r3, r7, #512	; 0x200
 8005068:	f5a3 73ee 	sub.w	r3, r3, #476	; 0x1dc
 800506c:	681b      	ldr	r3, [r3, #0]
        while(__HAL_RCC_GET_FLAG(RCC_FLAG_PLLRDY)  != RESET)
 800506e:	fab3 f383 	clz	r3, r3
 8005072:	b2db      	uxtb	r3, r3
 8005074:	095b      	lsrs	r3, r3, #5
 8005076:	b2db      	uxtb	r3, r3
 8005078:	f043 0301 	orr.w	r3, r3, #1
 800507c:	b2db      	uxtb	r3, r3
 800507e:	2b01      	cmp	r3, #1
 8005080:	d104      	bne.n	800508c <HAL_RCC_OscConfig+0xf7c>
 8005082:	4b01      	ldr	r3, [pc, #4]	; (8005088 <HAL_RCC_OscConfig+0xf78>)
 8005084:	681b      	ldr	r3, [r3, #0]
 8005086:	e029      	b.n	80050dc <HAL_RCC_OscConfig+0xfcc>
 8005088:	40021000 	.word	0x40021000
 800508c:	f507 7300 	add.w	r3, r7, #512	; 0x200
 8005090:	f5a3 73f0 	sub.w	r3, r3, #480	; 0x1e0
 8005094:	f04f 7200 	mov.w	r2, #33554432	; 0x2000000
 8005098:	601a      	str	r2, [r3, #0]
   __ASM volatile ("rbit %0, %1" : "=r" (result) : "r" (value) );
 800509a:	f507 7300 	add.w	r3, r7, #512	; 0x200
 800509e:	f5a3 73f0 	sub.w	r3, r3, #480	; 0x1e0
 80050a2:	681b      	ldr	r3, [r3, #0]
 80050a4:	fa93 f2a3 	rbit	r2, r3
 80050a8:	f507 7300 	add.w	r3, r7, #512	; 0x200
 80050ac:	f5a3 73f2 	sub.w	r3, r3, #484	; 0x1e4
 80050b0:	601a      	str	r2, [r3, #0]
 80050b2:	f507 7300 	add.w	r3, r7, #512	; 0x200
 80050b6:	f5a3 73f4 	sub.w	r3, r3, #488	; 0x1e8
 80050ba:	f04f 7200 	mov.w	r2, #33554432	; 0x2000000
 80050be:	601a      	str	r2, [r3, #0]
 80050c0:	f507 7300 	add.w	r3, r7, #512	; 0x200
 80050c4:	f5a3 73f4 	sub.w	r3, r3, #488	; 0x1e8
 80050c8:	681b      	ldr	r3, [r3, #0]
 80050ca:	fa93 f2a3 	rbit	r2, r3
 80050ce:	f507 7300 	add.w	r3, r7, #512	; 0x200
 80050d2:	f5a3 73f6 	sub.w	r3, r3, #492	; 0x1ec
 80050d6:	601a      	str	r2, [r3, #0]
 80050d8:	4b2b      	ldr	r3, [pc, #172]	; (8005188 <HAL_RCC_OscConfig+0x1078>)
 80050da:	6a5b      	ldr	r3, [r3, #36]	; 0x24
 80050dc:	f507 7200 	add.w	r2, r7, #512	; 0x200
 80050e0:	f5a2 72f8 	sub.w	r2, r2, #496	; 0x1f0
 80050e4:	f04f 7100 	mov.w	r1, #33554432	; 0x2000000
 80050e8:	6011      	str	r1, [r2, #0]
 80050ea:	f507 7200 	add.w	r2, r7, #512	; 0x200
 80050ee:	f5a2 72f8 	sub.w	r2, r2, #496	; 0x1f0
 80050f2:	6812      	ldr	r2, [r2, #0]
 80050f4:	fa92 f1a2 	rbit	r1, r2
 80050f8:	f507 7200 	add.w	r2, r7, #512	; 0x200
 80050fc:	f5a2 72fa 	sub.w	r2, r2, #500	; 0x1f4
 8005100:	6011      	str	r1, [r2, #0]
  return result;
 8005102:	f507 7200 	add.w	r2, r7, #512	; 0x200
 8005106:	f5a2 72fa 	sub.w	r2, r2, #500	; 0x1f4
 800510a:	6812      	ldr	r2, [r2, #0]
 800510c:	fab2 f282 	clz	r2, r2
 8005110:	b2d2      	uxtb	r2, r2
 8005112:	f042 0220 	orr.w	r2, r2, #32
 8005116:	b2d2      	uxtb	r2, r2
 8005118:	f002 021f 	and.w	r2, r2, #31
 800511c:	2101      	movs	r1, #1
 800511e:	fa01 f202 	lsl.w	r2, r1, r2
 8005122:	4013      	ands	r3, r2
 8005124:	2b00      	cmp	r3, #0
 8005126:	d180      	bne.n	800502a <HAL_RCC_OscConfig+0xf1a>
 8005128:	e027      	b.n	800517a <HAL_RCC_OscConfig+0x106a>
      }
    }
    else
    {
      /* Check if there is a request to disable the PLL used as System clock source */
      if((RCC_OscInitStruct->PLL.PLLState) == RCC_PLL_OFF)
 800512a:	f507 7300 	add.w	r3, r7, #512	; 0x200
 800512e:	f5a3 73fe 	sub.w	r3, r3, #508	; 0x1fc
 8005132:	681b      	ldr	r3, [r3, #0]
 8005134:	69db      	ldr	r3, [r3, #28]
 8005136:	2b01      	cmp	r3, #1
 8005138:	d101      	bne.n	800513e <HAL_RCC_OscConfig+0x102e>
      {
        return HAL_ERROR;
 800513a:	2301      	movs	r3, #1
 800513c:	e01e      	b.n	800517c <HAL_RCC_OscConfig+0x106c>
      }
      else
      {
        /* Do not return HAL_ERROR if request repeats the current configuration */
        pll_config = RCC->CFGR;
 800513e:	4b12      	ldr	r3, [pc, #72]	; (8005188 <HAL_RCC_OscConfig+0x1078>)
 8005140:	685b      	ldr	r3, [r3, #4]
 8005142:	f8c7 31f4 	str.w	r3, [r7, #500]	; 0x1f4
        pll_config2 = RCC->CFGR2;
        if((READ_BIT(pll_config, RCC_CFGR_PLLSRC)   != RCC_OscInitStruct->PLL.PLLSource) ||      
           (READ_BIT(pll_config, RCC_CFGR_PLLMUL)   != RCC_OscInitStruct->PLL.PLLMUL)    ||      
           (READ_BIT(pll_config2, RCC_CFGR2_PREDIV)  != RCC_OscInitStruct->PLL.PREDIV))     
#else
        if((READ_BIT(pll_config, RCC_CFGR_PLLSRC)   != RCC_OscInitStruct->PLL.PLLSource) ||      
 8005146:	f8d7 31f4 	ldr.w	r3, [r7, #500]	; 0x1f4
 800514a:	f403 3280 	and.w	r2, r3, #65536	; 0x10000
 800514e:	f507 7300 	add.w	r3, r7, #512	; 0x200
 8005152:	f5a3 73fe 	sub.w	r3, r3, #508	; 0x1fc
 8005156:	681b      	ldr	r3, [r3, #0]
 8005158:	6a1b      	ldr	r3, [r3, #32]
 800515a:	429a      	cmp	r2, r3
 800515c:	d10b      	bne.n	8005176 <HAL_RCC_OscConfig+0x1066>
           (READ_BIT(pll_config, RCC_CFGR_PLLMUL)   != RCC_OscInitStruct->PLL.PLLMUL))
 800515e:	f8d7 31f4 	ldr.w	r3, [r7, #500]	; 0x1f4
 8005162:	f403 1270 	and.w	r2, r3, #3932160	; 0x3c0000
 8005166:	f507 7300 	add.w	r3, r7, #512	; 0x200
 800516a:	f5a3 73fe 	sub.w	r3, r3, #508	; 0x1fc
 800516e:	681b      	ldr	r3, [r3, #0]
 8005170:	6a5b      	ldr	r3, [r3, #36]	; 0x24
        if((READ_BIT(pll_config, RCC_CFGR_PLLSRC)   != RCC_OscInitStruct->PLL.PLLSource) ||      
 8005172:	429a      	cmp	r2, r3
 8005174:	d001      	beq.n	800517a <HAL_RCC_OscConfig+0x106a>
#endif
        {
          return HAL_ERROR;
 8005176:	2301      	movs	r3, #1
 8005178:	e000      	b.n	800517c <HAL_RCC_OscConfig+0x106c>
        }
      }
    }
  }

  return HAL_OK;
 800517a:	2300      	movs	r3, #0
}
 800517c:	4618      	mov	r0, r3
 800517e:	f507 7700 	add.w	r7, r7, #512	; 0x200
 8005182:	46bd      	mov	sp, r7
 8005184:	bd80      	pop	{r7, pc}
 8005186:	bf00      	nop
 8005188:	40021000 	.word	0x40021000

0800518c <HAL_RCC_ClockConfig>:
  *         You can use @ref HAL_RCC_GetClockConfig() function to know which clock is
  *         currently used as system clock source.
  * @retval HAL status
  */
HAL_StatusTypeDef HAL_RCC_ClockConfig(RCC_ClkInitTypeDef  *RCC_ClkInitStruct, uint32_t FLatency)
{
 800518c:	b580      	push	{r7, lr}
 800518e:	b09e      	sub	sp, #120	; 0x78
 8005190:	af00      	add	r7, sp, #0
 8005192:	6078      	str	r0, [r7, #4]
 8005194:	6039      	str	r1, [r7, #0]
  uint32_t tickstart = 0U;
 8005196:	2300      	movs	r3, #0
 8005198:	677b      	str	r3, [r7, #116]	; 0x74

  /* Check Null pointer */
  if(RCC_ClkInitStruct == NULL)
 800519a:	687b      	ldr	r3, [r7, #4]
 800519c:	2b00      	cmp	r3, #0
 800519e:	d101      	bne.n	80051a4 <HAL_RCC_ClockConfig+0x18>
  {
    return HAL_ERROR;
 80051a0:	2301      	movs	r3, #1
 80051a2:	e162      	b.n	800546a <HAL_RCC_ClockConfig+0x2de>
  /* To correctly read data from FLASH memory, the number of wait states (LATENCY) 
  must be correctly programmed according to the frequency of the CPU clock 
    (HCLK) of the device. */

  /* Increasing the number of wait states because of higher CPU frequency */
  if(FLatency > __HAL_FLASH_GET_LATENCY())
 80051a4:	4b90      	ldr	r3, [pc, #576]	; (80053e8 <HAL_RCC_ClockConfig+0x25c>)
 80051a6:	681b      	ldr	r3, [r3, #0]
 80051a8:	f003 0307 	and.w	r3, r3, #7
 80051ac:	683a      	ldr	r2, [r7, #0]
 80051ae:	429a      	cmp	r2, r3
 80051b0:	d910      	bls.n	80051d4 <HAL_RCC_ClockConfig+0x48>
  {    
    /* Program the new number of wait states to the LATENCY bits in the FLASH_ACR register */
    __HAL_FLASH_SET_LATENCY(FLatency);
 80051b2:	4b8d      	ldr	r3, [pc, #564]	; (80053e8 <HAL_RCC_ClockConfig+0x25c>)
 80051b4:	681b      	ldr	r3, [r3, #0]
 80051b6:	f023 0207 	bic.w	r2, r3, #7
 80051ba:	498b      	ldr	r1, [pc, #556]	; (80053e8 <HAL_RCC_ClockConfig+0x25c>)
 80051bc:	683b      	ldr	r3, [r7, #0]
 80051be:	4313      	orrs	r3, r2
 80051c0:	600b      	str	r3, [r1, #0]
    
    /* Check that the new number of wait states is taken into account to access the Flash
    memory by reading the FLASH_ACR register */
    if(__HAL_FLASH_GET_LATENCY() != FLatency)
 80051c2:	4b89      	ldr	r3, [pc, #548]	; (80053e8 <HAL_RCC_ClockConfig+0x25c>)
 80051c4:	681b      	ldr	r3, [r3, #0]
 80051c6:	f003 0307 	and.w	r3, r3, #7
 80051ca:	683a      	ldr	r2, [r7, #0]
 80051cc:	429a      	cmp	r2, r3
 80051ce:	d001      	beq.n	80051d4 <HAL_RCC_ClockConfig+0x48>
    {
      return HAL_ERROR;
 80051d0:	2301      	movs	r3, #1
 80051d2:	e14a      	b.n	800546a <HAL_RCC_ClockConfig+0x2de>
    }
  }

  /*-------------------------- HCLK Configuration --------------------------*/
  if(((RCC_ClkInitStruct->ClockType) & RCC_CLOCKTYPE_HCLK) == RCC_CLOCKTYPE_HCLK)
 80051d4:	687b      	ldr	r3, [r7, #4]
 80051d6:	681b      	ldr	r3, [r3, #0]
 80051d8:	f003 0302 	and.w	r3, r3, #2
 80051dc:	2b00      	cmp	r3, #0
 80051de:	d008      	beq.n	80051f2 <HAL_RCC_ClockConfig+0x66>
  {
    assert_param(IS_RCC_HCLK(RCC_ClkInitStruct->AHBCLKDivider));
    MODIFY_REG(RCC->CFGR, RCC_CFGR_HPRE, RCC_ClkInitStruct->AHBCLKDivider);
 80051e0:	4b82      	ldr	r3, [pc, #520]	; (80053ec <HAL_RCC_ClockConfig+0x260>)
 80051e2:	685b      	ldr	r3, [r3, #4]
 80051e4:	f023 02f0 	bic.w	r2, r3, #240	; 0xf0
 80051e8:	687b      	ldr	r3, [r7, #4]
 80051ea:	689b      	ldr	r3, [r3, #8]
 80051ec:	497f      	ldr	r1, [pc, #508]	; (80053ec <HAL_RCC_ClockConfig+0x260>)
 80051ee:	4313      	orrs	r3, r2
 80051f0:	604b      	str	r3, [r1, #4]
  }

  /*------------------------- SYSCLK Configuration ---------------------------*/ 
  if(((RCC_ClkInitStruct->ClockType) & RCC_CLOCKTYPE_SYSCLK) == RCC_CLOCKTYPE_SYSCLK)
 80051f2:	687b      	ldr	r3, [r7, #4]
 80051f4:	681b      	ldr	r3, [r3, #0]
 80051f6:	f003 0301 	and.w	r3, r3, #1
 80051fa:	2b00      	cmp	r3, #0
 80051fc:	f000 80dc 	beq.w	80053b8 <HAL_RCC_ClockConfig+0x22c>
  {    
    assert_param(IS_RCC_SYSCLKSOURCE(RCC_ClkInitStruct->SYSCLKSource));
    
    /* HSE is selected as System Clock Source */
    if(RCC_ClkInitStruct->SYSCLKSource == RCC_SYSCLKSOURCE_HSE)
 8005200:	687b      	ldr	r3, [r7, #4]
 8005202:	685b      	ldr	r3, [r3, #4]
 8005204:	2b01      	cmp	r3, #1
 8005206:	d13c      	bne.n	8005282 <HAL_RCC_ClockConfig+0xf6>
 8005208:	f44f 3300 	mov.w	r3, #131072	; 0x20000
 800520c:	673b      	str	r3, [r7, #112]	; 0x70
   __ASM volatile ("rbit %0, %1" : "=r" (result) : "r" (value) );
 800520e:	6f3b      	ldr	r3, [r7, #112]	; 0x70
 8005210:	fa93 f3a3 	rbit	r3, r3
 8005214:	66fb      	str	r3, [r7, #108]	; 0x6c
  return result;
 8005216:	6efb      	ldr	r3, [r7, #108]	; 0x6c
    {
      /* Check the HSE ready flag */  
      if(__HAL_RCC_GET_FLAG(RCC_FLAG_HSERDY) == RESET)
 8005218:	fab3 f383 	clz	r3, r3
 800521c:	b2db      	uxtb	r3, r3
 800521e:	095b      	lsrs	r3, r3, #5
 8005220:	b2db      	uxtb	r3, r3
 8005222:	f043 0301 	orr.w	r3, r3, #1
 8005226:	b2db      	uxtb	r3, r3
 8005228:	2b01      	cmp	r3, #1
 800522a:	d102      	bne.n	8005232 <HAL_RCC_ClockConfig+0xa6>
 800522c:	4b6f      	ldr	r3, [pc, #444]	; (80053ec <HAL_RCC_ClockConfig+0x260>)
 800522e:	681b      	ldr	r3, [r3, #0]
 8005230:	e00f      	b.n	8005252 <HAL_RCC_ClockConfig+0xc6>
 8005232:	f44f 3300 	mov.w	r3, #131072	; 0x20000
 8005236:	66bb      	str	r3, [r7, #104]	; 0x68
   __ASM volatile ("rbit %0, %1" : "=r" (result) : "r" (value) );
 8005238:	6ebb      	ldr	r3, [r7, #104]	; 0x68
 800523a:	fa93 f3a3 	rbit	r3, r3
 800523e:	667b      	str	r3, [r7, #100]	; 0x64
 8005240:	f44f 3300 	mov.w	r3, #131072	; 0x20000
 8005244:	663b      	str	r3, [r7, #96]	; 0x60
 8005246:	6e3b      	ldr	r3, [r7, #96]	; 0x60
 8005248:	fa93 f3a3 	rbit	r3, r3
 800524c:	65fb      	str	r3, [r7, #92]	; 0x5c
 800524e:	4b67      	ldr	r3, [pc, #412]	; (80053ec <HAL_RCC_ClockConfig+0x260>)
 8005250:	6a5b      	ldr	r3, [r3, #36]	; 0x24
 8005252:	f44f 3200 	mov.w	r2, #131072	; 0x20000
 8005256:	65ba      	str	r2, [r7, #88]	; 0x58
 8005258:	6dba      	ldr	r2, [r7, #88]	; 0x58
 800525a:	fa92 f2a2 	rbit	r2, r2
 800525e:	657a      	str	r2, [r7, #84]	; 0x54
  return result;
 8005260:	6d7a      	ldr	r2, [r7, #84]	; 0x54
 8005262:	fab2 f282 	clz	r2, r2
 8005266:	b2d2      	uxtb	r2, r2
 8005268:	f042 0220 	orr.w	r2, r2, #32
 800526c:	b2d2      	uxtb	r2, r2
 800526e:	f002 021f 	and.w	r2, r2, #31
 8005272:	2101      	movs	r1, #1
 8005274:	fa01 f202 	lsl.w	r2, r1, r2
 8005278:	4013      	ands	r3, r2
 800527a:	2b00      	cmp	r3, #0
 800527c:	d17b      	bne.n	8005376 <HAL_RCC_ClockConfig+0x1ea>
      {
        return HAL_ERROR;
 800527e:	2301      	movs	r3, #1
 8005280:	e0f3      	b.n	800546a <HAL_RCC_ClockConfig+0x2de>
      }
    }
    /* PLL is selected as System Clock Source */
    else if(RCC_ClkInitStruct->SYSCLKSource == RCC_SYSCLKSOURCE_PLLCLK)
 8005282:	687b      	ldr	r3, [r7, #4]
 8005284:	685b      	ldr	r3, [r3, #4]
 8005286:	2b02      	cmp	r3, #2
 8005288:	d13c      	bne.n	8005304 <HAL_RCC_ClockConfig+0x178>
 800528a:	f04f 7300 	mov.w	r3, #33554432	; 0x2000000
 800528e:	653b      	str	r3, [r7, #80]	; 0x50
   __ASM volatile ("rbit %0, %1" : "=r" (result) : "r" (value) );
 8005290:	6d3b      	ldr	r3, [r7, #80]	; 0x50
 8005292:	fa93 f3a3 	rbit	r3, r3
 8005296:	64fb      	str	r3, [r7, #76]	; 0x4c
  return result;
 8005298:	6cfb      	ldr	r3, [r7, #76]	; 0x4c
    {
      /* Check the PLL ready flag */  
      if(__HAL_RCC_GET_FLAG(RCC_FLAG_PLLRDY) == RESET)
 800529a:	fab3 f383 	clz	r3, r3
 800529e:	b2db      	uxtb	r3, r3
 80052a0:	095b      	lsrs	r3, r3, #5
 80052a2:	b2db      	uxtb	r3, r3
 80052a4:	f043 0301 	orr.w	r3, r3, #1
 80052a8:	b2db      	uxtb	r3, r3
 80052aa:	2b01      	cmp	r3, #1
 80052ac:	d102      	bne.n	80052b4 <HAL_RCC_ClockConfig+0x128>
 80052ae:	4b4f      	ldr	r3, [pc, #316]	; (80053ec <HAL_RCC_ClockConfig+0x260>)
 80052b0:	681b      	ldr	r3, [r3, #0]
 80052b2:	e00f      	b.n	80052d4 <HAL_RCC_ClockConfig+0x148>
 80052b4:	f04f 7300 	mov.w	r3, #33554432	; 0x2000000
 80052b8:	64bb      	str	r3, [r7, #72]	; 0x48
   __ASM volatile ("rbit %0, %1" : "=r" (result) : "r" (value) );
 80052ba:	6cbb      	ldr	r3, [r7, #72]	; 0x48
 80052bc:	fa93 f3a3 	rbit	r3, r3
 80052c0:	647b      	str	r3, [r7, #68]	; 0x44
 80052c2:	f04f 7300 	mov.w	r3, #33554432	; 0x2000000
 80052c6:	643b      	str	r3, [r7, #64]	; 0x40
 80052c8:	6c3b      	ldr	r3, [r7, #64]	; 0x40
 80052ca:	fa93 f3a3 	rbit	r3, r3
 80052ce:	63fb      	str	r3, [r7, #60]	; 0x3c
 80052d0:	4b46      	ldr	r3, [pc, #280]	; (80053ec <HAL_RCC_ClockConfig+0x260>)
 80052d2:	6a5b      	ldr	r3, [r3, #36]	; 0x24
 80052d4:	f04f 7200 	mov.w	r2, #33554432	; 0x2000000
 80052d8:	63ba      	str	r2, [r7, #56]	; 0x38
 80052da:	6bba      	ldr	r2, [r7, #56]	; 0x38
 80052dc:	fa92 f2a2 	rbit	r2, r2
 80052e0:	637a      	str	r2, [r7, #52]	; 0x34
  return result;
 80052e2:	6b7a      	ldr	r2, [r7, #52]	; 0x34
 80052e4:	fab2 f282 	clz	r2, r2
 80052e8:	b2d2      	uxtb	r2, r2
 80052ea:	f042 0220 	orr.w	r2, r2, #32
 80052ee:	b2d2      	uxtb	r2, r2
 80052f0:	f002 021f 	and.w	r2, r2, #31
 80052f4:	2101      	movs	r1, #1
 80052f6:	fa01 f202 	lsl.w	r2, r1, r2
 80052fa:	4013      	ands	r3, r2
 80052fc:	2b00      	cmp	r3, #0
 80052fe:	d13a      	bne.n	8005376 <HAL_RCC_ClockConfig+0x1ea>
      {
        return HAL_ERROR;
 8005300:	2301      	movs	r3, #1
 8005302:	e0b2      	b.n	800546a <HAL_RCC_ClockConfig+0x2de>
 8005304:	2302      	movs	r3, #2
 8005306:	633b      	str	r3, [r7, #48]	; 0x30
   __ASM volatile ("rbit %0, %1" : "=r" (result) : "r" (value) );
 8005308:	6b3b      	ldr	r3, [r7, #48]	; 0x30
 800530a:	fa93 f3a3 	rbit	r3, r3
 800530e:	62fb      	str	r3, [r7, #44]	; 0x2c
  return result;
 8005310:	6afb      	ldr	r3, [r7, #44]	; 0x2c
    }
    /* HSI is selected as System Clock Source */
    else
    {
      /* Check the HSI ready flag */  
      if(__HAL_RCC_GET_FLAG(RCC_FLAG_HSIRDY) == RESET)
 8005312:	fab3 f383 	clz	r3, r3
 8005316:	b2db      	uxtb	r3, r3
 8005318:	095b      	lsrs	r3, r3, #5
 800531a:	b2db      	uxtb	r3, r3
 800531c:	f043 0301 	orr.w	r3, r3, #1
 8005320:	b2db      	uxtb	r3, r3
 8005322:	2b01      	cmp	r3, #1
 8005324:	d102      	bne.n	800532c <HAL_RCC_ClockConfig+0x1a0>
 8005326:	4b31      	ldr	r3, [pc, #196]	; (80053ec <HAL_RCC_ClockConfig+0x260>)
 8005328:	681b      	ldr	r3, [r3, #0]
 800532a:	e00d      	b.n	8005348 <HAL_RCC_ClockConfig+0x1bc>
 800532c:	2302      	movs	r3, #2
 800532e:	62bb      	str	r3, [r7, #40]	; 0x28
   __ASM volatile ("rbit %0, %1" : "=r" (result) : "r" (value) );
 8005330:	6abb      	ldr	r3, [r7, #40]	; 0x28
 8005332:	fa93 f3a3 	rbit	r3, r3
 8005336:	627b      	str	r3, [r7, #36]	; 0x24
 8005338:	2302      	movs	r3, #2
 800533a:	623b      	str	r3, [r7, #32]
 800533c:	6a3b      	ldr	r3, [r7, #32]
 800533e:	fa93 f3a3 	rbit	r3, r3
 8005342:	61fb      	str	r3, [r7, #28]
 8005344:	4b29      	ldr	r3, [pc, #164]	; (80053ec <HAL_RCC_ClockConfig+0x260>)
 8005346:	6a5b      	ldr	r3, [r3, #36]	; 0x24
 8005348:	2202      	movs	r2, #2
 800534a:	61ba      	str	r2, [r7, #24]
 800534c:	69ba      	ldr	r2, [r7, #24]
 800534e:	fa92 f2a2 	rbit	r2, r2
 8005352:	617a      	str	r2, [r7, #20]
  return result;
 8005354:	697a      	ldr	r2, [r7, #20]
 8005356:	fab2 f282 	clz	r2, r2
 800535a:	b2d2      	uxtb	r2, r2
 800535c:	f042 0220 	orr.w	r2, r2, #32
 8005360:	b2d2      	uxtb	r2, r2
 8005362:	f002 021f 	and.w	r2, r2, #31
 8005366:	2101      	movs	r1, #1
 8005368:	fa01 f202 	lsl.w	r2, r1, r2
 800536c:	4013      	ands	r3, r2
 800536e:	2b00      	cmp	r3, #0
 8005370:	d101      	bne.n	8005376 <HAL_RCC_ClockConfig+0x1ea>
      {
        return HAL_ERROR;
 8005372:	2301      	movs	r3, #1
 8005374:	e079      	b.n	800546a <HAL_RCC_ClockConfig+0x2de>
      }
    }

    __HAL_RCC_SYSCLK_CONFIG(RCC_ClkInitStruct->SYSCLKSource);
 8005376:	4b1d      	ldr	r3, [pc, #116]	; (80053ec <HAL_RCC_ClockConfig+0x260>)
 8005378:	685b      	ldr	r3, [r3, #4]
 800537a:	f023 0203 	bic.w	r2, r3, #3
 800537e:	687b      	ldr	r3, [r7, #4]
 8005380:	685b      	ldr	r3, [r3, #4]
 8005382:	491a      	ldr	r1, [pc, #104]	; (80053ec <HAL_RCC_ClockConfig+0x260>)
 8005384:	4313      	orrs	r3, r2
 8005386:	604b      	str	r3, [r1, #4]

    /* Get Start Tick */
    tickstart = HAL_GetTick();
 8005388:	f7fe fb8c 	bl	8003aa4 <HAL_GetTick>
 800538c:	6778      	str	r0, [r7, #116]	; 0x74
    
    while (__HAL_RCC_GET_SYSCLK_SOURCE() != (RCC_ClkInitStruct->SYSCLKSource << RCC_CFGR_SWS_Pos))
 800538e:	e00a      	b.n	80053a6 <HAL_RCC_ClockConfig+0x21a>
    {
      if ((HAL_GetTick() - tickstart) > CLOCKSWITCH_TIMEOUT_VALUE)
 8005390:	f7fe fb88 	bl	8003aa4 <HAL_GetTick>
 8005394:	4602      	mov	r2, r0
 8005396:	6f7b      	ldr	r3, [r7, #116]	; 0x74
 8005398:	1ad3      	subs	r3, r2, r3
 800539a:	f241 3288 	movw	r2, #5000	; 0x1388
 800539e:	4293      	cmp	r3, r2
 80053a0:	d901      	bls.n	80053a6 <HAL_RCC_ClockConfig+0x21a>
      {
        return HAL_TIMEOUT;
 80053a2:	2303      	movs	r3, #3
 80053a4:	e061      	b.n	800546a <HAL_RCC_ClockConfig+0x2de>
    while (__HAL_RCC_GET_SYSCLK_SOURCE() != (RCC_ClkInitStruct->SYSCLKSource << RCC_CFGR_SWS_Pos))
 80053a6:	4b11      	ldr	r3, [pc, #68]	; (80053ec <HAL_RCC_ClockConfig+0x260>)
 80053a8:	685b      	ldr	r3, [r3, #4]
 80053aa:	f003 020c 	and.w	r2, r3, #12
 80053ae:	687b      	ldr	r3, [r7, #4]
 80053b0:	685b      	ldr	r3, [r3, #4]
 80053b2:	009b      	lsls	r3, r3, #2
 80053b4:	429a      	cmp	r2, r3
 80053b6:	d1eb      	bne.n	8005390 <HAL_RCC_ClockConfig+0x204>
      }
    }
  }
  /* Decreasing the number of wait states because of lower CPU frequency */
  if(FLatency < __HAL_FLASH_GET_LATENCY())
 80053b8:	4b0b      	ldr	r3, [pc, #44]	; (80053e8 <HAL_RCC_ClockConfig+0x25c>)
 80053ba:	681b      	ldr	r3, [r3, #0]
 80053bc:	f003 0307 	and.w	r3, r3, #7
 80053c0:	683a      	ldr	r2, [r7, #0]
 80053c2:	429a      	cmp	r2, r3
 80053c4:	d214      	bcs.n	80053f0 <HAL_RCC_ClockConfig+0x264>
  {    
    /* Program the new number of wait states to the LATENCY bits in the FLASH_ACR register */
    __HAL_FLASH_SET_LATENCY(FLatency);
 80053c6:	4b08      	ldr	r3, [pc, #32]	; (80053e8 <HAL_RCC_ClockConfig+0x25c>)
 80053c8:	681b      	ldr	r3, [r3, #0]
 80053ca:	f023 0207 	bic.w	r2, r3, #7
 80053ce:	4906      	ldr	r1, [pc, #24]	; (80053e8 <HAL_RCC_ClockConfig+0x25c>)
 80053d0:	683b      	ldr	r3, [r7, #0]
 80053d2:	4313      	orrs	r3, r2
 80053d4:	600b      	str	r3, [r1, #0]
    
    /* Check that the new number of wait states is taken into account to access the Flash
    memory by reading the FLASH_ACR register */
    if(__HAL_FLASH_GET_LATENCY() != FLatency)
 80053d6:	4b04      	ldr	r3, [pc, #16]	; (80053e8 <HAL_RCC_ClockConfig+0x25c>)
 80053d8:	681b      	ldr	r3, [r3, #0]
 80053da:	f003 0307 	and.w	r3, r3, #7
 80053de:	683a      	ldr	r2, [r7, #0]
 80053e0:	429a      	cmp	r2, r3
 80053e2:	d005      	beq.n	80053f0 <HAL_RCC_ClockConfig+0x264>
    {
      return HAL_ERROR;
 80053e4:	2301      	movs	r3, #1
 80053e6:	e040      	b.n	800546a <HAL_RCC_ClockConfig+0x2de>
 80053e8:	40022000 	.word	0x40022000
 80053ec:	40021000 	.word	0x40021000
    }
  }    

  /*-------------------------- PCLK1 Configuration ---------------------------*/ 
  if(((RCC_ClkInitStruct->ClockType) & RCC_CLOCKTYPE_PCLK1) == RCC_CLOCKTYPE_PCLK1)
 80053f0:	687b      	ldr	r3, [r7, #4]
 80053f2:	681b      	ldr	r3, [r3, #0]
 80053f4:	f003 0304 	and.w	r3, r3, #4
 80053f8:	2b00      	cmp	r3, #0
 80053fa:	d008      	beq.n	800540e <HAL_RCC_ClockConfig+0x282>
  {
    assert_param(IS_RCC_PCLK(RCC_ClkInitStruct->APB1CLKDivider));
    MODIFY_REG(RCC->CFGR, RCC_CFGR_PPRE1, RCC_ClkInitStruct->APB1CLKDivider);
 80053fc:	4b1d      	ldr	r3, [pc, #116]	; (8005474 <HAL_RCC_ClockConfig+0x2e8>)
 80053fe:	685b      	ldr	r3, [r3, #4]
 8005400:	f423 62e0 	bic.w	r2, r3, #1792	; 0x700
 8005404:	687b      	ldr	r3, [r7, #4]
 8005406:	68db      	ldr	r3, [r3, #12]
 8005408:	491a      	ldr	r1, [pc, #104]	; (8005474 <HAL_RCC_ClockConfig+0x2e8>)
 800540a:	4313      	orrs	r3, r2
 800540c:	604b      	str	r3, [r1, #4]
  }
  
  /*-------------------------- PCLK2 Configuration ---------------------------*/ 
  if(((RCC_ClkInitStruct->ClockType) & RCC_CLOCKTYPE_PCLK2) == RCC_CLOCKTYPE_PCLK2)
 800540e:	687b      	ldr	r3, [r7, #4]
 8005410:	681b      	ldr	r3, [r3, #0]
 8005412:	f003 0308 	and.w	r3, r3, #8
 8005416:	2b00      	cmp	r3, #0
 8005418:	d009      	beq.n	800542e <HAL_RCC_ClockConfig+0x2a2>
  {
    assert_param(IS_RCC_PCLK(RCC_ClkInitStruct->APB2CLKDivider));
    MODIFY_REG(RCC->CFGR, RCC_CFGR_PPRE2, ((RCC_ClkInitStruct->APB2CLKDivider) << 3U));
 800541a:	4b16      	ldr	r3, [pc, #88]	; (8005474 <HAL_RCC_ClockConfig+0x2e8>)
 800541c:	685b      	ldr	r3, [r3, #4]
 800541e:	f423 5260 	bic.w	r2, r3, #14336	; 0x3800
 8005422:	687b      	ldr	r3, [r7, #4]
 8005424:	691b      	ldr	r3, [r3, #16]
 8005426:	00db      	lsls	r3, r3, #3
 8005428:	4912      	ldr	r1, [pc, #72]	; (8005474 <HAL_RCC_ClockConfig+0x2e8>)
 800542a:	4313      	orrs	r3, r2
 800542c:	604b      	str	r3, [r1, #4]
  }
 
  /* Update the SystemCoreClock global variable */
  SystemCoreClock = HAL_RCC_GetSysClockFreq() >> AHBPrescTable[(RCC->CFGR & RCC_CFGR_HPRE)>> RCC_CFGR_HPRE_BITNUMBER];
 800542e:	f000 f829 	bl	8005484 <HAL_RCC_GetSysClockFreq>
 8005432:	4601      	mov	r1, r0
 8005434:	4b0f      	ldr	r3, [pc, #60]	; (8005474 <HAL_RCC_ClockConfig+0x2e8>)
 8005436:	685b      	ldr	r3, [r3, #4]
 8005438:	f003 03f0 	and.w	r3, r3, #240	; 0xf0
 800543c:	22f0      	movs	r2, #240	; 0xf0
 800543e:	613a      	str	r2, [r7, #16]
   __ASM volatile ("rbit %0, %1" : "=r" (result) : "r" (value) );
 8005440:	693a      	ldr	r2, [r7, #16]
 8005442:	fa92 f2a2 	rbit	r2, r2
 8005446:	60fa      	str	r2, [r7, #12]
  return result;
 8005448:	68fa      	ldr	r2, [r7, #12]
 800544a:	fab2 f282 	clz	r2, r2
 800544e:	b2d2      	uxtb	r2, r2
 8005450:	40d3      	lsrs	r3, r2
 8005452:	4a09      	ldr	r2, [pc, #36]	; (8005478 <HAL_RCC_ClockConfig+0x2ec>)
 8005454:	5cd3      	ldrb	r3, [r2, r3]
 8005456:	fa21 f303 	lsr.w	r3, r1, r3
 800545a:	4a08      	ldr	r2, [pc, #32]	; (800547c <HAL_RCC_ClockConfig+0x2f0>)
 800545c:	6013      	str	r3, [r2, #0]

  /* Configure the source of time base considering new system clocks settings*/
  HAL_InitTick (uwTickPrio);
 800545e:	4b08      	ldr	r3, [pc, #32]	; (8005480 <HAL_RCC_ClockConfig+0x2f4>)
 8005460:	681b      	ldr	r3, [r3, #0]
 8005462:	4618      	mov	r0, r3
 8005464:	f7fe fada 	bl	8003a1c <HAL_InitTick>
  
  return HAL_OK;
 8005468:	2300      	movs	r3, #0
}
 800546a:	4618      	mov	r0, r3
 800546c:	3778      	adds	r7, #120	; 0x78
 800546e:	46bd      	mov	sp, r7
 8005470:	bd80      	pop	{r7, pc}
 8005472:	bf00      	nop
 8005474:	40021000 	.word	0x40021000
 8005478:	08008470 	.word	0x08008470
 800547c:	2000180c 	.word	0x2000180c
 8005480:	2000183c 	.word	0x2000183c

08005484 <HAL_RCC_GetSysClockFreq>:
  *         right SYSCLK value. Otherwise, any configuration based on this function will be incorrect.
  *         
  * @retval SYSCLK frequency
  */
uint32_t HAL_RCC_GetSysClockFreq(void)
{
 8005484:	b480      	push	{r7}
 8005486:	b08b      	sub	sp, #44	; 0x2c
 8005488:	af00      	add	r7, sp, #0
  uint32_t tmpreg = 0U, prediv = 0U, pllclk = 0U, pllmul = 0U;
 800548a:	2300      	movs	r3, #0
 800548c:	61fb      	str	r3, [r7, #28]
 800548e:	2300      	movs	r3, #0
 8005490:	61bb      	str	r3, [r7, #24]
 8005492:	2300      	movs	r3, #0
 8005494:	627b      	str	r3, [r7, #36]	; 0x24
 8005496:	2300      	movs	r3, #0
 8005498:	617b      	str	r3, [r7, #20]
  uint32_t sysclockfreq = 0U;
 800549a:	2300      	movs	r3, #0
 800549c:	623b      	str	r3, [r7, #32]
  
  tmpreg = RCC->CFGR;
 800549e:	4b29      	ldr	r3, [pc, #164]	; (8005544 <HAL_RCC_GetSysClockFreq+0xc0>)
 80054a0:	685b      	ldr	r3, [r3, #4]
 80054a2:	61fb      	str	r3, [r7, #28]
  
  /* Get SYSCLK source -------------------------------------------------------*/
  switch (tmpreg & RCC_CFGR_SWS)
 80054a4:	69fb      	ldr	r3, [r7, #28]
 80054a6:	f003 030c 	and.w	r3, r3, #12
 80054aa:	2b04      	cmp	r3, #4
 80054ac:	d002      	beq.n	80054b4 <HAL_RCC_GetSysClockFreq+0x30>
 80054ae:	2b08      	cmp	r3, #8
 80054b0:	d003      	beq.n	80054ba <HAL_RCC_GetSysClockFreq+0x36>
 80054b2:	e03c      	b.n	800552e <HAL_RCC_GetSysClockFreq+0xaa>
  {
    case RCC_SYSCLKSOURCE_STATUS_HSE:  /* HSE used as system clock */
    {
      sysclockfreq = HSE_VALUE;
 80054b4:	4b24      	ldr	r3, [pc, #144]	; (8005548 <HAL_RCC_GetSysClockFreq+0xc4>)
 80054b6:	623b      	str	r3, [r7, #32]
      break;
 80054b8:	e03c      	b.n	8005534 <HAL_RCC_GetSysClockFreq+0xb0>
    }
    case RCC_SYSCLKSOURCE_STATUS_PLLCLK:  /* PLL used as system clock */
    {
      pllmul = aPLLMULFactorTable[(uint32_t)(tmpreg & RCC_CFGR_PLLMUL) >> POSITION_VAL(RCC_CFGR_PLLMUL)];
 80054ba:	69fb      	ldr	r3, [r7, #28]
 80054bc:	f403 1370 	and.w	r3, r3, #3932160	; 0x3c0000
 80054c0:	f44f 1270 	mov.w	r2, #3932160	; 0x3c0000
 80054c4:	60ba      	str	r2, [r7, #8]
   __ASM volatile ("rbit %0, %1" : "=r" (result) : "r" (value) );
 80054c6:	68ba      	ldr	r2, [r7, #8]
 80054c8:	fa92 f2a2 	rbit	r2, r2
 80054cc:	607a      	str	r2, [r7, #4]
  return result;
 80054ce:	687a      	ldr	r2, [r7, #4]
 80054d0:	fab2 f282 	clz	r2, r2
 80054d4:	b2d2      	uxtb	r2, r2
 80054d6:	40d3      	lsrs	r3, r2
 80054d8:	4a1c      	ldr	r2, [pc, #112]	; (800554c <HAL_RCC_GetSysClockFreq+0xc8>)
 80054da:	5cd3      	ldrb	r3, [r2, r3]
 80054dc:	617b      	str	r3, [r7, #20]
      prediv = aPredivFactorTable[(uint32_t)(RCC->CFGR2 & RCC_CFGR2_PREDIV) >> POSITION_VAL(RCC_CFGR2_PREDIV)];
 80054de:	4b19      	ldr	r3, [pc, #100]	; (8005544 <HAL_RCC_GetSysClockFreq+0xc0>)
 80054e0:	6adb      	ldr	r3, [r3, #44]	; 0x2c
 80054e2:	f003 030f 	and.w	r3, r3, #15
 80054e6:	220f      	movs	r2, #15
 80054e8:	613a      	str	r2, [r7, #16]
   __ASM volatile ("rbit %0, %1" : "=r" (result) : "r" (value) );
 80054ea:	693a      	ldr	r2, [r7, #16]
 80054ec:	fa92 f2a2 	rbit	r2, r2
 80054f0:	60fa      	str	r2, [r7, #12]
  return result;
 80054f2:	68fa      	ldr	r2, [r7, #12]
 80054f4:	fab2 f282 	clz	r2, r2
 80054f8:	b2d2      	uxtb	r2, r2
 80054fa:	40d3      	lsrs	r3, r2
 80054fc:	4a14      	ldr	r2, [pc, #80]	; (8005550 <HAL_RCC_GetSysClockFreq+0xcc>)
 80054fe:	5cd3      	ldrb	r3, [r2, r3]
 8005500:	61bb      	str	r3, [r7, #24]
#if defined(RCC_CFGR_PLLSRC_HSI_DIV2)
      if ((tmpreg & RCC_CFGR_PLLSRC) != RCC_PLLSOURCE_HSI)
 8005502:	69fb      	ldr	r3, [r7, #28]
 8005504:	f403 3380 	and.w	r3, r3, #65536	; 0x10000
 8005508:	2b00      	cmp	r3, #0
 800550a:	d008      	beq.n	800551e <HAL_RCC_GetSysClockFreq+0x9a>
      {
        /* HSE used as PLL clock source : PLLCLK = HSE/PREDIV * PLLMUL */
        pllclk = (uint32_t)((uint64_t) HSE_VALUE / (uint64_t) (prediv)) * ((uint64_t) pllmul);
 800550c:	4a0e      	ldr	r2, [pc, #56]	; (8005548 <HAL_RCC_GetSysClockFreq+0xc4>)
 800550e:	69bb      	ldr	r3, [r7, #24]
 8005510:	fbb2 f2f3 	udiv	r2, r2, r3
 8005514:	697b      	ldr	r3, [r7, #20]
 8005516:	fb02 f303 	mul.w	r3, r2, r3
 800551a:	627b      	str	r3, [r7, #36]	; 0x24
 800551c:	e004      	b.n	8005528 <HAL_RCC_GetSysClockFreq+0xa4>
      }
      else
      {
        /* HSI used as PLL clock source : PLLCLK = HSI/2 * PLLMUL */
        pllclk = (uint32_t)((uint64_t) (HSI_VALUE >> 1U) * ((uint64_t) pllmul));
 800551e:	697b      	ldr	r3, [r7, #20]
 8005520:	4a0c      	ldr	r2, [pc, #48]	; (8005554 <HAL_RCC_GetSysClockFreq+0xd0>)
 8005522:	fb02 f303 	mul.w	r3, r2, r3
 8005526:	627b      	str	r3, [r7, #36]	; 0x24
      {
        /* HSI used as PLL clock source : PLLCLK = HSI/PREDIV * PLLMUL */
        pllclk = (uint32_t)((uint64_t) HSI_VALUE / (uint64_t) (prediv)) * ((uint64_t) pllmul);
      }
#endif /* RCC_CFGR_PLLSRC_HSI_DIV2 */
      sysclockfreq = pllclk;
 8005528:	6a7b      	ldr	r3, [r7, #36]	; 0x24
 800552a:	623b      	str	r3, [r7, #32]
      break;
 800552c:	e002      	b.n	8005534 <HAL_RCC_GetSysClockFreq+0xb0>
    }
    case RCC_SYSCLKSOURCE_STATUS_HSI:  /* HSI used as system clock source */
    default: /* HSI used as system clock */
    {
      sysclockfreq = HSI_VALUE;
 800552e:	4b0a      	ldr	r3, [pc, #40]	; (8005558 <HAL_RCC_GetSysClockFreq+0xd4>)
 8005530:	623b      	str	r3, [r7, #32]
      break;
 8005532:	bf00      	nop
    }
  }
  return sysclockfreq;
 8005534:	6a3b      	ldr	r3, [r7, #32]
}
 8005536:	4618      	mov	r0, r3
 8005538:	372c      	adds	r7, #44	; 0x2c
 800553a:	46bd      	mov	sp, r7
 800553c:	f85d 7b04 	ldr.w	r7, [sp], #4
 8005540:	4770      	bx	lr
 8005542:	bf00      	nop
 8005544:	40021000 	.word	0x40021000
 8005548:	017d7840 	.word	0x017d7840
 800554c:	08008488 	.word	0x08008488
 8005550:	08008498 	.word	0x08008498
 8005554:	003d0900 	.word	0x003d0900
 8005558:	007a1200 	.word	0x007a1200

0800555c <HAL_RCC_GetHCLKFreq>:
  * @note   The SystemCoreClock CMSIS variable is used to store System Clock Frequency 
  *         and updated within this function
  * @retval HCLK frequency
  */
uint32_t HAL_RCC_GetHCLKFreq(void)
{
 800555c:	b480      	push	{r7}
 800555e:	af00      	add	r7, sp, #0
  return SystemCoreClock;
 8005560:	4b03      	ldr	r3, [pc, #12]	; (8005570 <HAL_RCC_GetHCLKFreq+0x14>)
 8005562:	681b      	ldr	r3, [r3, #0]
}
 8005564:	4618      	mov	r0, r3
 8005566:	46bd      	mov	sp, r7
 8005568:	f85d 7b04 	ldr.w	r7, [sp], #4
 800556c:	4770      	bx	lr
 800556e:	bf00      	nop
 8005570:	2000180c 	.word	0x2000180c

08005574 <HAL_RCC_GetPCLK1Freq>:
  * @note   Each time PCLK1 changes, this function must be called to update the
  *         right PCLK1 value. Otherwise, any configuration based on this function will be incorrect.
  * @retval PCLK1 frequency
  */
uint32_t HAL_RCC_GetPCLK1Freq(void)
{
 8005574:	b580      	push	{r7, lr}
 8005576:	b082      	sub	sp, #8
 8005578:	af00      	add	r7, sp, #0
  /* Get HCLK source and Compute PCLK1 frequency ---------------------------*/
  return (HAL_RCC_GetHCLKFreq() >> APBPrescTable[(RCC->CFGR & RCC_CFGR_PPRE1) >> RCC_CFGR_PPRE1_BITNUMBER]);
 800557a:	f7ff ffef 	bl	800555c <HAL_RCC_GetHCLKFreq>
 800557e:	4601      	mov	r1, r0
 8005580:	4b0b      	ldr	r3, [pc, #44]	; (80055b0 <HAL_RCC_GetPCLK1Freq+0x3c>)
 8005582:	685b      	ldr	r3, [r3, #4]
 8005584:	f403 63e0 	and.w	r3, r3, #1792	; 0x700
 8005588:	f44f 62e0 	mov.w	r2, #1792	; 0x700
 800558c:	607a      	str	r2, [r7, #4]
   __ASM volatile ("rbit %0, %1" : "=r" (result) : "r" (value) );
 800558e:	687a      	ldr	r2, [r7, #4]
 8005590:	fa92 f2a2 	rbit	r2, r2
 8005594:	603a      	str	r2, [r7, #0]
  return result;
 8005596:	683a      	ldr	r2, [r7, #0]
 8005598:	fab2 f282 	clz	r2, r2
 800559c:	b2d2      	uxtb	r2, r2
 800559e:	40d3      	lsrs	r3, r2
 80055a0:	4a04      	ldr	r2, [pc, #16]	; (80055b4 <HAL_RCC_GetPCLK1Freq+0x40>)
 80055a2:	5cd3      	ldrb	r3, [r2, r3]
 80055a4:	fa21 f303 	lsr.w	r3, r1, r3
}    
 80055a8:	4618      	mov	r0, r3
 80055aa:	3708      	adds	r7, #8
 80055ac:	46bd      	mov	sp, r7
 80055ae:	bd80      	pop	{r7, pc}
 80055b0:	40021000 	.word	0x40021000
 80055b4:	08008480 	.word	0x08008480

080055b8 <HAL_RCC_GetPCLK2Freq>:
  * @note   Each time PCLK2 changes, this function must be called to update the
  *         right PCLK2 value. Otherwise, any configuration based on this function will be incorrect.
  * @retval PCLK2 frequency
  */
uint32_t HAL_RCC_GetPCLK2Freq(void)
{
 80055b8:	b580      	push	{r7, lr}
 80055ba:	b082      	sub	sp, #8
 80055bc:	af00      	add	r7, sp, #0
  /* Get HCLK source and Compute PCLK2 frequency ---------------------------*/
  return (HAL_RCC_GetHCLKFreq()>> APBPrescTable[(RCC->CFGR & RCC_CFGR_PPRE2) >> RCC_CFGR_PPRE2_BITNUMBER]);
 80055be:	f7ff ffcd 	bl	800555c <HAL_RCC_GetHCLKFreq>
 80055c2:	4601      	mov	r1, r0
 80055c4:	4b0b      	ldr	r3, [pc, #44]	; (80055f4 <HAL_RCC_GetPCLK2Freq+0x3c>)
 80055c6:	685b      	ldr	r3, [r3, #4]
 80055c8:	f403 5360 	and.w	r3, r3, #14336	; 0x3800
 80055cc:	f44f 5260 	mov.w	r2, #14336	; 0x3800
 80055d0:	607a      	str	r2, [r7, #4]
   __ASM volatile ("rbit %0, %1" : "=r" (result) : "r" (value) );
 80055d2:	687a      	ldr	r2, [r7, #4]
 80055d4:	fa92 f2a2 	rbit	r2, r2
 80055d8:	603a      	str	r2, [r7, #0]
  return result;
 80055da:	683a      	ldr	r2, [r7, #0]
 80055dc:	fab2 f282 	clz	r2, r2
 80055e0:	b2d2      	uxtb	r2, r2
 80055e2:	40d3      	lsrs	r3, r2
 80055e4:	4a04      	ldr	r2, [pc, #16]	; (80055f8 <HAL_RCC_GetPCLK2Freq+0x40>)
 80055e6:	5cd3      	ldrb	r3, [r2, r3]
 80055e8:	fa21 f303 	lsr.w	r3, r1, r3
} 
 80055ec:	4618      	mov	r0, r3
 80055ee:	3708      	adds	r7, #8
 80055f0:	46bd      	mov	sp, r7
 80055f2:	bd80      	pop	{r7, pc}
 80055f4:	40021000 	.word	0x40021000
 80055f8:	08008480 	.word	0x08008480

080055fc <HAL_RCCEx_PeriphCLKConfig>:
  *         When the TIMx clock source is PLL clock, so the TIMx clock is PLL clock x 2.
  *
  * @retval HAL status
  */
HAL_StatusTypeDef HAL_RCCEx_PeriphCLKConfig(RCC_PeriphCLKInitTypeDef  *PeriphClkInit)
{
 80055fc:	b580      	push	{r7, lr}
 80055fe:	b092      	sub	sp, #72	; 0x48
 8005600:	af00      	add	r7, sp, #0
 8005602:	6078      	str	r0, [r7, #4]
  uint32_t tickstart = 0U;
 8005604:	2300      	movs	r3, #0
 8005606:	643b      	str	r3, [r7, #64]	; 0x40
  uint32_t temp_reg = 0U;
 8005608:	2300      	movs	r3, #0
 800560a:	63fb      	str	r3, [r7, #60]	; 0x3c
  FlagStatus       pwrclkchanged = RESET;
 800560c:	2300      	movs	r3, #0
 800560e:	f887 3047 	strb.w	r3, [r7, #71]	; 0x47
    
  /* Check the parameters */
  assert_param(IS_RCC_PERIPHCLOCK(PeriphClkInit->PeriphClockSelection));
  
  /*---------------------------- RTC configuration -------------------------------*/
  if(((PeriphClkInit->PeriphClockSelection) & RCC_PERIPHCLK_RTC) == (RCC_PERIPHCLK_RTC))
 8005612:	687b      	ldr	r3, [r7, #4]
 8005614:	681b      	ldr	r3, [r3, #0]
 8005616:	f403 3380 	and.w	r3, r3, #65536	; 0x10000
 800561a:	2b00      	cmp	r3, #0
 800561c:	f000 80d4 	beq.w	80057c8 <HAL_RCCEx_PeriphCLKConfig+0x1cc>


    /* As soon as function is called to change RTC clock source, activation of the 
       power domain is done. */
    /* Requires to enable write access to Backup Domain of necessary */
    if(__HAL_RCC_PWR_IS_CLK_DISABLED())
 8005620:	4b4e      	ldr	r3, [pc, #312]	; (800575c <HAL_RCCEx_PeriphCLKConfig+0x160>)
 8005622:	69db      	ldr	r3, [r3, #28]
 8005624:	f003 5380 	and.w	r3, r3, #268435456	; 0x10000000
 8005628:	2b00      	cmp	r3, #0
 800562a:	d10e      	bne.n	800564a <HAL_RCCEx_PeriphCLKConfig+0x4e>
    {
      __HAL_RCC_PWR_CLK_ENABLE();
 800562c:	4b4b      	ldr	r3, [pc, #300]	; (800575c <HAL_RCCEx_PeriphCLKConfig+0x160>)
 800562e:	69db      	ldr	r3, [r3, #28]
 8005630:	4a4a      	ldr	r2, [pc, #296]	; (800575c <HAL_RCCEx_PeriphCLKConfig+0x160>)
 8005632:	f043 5380 	orr.w	r3, r3, #268435456	; 0x10000000
 8005636:	61d3      	str	r3, [r2, #28]
 8005638:	4b48      	ldr	r3, [pc, #288]	; (800575c <HAL_RCCEx_PeriphCLKConfig+0x160>)
 800563a:	69db      	ldr	r3, [r3, #28]
 800563c:	f003 5380 	and.w	r3, r3, #268435456	; 0x10000000
 8005640:	60bb      	str	r3, [r7, #8]
 8005642:	68bb      	ldr	r3, [r7, #8]
      pwrclkchanged = SET;
 8005644:	2301      	movs	r3, #1
 8005646:	f887 3047 	strb.w	r3, [r7, #71]	; 0x47
    }
    
    if(HAL_IS_BIT_CLR(PWR->CR, PWR_CR_DBP))
 800564a:	4b45      	ldr	r3, [pc, #276]	; (8005760 <HAL_RCCEx_PeriphCLKConfig+0x164>)
 800564c:	681b      	ldr	r3, [r3, #0]
 800564e:	f403 7380 	and.w	r3, r3, #256	; 0x100
 8005652:	2b00      	cmp	r3, #0
 8005654:	d118      	bne.n	8005688 <HAL_RCCEx_PeriphCLKConfig+0x8c>
    {
      /* Enable write access to Backup domain */
      SET_BIT(PWR->CR, PWR_CR_DBP);
 8005656:	4b42      	ldr	r3, [pc, #264]	; (8005760 <HAL_RCCEx_PeriphCLKConfig+0x164>)
 8005658:	681b      	ldr	r3, [r3, #0]
 800565a:	4a41      	ldr	r2, [pc, #260]	; (8005760 <HAL_RCCEx_PeriphCLKConfig+0x164>)
 800565c:	f443 7380 	orr.w	r3, r3, #256	; 0x100
 8005660:	6013      	str	r3, [r2, #0]
      
      /* Wait for Backup domain Write protection disable */
      tickstart = HAL_GetTick();
 8005662:	f7fe fa1f 	bl	8003aa4 <HAL_GetTick>
 8005666:	6438      	str	r0, [r7, #64]	; 0x40
      
      while(HAL_IS_BIT_CLR(PWR->CR, PWR_CR_DBP))
 8005668:	e008      	b.n	800567c <HAL_RCCEx_PeriphCLKConfig+0x80>
      {
          if((HAL_GetTick() - tickstart) > RCC_DBP_TIMEOUT_VALUE)
 800566a:	f7fe fa1b 	bl	8003aa4 <HAL_GetTick>
 800566e:	4602      	mov	r2, r0
 8005670:	6c3b      	ldr	r3, [r7, #64]	; 0x40
 8005672:	1ad3      	subs	r3, r2, r3
 8005674:	2b64      	cmp	r3, #100	; 0x64
 8005676:	d901      	bls.n	800567c <HAL_RCCEx_PeriphCLKConfig+0x80>
        {
          return HAL_TIMEOUT;
 8005678:	2303      	movs	r3, #3
 800567a:	e13c      	b.n	80058f6 <HAL_RCCEx_PeriphCLKConfig+0x2fa>
      while(HAL_IS_BIT_CLR(PWR->CR, PWR_CR_DBP))
 800567c:	4b38      	ldr	r3, [pc, #224]	; (8005760 <HAL_RCCEx_PeriphCLKConfig+0x164>)
 800567e:	681b      	ldr	r3, [r3, #0]
 8005680:	f403 7380 	and.w	r3, r3, #256	; 0x100
 8005684:	2b00      	cmp	r3, #0
 8005686:	d0f0      	beq.n	800566a <HAL_RCCEx_PeriphCLKConfig+0x6e>
        }
      }
    }
    
    /* Reset the Backup domain only if the RTC Clock source selection is modified from reset value */ 
    temp_reg = (RCC->BDCR & RCC_BDCR_RTCSEL);
 8005688:	4b34      	ldr	r3, [pc, #208]	; (800575c <HAL_RCCEx_PeriphCLKConfig+0x160>)
 800568a:	6a1b      	ldr	r3, [r3, #32]
 800568c:	f403 7340 	and.w	r3, r3, #768	; 0x300
 8005690:	63fb      	str	r3, [r7, #60]	; 0x3c
    if((temp_reg != 0x00000000U) && (temp_reg != (PeriphClkInit->RTCClockSelection & RCC_BDCR_RTCSEL)))
 8005692:	6bfb      	ldr	r3, [r7, #60]	; 0x3c
 8005694:	2b00      	cmp	r3, #0
 8005696:	f000 8084 	beq.w	80057a2 <HAL_RCCEx_PeriphCLKConfig+0x1a6>
 800569a:	687b      	ldr	r3, [r7, #4]
 800569c:	685b      	ldr	r3, [r3, #4]
 800569e:	f403 7340 	and.w	r3, r3, #768	; 0x300
 80056a2:	6bfa      	ldr	r2, [r7, #60]	; 0x3c
 80056a4:	429a      	cmp	r2, r3
 80056a6:	d07c      	beq.n	80057a2 <HAL_RCCEx_PeriphCLKConfig+0x1a6>
    {
      /* Store the content of BDCR register before the reset of Backup Domain */
      temp_reg = (RCC->BDCR & ~(RCC_BDCR_RTCSEL));
 80056a8:	4b2c      	ldr	r3, [pc, #176]	; (800575c <HAL_RCCEx_PeriphCLKConfig+0x160>)
 80056aa:	6a1b      	ldr	r3, [r3, #32]
 80056ac:	f423 7340 	bic.w	r3, r3, #768	; 0x300
 80056b0:	63fb      	str	r3, [r7, #60]	; 0x3c
 80056b2:	f44f 3380 	mov.w	r3, #65536	; 0x10000
 80056b6:	633b      	str	r3, [r7, #48]	; 0x30
   __ASM volatile ("rbit %0, %1" : "=r" (result) : "r" (value) );
 80056b8:	6b3b      	ldr	r3, [r7, #48]	; 0x30
 80056ba:	fa93 f3a3 	rbit	r3, r3
 80056be:	62fb      	str	r3, [r7, #44]	; 0x2c
  return result;
 80056c0:	6afb      	ldr	r3, [r7, #44]	; 0x2c
      /* RTC Clock selection can be changed only if the Backup Domain is reset */
      __HAL_RCC_BACKUPRESET_FORCE();
 80056c2:	fab3 f383 	clz	r3, r3
 80056c6:	b2db      	uxtb	r3, r3
 80056c8:	461a      	mov	r2, r3
 80056ca:	4b26      	ldr	r3, [pc, #152]	; (8005764 <HAL_RCCEx_PeriphCLKConfig+0x168>)
 80056cc:	4413      	add	r3, r2
 80056ce:	009b      	lsls	r3, r3, #2
 80056d0:	461a      	mov	r2, r3
 80056d2:	2301      	movs	r3, #1
 80056d4:	6013      	str	r3, [r2, #0]
 80056d6:	f44f 3380 	mov.w	r3, #65536	; 0x10000
 80056da:	63bb      	str	r3, [r7, #56]	; 0x38
   __ASM volatile ("rbit %0, %1" : "=r" (result) : "r" (value) );
 80056dc:	6bbb      	ldr	r3, [r7, #56]	; 0x38
 80056de:	fa93 f3a3 	rbit	r3, r3
 80056e2:	637b      	str	r3, [r7, #52]	; 0x34
  return result;
 80056e4:	6b7b      	ldr	r3, [r7, #52]	; 0x34
      __HAL_RCC_BACKUPRESET_RELEASE();
 80056e6:	fab3 f383 	clz	r3, r3
 80056ea:	b2db      	uxtb	r3, r3
 80056ec:	461a      	mov	r2, r3
 80056ee:	4b1d      	ldr	r3, [pc, #116]	; (8005764 <HAL_RCCEx_PeriphCLKConfig+0x168>)
 80056f0:	4413      	add	r3, r2
 80056f2:	009b      	lsls	r3, r3, #2
 80056f4:	461a      	mov	r2, r3
 80056f6:	2300      	movs	r3, #0
 80056f8:	6013      	str	r3, [r2, #0]
      /* Restore the Content of BDCR register */
      RCC->BDCR = temp_reg;
 80056fa:	4a18      	ldr	r2, [pc, #96]	; (800575c <HAL_RCCEx_PeriphCLKConfig+0x160>)
 80056fc:	6bfb      	ldr	r3, [r7, #60]	; 0x3c
 80056fe:	6213      	str	r3, [r2, #32]
    
      /* Wait for LSERDY if LSE was enabled */
      if (HAL_IS_BIT_SET(temp_reg, RCC_BDCR_LSEON))
 8005700:	6bfb      	ldr	r3, [r7, #60]	; 0x3c
 8005702:	f003 0301 	and.w	r3, r3, #1
 8005706:	2b00      	cmp	r3, #0
 8005708:	d04b      	beq.n	80057a2 <HAL_RCCEx_PeriphCLKConfig+0x1a6>
      {
        /* Get Start Tick */
        tickstart = HAL_GetTick();
 800570a:	f7fe f9cb 	bl	8003aa4 <HAL_GetTick>
 800570e:	6438      	str	r0, [r7, #64]	; 0x40
        
        /* Wait till LSE is ready */  
        while(__HAL_RCC_GET_FLAG(RCC_FLAG_LSERDY) == RESET)
 8005710:	e00a      	b.n	8005728 <HAL_RCCEx_PeriphCLKConfig+0x12c>
        {
            if((HAL_GetTick() - tickstart) > RCC_LSE_TIMEOUT_VALUE)
 8005712:	f7fe f9c7 	bl	8003aa4 <HAL_GetTick>
 8005716:	4602      	mov	r2, r0
 8005718:	6c3b      	ldr	r3, [r7, #64]	; 0x40
 800571a:	1ad3      	subs	r3, r2, r3
 800571c:	f241 3288 	movw	r2, #5000	; 0x1388
 8005720:	4293      	cmp	r3, r2
 8005722:	d901      	bls.n	8005728 <HAL_RCCEx_PeriphCLKConfig+0x12c>
          {
            return HAL_TIMEOUT;
 8005724:	2303      	movs	r3, #3
 8005726:	e0e6      	b.n	80058f6 <HAL_RCCEx_PeriphCLKConfig+0x2fa>
 8005728:	2302      	movs	r3, #2
 800572a:	62bb      	str	r3, [r7, #40]	; 0x28
   __ASM volatile ("rbit %0, %1" : "=r" (result) : "r" (value) );
 800572c:	6abb      	ldr	r3, [r7, #40]	; 0x28
 800572e:	fa93 f3a3 	rbit	r3, r3
 8005732:	627b      	str	r3, [r7, #36]	; 0x24
 8005734:	2302      	movs	r3, #2
 8005736:	623b      	str	r3, [r7, #32]
 8005738:	6a3b      	ldr	r3, [r7, #32]
 800573a:	fa93 f3a3 	rbit	r3, r3
 800573e:	61fb      	str	r3, [r7, #28]
  return result;
 8005740:	69fb      	ldr	r3, [r7, #28]
        while(__HAL_RCC_GET_FLAG(RCC_FLAG_LSERDY) == RESET)
 8005742:	fab3 f383 	clz	r3, r3
 8005746:	b2db      	uxtb	r3, r3
 8005748:	095b      	lsrs	r3, r3, #5
 800574a:	b2db      	uxtb	r3, r3
 800574c:	f043 0302 	orr.w	r3, r3, #2
 8005750:	b2db      	uxtb	r3, r3
 8005752:	2b02      	cmp	r3, #2
 8005754:	d108      	bne.n	8005768 <HAL_RCCEx_PeriphCLKConfig+0x16c>
 8005756:	4b01      	ldr	r3, [pc, #4]	; (800575c <HAL_RCCEx_PeriphCLKConfig+0x160>)
 8005758:	6a1b      	ldr	r3, [r3, #32]
 800575a:	e00d      	b.n	8005778 <HAL_RCCEx_PeriphCLKConfig+0x17c>
 800575c:	40021000 	.word	0x40021000
 8005760:	40007000 	.word	0x40007000
 8005764:	10908100 	.word	0x10908100
 8005768:	2302      	movs	r3, #2
 800576a:	61bb      	str	r3, [r7, #24]
   __ASM volatile ("rbit %0, %1" : "=r" (result) : "r" (value) );
 800576c:	69bb      	ldr	r3, [r7, #24]
 800576e:	fa93 f3a3 	rbit	r3, r3
 8005772:	617b      	str	r3, [r7, #20]
 8005774:	4b62      	ldr	r3, [pc, #392]	; (8005900 <HAL_RCCEx_PeriphCLKConfig+0x304>)
 8005776:	6a5b      	ldr	r3, [r3, #36]	; 0x24
 8005778:	2202      	movs	r2, #2
 800577a:	613a      	str	r2, [r7, #16]
 800577c:	693a      	ldr	r2, [r7, #16]
 800577e:	fa92 f2a2 	rbit	r2, r2
 8005782:	60fa      	str	r2, [r7, #12]
  return result;
 8005784:	68fa      	ldr	r2, [r7, #12]
 8005786:	fab2 f282 	clz	r2, r2
 800578a:	b2d2      	uxtb	r2, r2
 800578c:	f042 0240 	orr.w	r2, r2, #64	; 0x40
 8005790:	b2d2      	uxtb	r2, r2
 8005792:	f002 021f 	and.w	r2, r2, #31
 8005796:	2101      	movs	r1, #1
 8005798:	fa01 f202 	lsl.w	r2, r1, r2
 800579c:	4013      	ands	r3, r2
 800579e:	2b00      	cmp	r3, #0
 80057a0:	d0b7      	beq.n	8005712 <HAL_RCCEx_PeriphCLKConfig+0x116>
          }      
        }  
      }
    }
    __HAL_RCC_RTC_CONFIG(PeriphClkInit->RTCClockSelection); 
 80057a2:	4b57      	ldr	r3, [pc, #348]	; (8005900 <HAL_RCCEx_PeriphCLKConfig+0x304>)
 80057a4:	6a1b      	ldr	r3, [r3, #32]
 80057a6:	f423 7240 	bic.w	r2, r3, #768	; 0x300
 80057aa:	687b      	ldr	r3, [r7, #4]
 80057ac:	685b      	ldr	r3, [r3, #4]
 80057ae:	4954      	ldr	r1, [pc, #336]	; (8005900 <HAL_RCCEx_PeriphCLKConfig+0x304>)
 80057b0:	4313      	orrs	r3, r2
 80057b2:	620b      	str	r3, [r1, #32]

    /* Require to disable power clock if necessary */
    if(pwrclkchanged == SET)
 80057b4:	f897 3047 	ldrb.w	r3, [r7, #71]	; 0x47
 80057b8:	2b01      	cmp	r3, #1
 80057ba:	d105      	bne.n	80057c8 <HAL_RCCEx_PeriphCLKConfig+0x1cc>
    {
      __HAL_RCC_PWR_CLK_DISABLE();
 80057bc:	4b50      	ldr	r3, [pc, #320]	; (8005900 <HAL_RCCEx_PeriphCLKConfig+0x304>)
 80057be:	69db      	ldr	r3, [r3, #28]
 80057c0:	4a4f      	ldr	r2, [pc, #316]	; (8005900 <HAL_RCCEx_PeriphCLKConfig+0x304>)
 80057c2:	f023 5380 	bic.w	r3, r3, #268435456	; 0x10000000
 80057c6:	61d3      	str	r3, [r2, #28]
    }
  }

  /*------------------------------- USART1 Configuration ------------------------*/
  if(((PeriphClkInit->PeriphClockSelection) & RCC_PERIPHCLK_USART1) == RCC_PERIPHCLK_USART1)
 80057c8:	687b      	ldr	r3, [r7, #4]
 80057ca:	681b      	ldr	r3, [r3, #0]
 80057cc:	f003 0301 	and.w	r3, r3, #1
 80057d0:	2b00      	cmp	r3, #0
 80057d2:	d008      	beq.n	80057e6 <HAL_RCCEx_PeriphCLKConfig+0x1ea>
  {
    /* Check the parameters */
    assert_param(IS_RCC_USART1CLKSOURCE(PeriphClkInit->Usart1ClockSelection));
    
    /* Configure the USART1 clock source */
    __HAL_RCC_USART1_CONFIG(PeriphClkInit->Usart1ClockSelection);
 80057d4:	4b4a      	ldr	r3, [pc, #296]	; (8005900 <HAL_RCCEx_PeriphCLKConfig+0x304>)
 80057d6:	6b1b      	ldr	r3, [r3, #48]	; 0x30
 80057d8:	f023 0203 	bic.w	r2, r3, #3
 80057dc:	687b      	ldr	r3, [r7, #4]
 80057de:	689b      	ldr	r3, [r3, #8]
 80057e0:	4947      	ldr	r1, [pc, #284]	; (8005900 <HAL_RCCEx_PeriphCLKConfig+0x304>)
 80057e2:	4313      	orrs	r3, r2
 80057e4:	630b      	str	r3, [r1, #48]	; 0x30
    __HAL_RCC_USART3_CONFIG(PeriphClkInit->Usart3ClockSelection);
  }
#endif /* RCC_CFGR3_USART3SW */

  /*------------------------------ I2C1 Configuration ------------------------*/ 
  if(((PeriphClkInit->PeriphClockSelection) & RCC_PERIPHCLK_I2C1) == RCC_PERIPHCLK_I2C1)
 80057e6:	687b      	ldr	r3, [r7, #4]
 80057e8:	681b      	ldr	r3, [r3, #0]
 80057ea:	f003 0320 	and.w	r3, r3, #32
 80057ee:	2b00      	cmp	r3, #0
 80057f0:	d008      	beq.n	8005804 <HAL_RCCEx_PeriphCLKConfig+0x208>
  {
    /* Check the parameters */
    assert_param(IS_RCC_I2C1CLKSOURCE(PeriphClkInit->I2c1ClockSelection));
    
    /* Configure the I2C1 clock source */
    __HAL_RCC_I2C1_CONFIG(PeriphClkInit->I2c1ClockSelection);
 80057f2:	4b43      	ldr	r3, [pc, #268]	; (8005900 <HAL_RCCEx_PeriphCLKConfig+0x304>)
 80057f4:	6b1b      	ldr	r3, [r3, #48]	; 0x30
 80057f6:	f023 0210 	bic.w	r2, r3, #16
 80057fa:	687b      	ldr	r3, [r7, #4]
 80057fc:	68db      	ldr	r3, [r3, #12]
 80057fe:	4940      	ldr	r1, [pc, #256]	; (8005900 <HAL_RCCEx_PeriphCLKConfig+0x304>)
 8005800:	4313      	orrs	r3, r2
 8005802:	630b      	str	r3, [r1, #48]	; 0x30
 || defined(STM32F302xC) || defined(STM32F303xC) || defined(STM32F358xx)\
 || defined(STM32F301x8) || defined(STM32F302x8) || defined(STM32F318xx)\
 || defined(STM32F373xC) || defined(STM32F378xx)

  /*------------------------------ I2C2 Configuration ------------------------*/ 
  if(((PeriphClkInit->PeriphClockSelection) & RCC_PERIPHCLK_I2C2) == RCC_PERIPHCLK_I2C2)
 8005804:	687b      	ldr	r3, [r7, #4]
 8005806:	681b      	ldr	r3, [r3, #0]
 8005808:	f003 0340 	and.w	r3, r3, #64	; 0x40
 800580c:	2b00      	cmp	r3, #0
 800580e:	d008      	beq.n	8005822 <HAL_RCCEx_PeriphCLKConfig+0x226>
  {
    /* Check the parameters */
    assert_param(IS_RCC_I2C2CLKSOURCE(PeriphClkInit->I2c2ClockSelection));
    
    /* Configure the I2C2 clock source */
    __HAL_RCC_I2C2_CONFIG(PeriphClkInit->I2c2ClockSelection);
 8005810:	4b3b      	ldr	r3, [pc, #236]	; (8005900 <HAL_RCCEx_PeriphCLKConfig+0x304>)
 8005812:	6b1b      	ldr	r3, [r3, #48]	; 0x30
 8005814:	f023 0220 	bic.w	r2, r3, #32
 8005818:	687b      	ldr	r3, [r7, #4]
 800581a:	691b      	ldr	r3, [r3, #16]
 800581c:	4938      	ldr	r1, [pc, #224]	; (8005900 <HAL_RCCEx_PeriphCLKConfig+0x304>)
 800581e:	4313      	orrs	r3, r2
 8005820:	630b      	str	r3, [r1, #48]	; 0x30
  
#if defined(STM32F302xE) || defined(STM32F303xE) || defined(STM32F398xx)\
 || defined(STM32F301x8) || defined(STM32F302x8) || defined(STM32F318xx)

  /*------------------------------ I2C3 Configuration ------------------------*/ 
  if(((PeriphClkInit->PeriphClockSelection) & RCC_PERIPHCLK_I2C3) == RCC_PERIPHCLK_I2C3)
 8005822:	687b      	ldr	r3, [r7, #4]
 8005824:	681b      	ldr	r3, [r3, #0]
 8005826:	f403 4300 	and.w	r3, r3, #32768	; 0x8000
 800582a:	2b00      	cmp	r3, #0
 800582c:	d008      	beq.n	8005840 <HAL_RCCEx_PeriphCLKConfig+0x244>
  {
    /* Check the parameters */
    assert_param(IS_RCC_I2C3CLKSOURCE(PeriphClkInit->I2c3ClockSelection));
    
    /* Configure the I2C3 clock source */
    __HAL_RCC_I2C3_CONFIG(PeriphClkInit->I2c3ClockSelection);
 800582e:	4b34      	ldr	r3, [pc, #208]	; (8005900 <HAL_RCCEx_PeriphCLKConfig+0x304>)
 8005830:	6b1b      	ldr	r3, [r3, #48]	; 0x30
 8005832:	f023 0240 	bic.w	r2, r3, #64	; 0x40
 8005836:	687b      	ldr	r3, [r7, #4]
 8005838:	695b      	ldr	r3, [r3, #20]
 800583a:	4931      	ldr	r1, [pc, #196]	; (8005900 <HAL_RCCEx_PeriphCLKConfig+0x304>)
 800583c:	4313      	orrs	r3, r2
 800583e:	630b      	str	r3, [r1, #48]	; 0x30

#if defined(STM32F302xE) || defined(STM32F303xE) || defined(STM32F398xx)\
 || defined(STM32F302xC) || defined(STM32F303xC) || defined(STM32F358xx)\
 || defined(STM32F301x8) || defined(STM32F302x8) || defined(STM32F318xx)
  /*------------------------------ I2S Configuration ------------------------*/ 
  if(((PeriphClkInit->PeriphClockSelection) & RCC_PERIPHCLK_I2S) == RCC_PERIPHCLK_I2S)
 8005840:	687b      	ldr	r3, [r7, #4]
 8005842:	681b      	ldr	r3, [r3, #0]
 8005844:	f403 7300 	and.w	r3, r3, #512	; 0x200
 8005848:	2b00      	cmp	r3, #0
 800584a:	d008      	beq.n	800585e <HAL_RCCEx_PeriphCLKConfig+0x262>
  {
    /* Check the parameters */
    assert_param(IS_RCC_I2SCLKSOURCE(PeriphClkInit->I2sClockSelection));
    
    /* Configure the I2S clock source */
    __HAL_RCC_I2S_CONFIG(PeriphClkInit->I2sClockSelection);
 800584c:	4b2c      	ldr	r3, [pc, #176]	; (8005900 <HAL_RCCEx_PeriphCLKConfig+0x304>)
 800584e:	685b      	ldr	r3, [r3, #4]
 8005850:	f423 0200 	bic.w	r2, r3, #8388608	; 0x800000
 8005854:	687b      	ldr	r3, [r7, #4]
 8005856:	69db      	ldr	r3, [r3, #28]
 8005858:	4929      	ldr	r1, [pc, #164]	; (8005900 <HAL_RCCEx_PeriphCLKConfig+0x304>)
 800585a:	4313      	orrs	r3, r2
 800585c:	604b      	str	r3, [r1, #4]
       /* STM32F301x8 || STM32F302x8 || STM32F318xx    */
  
#if defined(STM32F301x8) || defined(STM32F302x8) || defined(STM32F318xx)
      
  /*------------------------------ ADC1 clock Configuration ------------------*/ 
  if(((PeriphClkInit->PeriphClockSelection) & RCC_PERIPHCLK_ADC1) == RCC_PERIPHCLK_ADC1)
 800585e:	687b      	ldr	r3, [r7, #4]
 8005860:	681b      	ldr	r3, [r3, #0]
 8005862:	f003 0380 	and.w	r3, r3, #128	; 0x80
 8005866:	2b00      	cmp	r3, #0
 8005868:	d008      	beq.n	800587c <HAL_RCCEx_PeriphCLKConfig+0x280>
  {
    /* Check the parameters */
    assert_param(IS_RCC_ADC1PLLCLK_DIV(PeriphClkInit->Adc1ClockSelection));
    
    /* Configure the ADC1 clock source */
    __HAL_RCC_ADC1_CONFIG(PeriphClkInit->Adc1ClockSelection);
 800586a:	4b25      	ldr	r3, [pc, #148]	; (8005900 <HAL_RCCEx_PeriphCLKConfig+0x304>)
 800586c:	6adb      	ldr	r3, [r3, #44]	; 0x2c
 800586e:	f423 72f8 	bic.w	r2, r3, #496	; 0x1f0
 8005872:	687b      	ldr	r3, [r7, #4]
 8005874:	699b      	ldr	r3, [r3, #24]
 8005876:	4922      	ldr	r1, [pc, #136]	; (8005900 <HAL_RCCEx_PeriphCLKConfig+0x304>)
 8005878:	4313      	orrs	r3, r2
 800587a:	62cb      	str	r3, [r1, #44]	; 0x2c
 || defined(STM32F302xC) || defined(STM32F303xC) || defined(STM32F358xx)\
 || defined(STM32F303x8) || defined(STM32F334x8) || defined(STM32F328xx)\
 || defined(STM32F301x8) || defined(STM32F302x8) || defined(STM32F318xx)

  /*------------------------------ TIM1 clock Configuration ----------------*/ 
  if(((PeriphClkInit->PeriphClockSelection) & RCC_PERIPHCLK_TIM1) == RCC_PERIPHCLK_TIM1)
 800587c:	687b      	ldr	r3, [r7, #4]
 800587e:	681b      	ldr	r3, [r3, #0]
 8005880:	f403 5380 	and.w	r3, r3, #4096	; 0x1000
 8005884:	2b00      	cmp	r3, #0
 8005886:	d008      	beq.n	800589a <HAL_RCCEx_PeriphCLKConfig+0x29e>
  {
    /* Check the parameters */
    assert_param(IS_RCC_TIM1CLKSOURCE(PeriphClkInit->Tim1ClockSelection));
    
    /* Configure the TIM1 clock source */
    __HAL_RCC_TIM1_CONFIG(PeriphClkInit->Tim1ClockSelection);
 8005888:	4b1d      	ldr	r3, [pc, #116]	; (8005900 <HAL_RCCEx_PeriphCLKConfig+0x304>)
 800588a:	6b1b      	ldr	r3, [r3, #48]	; 0x30
 800588c:	f423 7280 	bic.w	r2, r3, #256	; 0x100
 8005890:	687b      	ldr	r3, [r7, #4]
 8005892:	6a1b      	ldr	r3, [r3, #32]
 8005894:	491a      	ldr	r1, [pc, #104]	; (8005900 <HAL_RCCEx_PeriphCLKConfig+0x304>)
 8005896:	4313      	orrs	r3, r2
 8005898:	630b      	str	r3, [r1, #48]	; 0x30
       /* STM32F303xC || STM32F358xx    */

#if defined(STM32F301x8) || defined(STM32F302x8) || defined(STM32F318xx)

  /*------------------------------ TIM15 clock Configuration ----------------*/ 
  if(((PeriphClkInit->PeriphClockSelection) & RCC_PERIPHCLK_TIM15) == RCC_PERIPHCLK_TIM15)
 800589a:	687b      	ldr	r3, [r7, #4]
 800589c:	681b      	ldr	r3, [r3, #0]
 800589e:	f403 2380 	and.w	r3, r3, #262144	; 0x40000
 80058a2:	2b00      	cmp	r3, #0
 80058a4:	d008      	beq.n	80058b8 <HAL_RCCEx_PeriphCLKConfig+0x2bc>
  {
    /* Check the parameters */
    assert_param(IS_RCC_TIM15CLKSOURCE(PeriphClkInit->Tim15ClockSelection));
    
    /* Configure the TIM15 clock source */
    __HAL_RCC_TIM15_CONFIG(PeriphClkInit->Tim15ClockSelection);
 80058a6:	4b16      	ldr	r3, [pc, #88]	; (8005900 <HAL_RCCEx_PeriphCLKConfig+0x304>)
 80058a8:	6b1b      	ldr	r3, [r3, #48]	; 0x30
 80058aa:	f423 6280 	bic.w	r2, r3, #1024	; 0x400
 80058ae:	687b      	ldr	r3, [r7, #4]
 80058b0:	6a5b      	ldr	r3, [r3, #36]	; 0x24
 80058b2:	4913      	ldr	r1, [pc, #76]	; (8005900 <HAL_RCCEx_PeriphCLKConfig+0x304>)
 80058b4:	4313      	orrs	r3, r2
 80058b6:	630b      	str	r3, [r1, #48]	; 0x30
  }

  /*------------------------------ TIM16 clock Configuration ----------------*/ 
  if(((PeriphClkInit->PeriphClockSelection) & RCC_PERIPHCLK_TIM16) == RCC_PERIPHCLK_TIM16)
 80058b8:	687b      	ldr	r3, [r7, #4]
 80058ba:	681b      	ldr	r3, [r3, #0]
 80058bc:	f403 2300 	and.w	r3, r3, #524288	; 0x80000
 80058c0:	2b00      	cmp	r3, #0
 80058c2:	d008      	beq.n	80058d6 <HAL_RCCEx_PeriphCLKConfig+0x2da>
  {
    /* Check the parameters */
    assert_param(IS_RCC_TIM16CLKSOURCE(PeriphClkInit->Tim16ClockSelection));
    
    /* Configure the TIM16 clock source */
    __HAL_RCC_TIM16_CONFIG(PeriphClkInit->Tim16ClockSelection);
 80058c4:	4b0e      	ldr	r3, [pc, #56]	; (8005900 <HAL_RCCEx_PeriphCLKConfig+0x304>)
 80058c6:	6b1b      	ldr	r3, [r3, #48]	; 0x30
 80058c8:	f423 6200 	bic.w	r2, r3, #2048	; 0x800
 80058cc:	687b      	ldr	r3, [r7, #4]
 80058ce:	6a9b      	ldr	r3, [r3, #40]	; 0x28
 80058d0:	490b      	ldr	r1, [pc, #44]	; (8005900 <HAL_RCCEx_PeriphCLKConfig+0x304>)
 80058d2:	4313      	orrs	r3, r2
 80058d4:	630b      	str	r3, [r1, #48]	; 0x30
  }

  /*------------------------------ TIM17 clock Configuration ----------------*/ 
  if(((PeriphClkInit->PeriphClockSelection) & RCC_PERIPHCLK_TIM17) == RCC_PERIPHCLK_TIM17)
 80058d6:	687b      	ldr	r3, [r7, #4]
 80058d8:	681b      	ldr	r3, [r3, #0]
 80058da:	f403 1380 	and.w	r3, r3, #1048576	; 0x100000
 80058de:	2b00      	cmp	r3, #0
 80058e0:	d008      	beq.n	80058f4 <HAL_RCCEx_PeriphCLKConfig+0x2f8>
  {
    /* Check the parameters */
    assert_param(IS_RCC_TIM17CLKSOURCE(PeriphClkInit->Tim17ClockSelection));
    
    /* Configure the TIM17 clock source */
    __HAL_RCC_TIM17_CONFIG(PeriphClkInit->Tim17ClockSelection);
 80058e2:	4b07      	ldr	r3, [pc, #28]	; (8005900 <HAL_RCCEx_PeriphCLKConfig+0x304>)
 80058e4:	6b1b      	ldr	r3, [r3, #48]	; 0x30
 80058e6:	f423 5200 	bic.w	r2, r3, #8192	; 0x2000
 80058ea:	687b      	ldr	r3, [r7, #4]
 80058ec:	6adb      	ldr	r3, [r3, #44]	; 0x2c
 80058ee:	4904      	ldr	r1, [pc, #16]	; (8005900 <HAL_RCCEx_PeriphCLKConfig+0x304>)
 80058f0:	4313      	orrs	r3, r2
 80058f2:	630b      	str	r3, [r1, #48]	; 0x30
    __HAL_RCC_TIM20_CONFIG(PeriphClkInit->Tim20ClockSelection);
  }
#endif /* STM32F303xE || STM32F398xx */  

  
  return HAL_OK;
 80058f4:	2300      	movs	r3, #0
}
 80058f6:	4618      	mov	r0, r3
 80058f8:	3748      	adds	r7, #72	; 0x48
 80058fa:	46bd      	mov	sp, r7
 80058fc:	bd80      	pop	{r7, pc}
 80058fe:	bf00      	nop
 8005900:	40021000 	.word	0x40021000

08005904 <HAL_RTC_Init>:
  *         in the RTC_InitTypeDef structure and initialize the associated handle.
  * @param  hrtc RTC handle
  * @retval HAL status
  */
HAL_StatusTypeDef HAL_RTC_Init(RTC_HandleTypeDef *hrtc)
{
 8005904:	b580      	push	{r7, lr}
 8005906:	b082      	sub	sp, #8
 8005908:	af00      	add	r7, sp, #0
 800590a:	6078      	str	r0, [r7, #4]
  /* Check the RTC peripheral state */
  if (hrtc == NULL)
 800590c:	687b      	ldr	r3, [r7, #4]
 800590e:	2b00      	cmp	r3, #0
 8005910:	d101      	bne.n	8005916 <HAL_RTC_Init+0x12>
  {
    return HAL_ERROR;
 8005912:	2301      	movs	r3, #1
 8005914:	e083      	b.n	8005a1e <HAL_RTC_Init+0x11a>
    {
      hrtc->MspDeInitCallback = HAL_RTC_MspDeInit;
    }
  }
#else
  if (hrtc->State == HAL_RTC_STATE_RESET)
 8005916:	687b      	ldr	r3, [r7, #4]
 8005918:	7f5b      	ldrb	r3, [r3, #29]
 800591a:	b2db      	uxtb	r3, r3
 800591c:	2b00      	cmp	r3, #0
 800591e:	d105      	bne.n	800592c <HAL_RTC_Init+0x28>
  {
    /* Allocate lock resource and initialize it */
    hrtc->Lock = HAL_UNLOCKED;
 8005920:	687b      	ldr	r3, [r7, #4]
 8005922:	2200      	movs	r2, #0
 8005924:	771a      	strb	r2, [r3, #28]

    /* Initialize RTC MSP */
    HAL_RTC_MspInit(hrtc);
 8005926:	6878      	ldr	r0, [r7, #4]
 8005928:	f7fc fe42 	bl	80025b0 <HAL_RTC_MspInit>
  }
#endif /* (USE_HAL_RTC_REGISTER_CALLBACKS) */

  /* Set RTC state */
  hrtc->State = HAL_RTC_STATE_BUSY;
 800592c:	687b      	ldr	r3, [r7, #4]
 800592e:	2202      	movs	r2, #2
 8005930:	775a      	strb	r2, [r3, #29]

  /* Disable the write protection for RTC registers */
  __HAL_RTC_WRITEPROTECTION_DISABLE(hrtc);
 8005932:	687b      	ldr	r3, [r7, #4]
 8005934:	681b      	ldr	r3, [r3, #0]
 8005936:	22ca      	movs	r2, #202	; 0xca
 8005938:	625a      	str	r2, [r3, #36]	; 0x24
 800593a:	687b      	ldr	r3, [r7, #4]
 800593c:	681b      	ldr	r3, [r3, #0]
 800593e:	2253      	movs	r2, #83	; 0x53
 8005940:	625a      	str	r2, [r3, #36]	; 0x24

  /* Set Initialization mode */
  if (RTC_EnterInitMode(hrtc) != HAL_OK)
 8005942:	6878      	ldr	r0, [r7, #4]
 8005944:	f000 faa8 	bl	8005e98 <RTC_EnterInitMode>
 8005948:	4603      	mov	r3, r0
 800594a:	2b00      	cmp	r3, #0
 800594c:	d008      	beq.n	8005960 <HAL_RTC_Init+0x5c>
  {
    /* Enable the write protection for RTC registers */
    __HAL_RTC_WRITEPROTECTION_ENABLE(hrtc);
 800594e:	687b      	ldr	r3, [r7, #4]
 8005950:	681b      	ldr	r3, [r3, #0]
 8005952:	22ff      	movs	r2, #255	; 0xff
 8005954:	625a      	str	r2, [r3, #36]	; 0x24

    /* Set RTC state */
    hrtc->State = HAL_RTC_STATE_ERROR;
 8005956:	687b      	ldr	r3, [r7, #4]
 8005958:	2204      	movs	r2, #4
 800595a:	775a      	strb	r2, [r3, #29]

    return HAL_ERROR;
 800595c:	2301      	movs	r3, #1
 800595e:	e05e      	b.n	8005a1e <HAL_RTC_Init+0x11a>
  }
  else
  {
    /* Clear RTC_CR FMT, OSEL and POL Bits */
    hrtc->Instance->CR &= ((uint32_t)~(RTC_CR_FMT | RTC_CR_OSEL | RTC_CR_POL));
 8005960:	687b      	ldr	r3, [r7, #4]
 8005962:	681b      	ldr	r3, [r3, #0]
 8005964:	689b      	ldr	r3, [r3, #8]
 8005966:	687a      	ldr	r2, [r7, #4]
 8005968:	6812      	ldr	r2, [r2, #0]
 800596a:	f423 03e0 	bic.w	r3, r3, #7340032	; 0x700000
 800596e:	f023 0340 	bic.w	r3, r3, #64	; 0x40
 8005972:	6093      	str	r3, [r2, #8]
    /* Set RTC_CR register */
    hrtc->Instance->CR |= (uint32_t)(hrtc->Init.HourFormat | hrtc->Init.OutPut | hrtc->Init.OutPutPolarity);
 8005974:	687b      	ldr	r3, [r7, #4]
 8005976:	681b      	ldr	r3, [r3, #0]
 8005978:	6899      	ldr	r1, [r3, #8]
 800597a:	687b      	ldr	r3, [r7, #4]
 800597c:	685a      	ldr	r2, [r3, #4]
 800597e:	687b      	ldr	r3, [r7, #4]
 8005980:	691b      	ldr	r3, [r3, #16]
 8005982:	431a      	orrs	r2, r3
 8005984:	687b      	ldr	r3, [r7, #4]
 8005986:	695b      	ldr	r3, [r3, #20]
 8005988:	431a      	orrs	r2, r3
 800598a:	687b      	ldr	r3, [r7, #4]
 800598c:	681b      	ldr	r3, [r3, #0]
 800598e:	430a      	orrs	r2, r1
 8005990:	609a      	str	r2, [r3, #8]

    /* Configure the RTC PRER */
    hrtc->Instance->PRER = (uint32_t)(hrtc->Init.SynchPrediv);
 8005992:	687b      	ldr	r3, [r7, #4]
 8005994:	681b      	ldr	r3, [r3, #0]
 8005996:	687a      	ldr	r2, [r7, #4]
 8005998:	68d2      	ldr	r2, [r2, #12]
 800599a:	611a      	str	r2, [r3, #16]
    hrtc->Instance->PRER |= (uint32_t)(hrtc->Init.AsynchPrediv << 16U);
 800599c:	687b      	ldr	r3, [r7, #4]
 800599e:	681b      	ldr	r3, [r3, #0]
 80059a0:	6919      	ldr	r1, [r3, #16]
 80059a2:	687b      	ldr	r3, [r7, #4]
 80059a4:	689b      	ldr	r3, [r3, #8]
 80059a6:	041a      	lsls	r2, r3, #16
 80059a8:	687b      	ldr	r3, [r7, #4]
 80059aa:	681b      	ldr	r3, [r3, #0]
 80059ac:	430a      	orrs	r2, r1
 80059ae:	611a      	str	r2, [r3, #16]

    /* Exit Initialization mode */
    hrtc->Instance->ISR &= (uint32_t)~RTC_ISR_INIT;
 80059b0:	687b      	ldr	r3, [r7, #4]
 80059b2:	681b      	ldr	r3, [r3, #0]
 80059b4:	68da      	ldr	r2, [r3, #12]
 80059b6:	687b      	ldr	r3, [r7, #4]
 80059b8:	681b      	ldr	r3, [r3, #0]
 80059ba:	f022 0280 	bic.w	r2, r2, #128	; 0x80
 80059be:	60da      	str	r2, [r3, #12]

    /* If  CR_BYPSHAD bit = 0, wait for synchro else this check is not needed */
    if ((hrtc->Instance->CR & RTC_CR_BYPSHAD) == RESET)
 80059c0:	687b      	ldr	r3, [r7, #4]
 80059c2:	681b      	ldr	r3, [r3, #0]
 80059c4:	689b      	ldr	r3, [r3, #8]
 80059c6:	f003 0320 	and.w	r3, r3, #32
 80059ca:	2b00      	cmp	r3, #0
 80059cc:	d10e      	bne.n	80059ec <HAL_RTC_Init+0xe8>
    {
      if (HAL_RTC_WaitForSynchro(hrtc) != HAL_OK)
 80059ce:	6878      	ldr	r0, [r7, #4]
 80059d0:	f000 fa3a 	bl	8005e48 <HAL_RTC_WaitForSynchro>
 80059d4:	4603      	mov	r3, r0
 80059d6:	2b00      	cmp	r3, #0
 80059d8:	d008      	beq.n	80059ec <HAL_RTC_Init+0xe8>
      {
        /* Enable the write protection for RTC registers */
        __HAL_RTC_WRITEPROTECTION_ENABLE(hrtc);
 80059da:	687b      	ldr	r3, [r7, #4]
 80059dc:	681b      	ldr	r3, [r3, #0]
 80059de:	22ff      	movs	r2, #255	; 0xff
 80059e0:	625a      	str	r2, [r3, #36]	; 0x24

        hrtc->State = HAL_RTC_STATE_ERROR;
 80059e2:	687b      	ldr	r3, [r7, #4]
 80059e4:	2204      	movs	r2, #4
 80059e6:	775a      	strb	r2, [r3, #29]

        return HAL_ERROR;
 80059e8:	2301      	movs	r3, #1
 80059ea:	e018      	b.n	8005a1e <HAL_RTC_Init+0x11a>
      }
    }

    hrtc->Instance->TAFCR &= (uint32_t)~RTC_TAFCR_ALARMOUTTYPE;
 80059ec:	687b      	ldr	r3, [r7, #4]
 80059ee:	681b      	ldr	r3, [r3, #0]
 80059f0:	6c1a      	ldr	r2, [r3, #64]	; 0x40
 80059f2:	687b      	ldr	r3, [r7, #4]
 80059f4:	681b      	ldr	r3, [r3, #0]
 80059f6:	f422 2280 	bic.w	r2, r2, #262144	; 0x40000
 80059fa:	641a      	str	r2, [r3, #64]	; 0x40
    hrtc->Instance->TAFCR |= (uint32_t)(hrtc->Init.OutPutType);
 80059fc:	687b      	ldr	r3, [r7, #4]
 80059fe:	681b      	ldr	r3, [r3, #0]
 8005a00:	6c19      	ldr	r1, [r3, #64]	; 0x40
 8005a02:	687b      	ldr	r3, [r7, #4]
 8005a04:	699a      	ldr	r2, [r3, #24]
 8005a06:	687b      	ldr	r3, [r7, #4]
 8005a08:	681b      	ldr	r3, [r3, #0]
 8005a0a:	430a      	orrs	r2, r1
 8005a0c:	641a      	str	r2, [r3, #64]	; 0x40

    /* Enable the write protection for RTC registers */
    __HAL_RTC_WRITEPROTECTION_ENABLE(hrtc);
 8005a0e:	687b      	ldr	r3, [r7, #4]
 8005a10:	681b      	ldr	r3, [r3, #0]
 8005a12:	22ff      	movs	r2, #255	; 0xff
 8005a14:	625a      	str	r2, [r3, #36]	; 0x24

    /* Set RTC state */
    hrtc->State = HAL_RTC_STATE_READY;
 8005a16:	687b      	ldr	r3, [r7, #4]
 8005a18:	2201      	movs	r2, #1
 8005a1a:	775a      	strb	r2, [r3, #29]

    return HAL_OK;
 8005a1c:	2300      	movs	r3, #0
  }
}
 8005a1e:	4618      	mov	r0, r3
 8005a20:	3708      	adds	r7, #8
 8005a22:	46bd      	mov	sp, r7
 8005a24:	bd80      	pop	{r7, pc}

08005a26 <HAL_RTC_SetTime>:
  *            @arg RTC_FORMAT_BIN: Binary data format
  *            @arg RTC_FORMAT_BCD: BCD data format
  * @retval HAL status
  */
HAL_StatusTypeDef HAL_RTC_SetTime(RTC_HandleTypeDef *hrtc, RTC_TimeTypeDef *sTime, uint32_t Format)
{
 8005a26:	b590      	push	{r4, r7, lr}
 8005a28:	b087      	sub	sp, #28
 8005a2a:	af00      	add	r7, sp, #0
 8005a2c:	60f8      	str	r0, [r7, #12]
 8005a2e:	60b9      	str	r1, [r7, #8]
 8005a30:	607a      	str	r2, [r7, #4]
  uint32_t tmpreg = 0U;
 8005a32:	2300      	movs	r3, #0
 8005a34:	617b      	str	r3, [r7, #20]
  assert_param(IS_RTC_FORMAT(Format));
  assert_param(IS_RTC_DAYLIGHT_SAVING(sTime->DayLightSaving));
  assert_param(IS_RTC_STORE_OPERATION(sTime->StoreOperation));

  /* Process Locked */
  __HAL_LOCK(hrtc);
 8005a36:	68fb      	ldr	r3, [r7, #12]
 8005a38:	7f1b      	ldrb	r3, [r3, #28]
 8005a3a:	2b01      	cmp	r3, #1
 8005a3c:	d101      	bne.n	8005a42 <HAL_RTC_SetTime+0x1c>
 8005a3e:	2302      	movs	r3, #2
 8005a40:	e0aa      	b.n	8005b98 <HAL_RTC_SetTime+0x172>
 8005a42:	68fb      	ldr	r3, [r7, #12]
 8005a44:	2201      	movs	r2, #1
 8005a46:	771a      	strb	r2, [r3, #28]

  hrtc->State = HAL_RTC_STATE_BUSY;
 8005a48:	68fb      	ldr	r3, [r7, #12]
 8005a4a:	2202      	movs	r2, #2
 8005a4c:	775a      	strb	r2, [r3, #29]

  if (Format == RTC_FORMAT_BIN)
 8005a4e:	687b      	ldr	r3, [r7, #4]
 8005a50:	2b00      	cmp	r3, #0
 8005a52:	d126      	bne.n	8005aa2 <HAL_RTC_SetTime+0x7c>
  {
    if ((hrtc->Instance->CR & RTC_CR_FMT) != (uint32_t)RESET)
 8005a54:	68fb      	ldr	r3, [r7, #12]
 8005a56:	681b      	ldr	r3, [r3, #0]
 8005a58:	689b      	ldr	r3, [r3, #8]
 8005a5a:	f003 0340 	and.w	r3, r3, #64	; 0x40
 8005a5e:	2b00      	cmp	r3, #0
 8005a60:	d102      	bne.n	8005a68 <HAL_RTC_SetTime+0x42>
      assert_param(IS_RTC_HOUR12(sTime->Hours));
      assert_param(IS_RTC_HOURFORMAT12(sTime->TimeFormat));
    }
    else
    {
      sTime->TimeFormat = 0x00U;
 8005a62:	68bb      	ldr	r3, [r7, #8]
 8005a64:	2200      	movs	r2, #0
 8005a66:	70da      	strb	r2, [r3, #3]
      assert_param(IS_RTC_HOUR24(sTime->Hours));
    }
    assert_param(IS_RTC_MINUTES(sTime->Minutes));
    assert_param(IS_RTC_SECONDS(sTime->Seconds));

    tmpreg = (uint32_t)(((uint32_t)RTC_ByteToBcd2(sTime->Hours) << 16U) | \
 8005a68:	68bb      	ldr	r3, [r7, #8]
 8005a6a:	781b      	ldrb	r3, [r3, #0]
 8005a6c:	4618      	mov	r0, r3
 8005a6e:	f000 fa3f 	bl	8005ef0 <RTC_ByteToBcd2>
 8005a72:	4603      	mov	r3, r0
 8005a74:	041c      	lsls	r4, r3, #16
                        ((uint32_t)RTC_ByteToBcd2(sTime->Minutes) << 8U) | \
 8005a76:	68bb      	ldr	r3, [r7, #8]
 8005a78:	785b      	ldrb	r3, [r3, #1]
 8005a7a:	4618      	mov	r0, r3
 8005a7c:	f000 fa38 	bl	8005ef0 <RTC_ByteToBcd2>
 8005a80:	4603      	mov	r3, r0
 8005a82:	021b      	lsls	r3, r3, #8
    tmpreg = (uint32_t)(((uint32_t)RTC_ByteToBcd2(sTime->Hours) << 16U) | \
 8005a84:	431c      	orrs	r4, r3
                        ((uint32_t)RTC_ByteToBcd2(sTime->Seconds)) | \
 8005a86:	68bb      	ldr	r3, [r7, #8]
 8005a88:	789b      	ldrb	r3, [r3, #2]
 8005a8a:	4618      	mov	r0, r3
 8005a8c:	f000 fa30 	bl	8005ef0 <RTC_ByteToBcd2>
 8005a90:	4603      	mov	r3, r0
                        ((uint32_t)RTC_ByteToBcd2(sTime->Minutes) << 8U) | \
 8005a92:	ea44 0203 	orr.w	r2, r4, r3
                        (((uint32_t)sTime->TimeFormat) << 16U));
 8005a96:	68bb      	ldr	r3, [r7, #8]
 8005a98:	78db      	ldrb	r3, [r3, #3]
 8005a9a:	041b      	lsls	r3, r3, #16
    tmpreg = (uint32_t)(((uint32_t)RTC_ByteToBcd2(sTime->Hours) << 16U) | \
 8005a9c:	4313      	orrs	r3, r2
 8005a9e:	617b      	str	r3, [r7, #20]
 8005aa0:	e018      	b.n	8005ad4 <HAL_RTC_SetTime+0xae>
  }
  else
  {
    if ((hrtc->Instance->CR & RTC_CR_FMT) != (uint32_t)RESET)
 8005aa2:	68fb      	ldr	r3, [r7, #12]
 8005aa4:	681b      	ldr	r3, [r3, #0]
 8005aa6:	689b      	ldr	r3, [r3, #8]
 8005aa8:	f003 0340 	and.w	r3, r3, #64	; 0x40
 8005aac:	2b00      	cmp	r3, #0
 8005aae:	d102      	bne.n	8005ab6 <HAL_RTC_SetTime+0x90>
      assert_param(IS_RTC_HOUR12(RTC_Bcd2ToByte(sTime->Hours)));
      assert_param(IS_RTC_HOURFORMAT12(sTime->TimeFormat));
    }
    else
    {
      sTime->TimeFormat = 0x00U;
 8005ab0:	68bb      	ldr	r3, [r7, #8]
 8005ab2:	2200      	movs	r2, #0
 8005ab4:	70da      	strb	r2, [r3, #3]
      assert_param(IS_RTC_HOUR24(RTC_Bcd2ToByte(sTime->Hours)));
    }
    assert_param(IS_RTC_MINUTES(RTC_Bcd2ToByte(sTime->Minutes)));
    assert_param(IS_RTC_SECONDS(RTC_Bcd2ToByte(sTime->Seconds)));
    tmpreg = (((uint32_t)(sTime->Hours) << 16U) | \
 8005ab6:	68bb      	ldr	r3, [r7, #8]
 8005ab8:	781b      	ldrb	r3, [r3, #0]
 8005aba:	041a      	lsls	r2, r3, #16
              ((uint32_t)(sTime->Minutes) << 8U) | \
 8005abc:	68bb      	ldr	r3, [r7, #8]
 8005abe:	785b      	ldrb	r3, [r3, #1]
 8005ac0:	021b      	lsls	r3, r3, #8
    tmpreg = (((uint32_t)(sTime->Hours) << 16U) | \
 8005ac2:	4313      	orrs	r3, r2
              ((uint32_t)sTime->Seconds) | \
 8005ac4:	68ba      	ldr	r2, [r7, #8]
 8005ac6:	7892      	ldrb	r2, [r2, #2]
              ((uint32_t)(sTime->Minutes) << 8U) | \
 8005ac8:	431a      	orrs	r2, r3
              ((uint32_t)(sTime->TimeFormat) << 16U));
 8005aca:	68bb      	ldr	r3, [r7, #8]
 8005acc:	78db      	ldrb	r3, [r3, #3]
 8005ace:	041b      	lsls	r3, r3, #16
    tmpreg = (((uint32_t)(sTime->Hours) << 16U) | \
 8005ad0:	4313      	orrs	r3, r2
 8005ad2:	617b      	str	r3, [r7, #20]
  }

  /* Disable the write protection for RTC registers */
  __HAL_RTC_WRITEPROTECTION_DISABLE(hrtc);
 8005ad4:	68fb      	ldr	r3, [r7, #12]
 8005ad6:	681b      	ldr	r3, [r3, #0]
 8005ad8:	22ca      	movs	r2, #202	; 0xca
 8005ada:	625a      	str	r2, [r3, #36]	; 0x24
 8005adc:	68fb      	ldr	r3, [r7, #12]
 8005ade:	681b      	ldr	r3, [r3, #0]
 8005ae0:	2253      	movs	r2, #83	; 0x53
 8005ae2:	625a      	str	r2, [r3, #36]	; 0x24

  /* Set Initialization mode */
  if (RTC_EnterInitMode(hrtc) != HAL_OK)
 8005ae4:	68f8      	ldr	r0, [r7, #12]
 8005ae6:	f000 f9d7 	bl	8005e98 <RTC_EnterInitMode>
 8005aea:	4603      	mov	r3, r0
 8005aec:	2b00      	cmp	r3, #0
 8005aee:	d00b      	beq.n	8005b08 <HAL_RTC_SetTime+0xe2>
  {
    /* Enable the write protection for RTC registers */
    __HAL_RTC_WRITEPROTECTION_ENABLE(hrtc);
 8005af0:	68fb      	ldr	r3, [r7, #12]
 8005af2:	681b      	ldr	r3, [r3, #0]
 8005af4:	22ff      	movs	r2, #255	; 0xff
 8005af6:	625a      	str	r2, [r3, #36]	; 0x24

    /* Set RTC state */
    hrtc->State = HAL_RTC_STATE_ERROR;
 8005af8:	68fb      	ldr	r3, [r7, #12]
 8005afa:	2204      	movs	r2, #4
 8005afc:	775a      	strb	r2, [r3, #29]

    /* Process Unlocked */
    __HAL_UNLOCK(hrtc);
 8005afe:	68fb      	ldr	r3, [r7, #12]
 8005b00:	2200      	movs	r2, #0
 8005b02:	771a      	strb	r2, [r3, #28]

    return HAL_ERROR;
 8005b04:	2301      	movs	r3, #1
 8005b06:	e047      	b.n	8005b98 <HAL_RTC_SetTime+0x172>
  }
  else
  {
    /* Set the RTC_TR register */
    hrtc->Instance->TR = (uint32_t)(tmpreg & RTC_TR_RESERVED_MASK);
 8005b08:	68fb      	ldr	r3, [r7, #12]
 8005b0a:	681a      	ldr	r2, [r3, #0]
 8005b0c:	697b      	ldr	r3, [r7, #20]
 8005b0e:	f003 337f 	and.w	r3, r3, #2139062143	; 0x7f7f7f7f
 8005b12:	f023 43fe 	bic.w	r3, r3, #2130706432	; 0x7f000000
 8005b16:	6013      	str	r3, [r2, #0]

    /* Clear the bits to be configured (Deprecated. Use HAL_RTC_DST_xxx functions instead) */
    hrtc->Instance->CR &= ((uint32_t)~RTC_CR_BCK);
 8005b18:	68fb      	ldr	r3, [r7, #12]
 8005b1a:	681b      	ldr	r3, [r3, #0]
 8005b1c:	689a      	ldr	r2, [r3, #8]
 8005b1e:	68fb      	ldr	r3, [r7, #12]
 8005b20:	681b      	ldr	r3, [r3, #0]
 8005b22:	f422 2280 	bic.w	r2, r2, #262144	; 0x40000
 8005b26:	609a      	str	r2, [r3, #8]

    /* Configure the RTC_CR register (Deprecated. Use HAL_RTC_DST_xxx functions instead) */
    hrtc->Instance->CR |= (uint32_t)(sTime->DayLightSaving | sTime->StoreOperation);
 8005b28:	68fb      	ldr	r3, [r7, #12]
 8005b2a:	681b      	ldr	r3, [r3, #0]
 8005b2c:	6899      	ldr	r1, [r3, #8]
 8005b2e:	68bb      	ldr	r3, [r7, #8]
 8005b30:	68da      	ldr	r2, [r3, #12]
 8005b32:	68bb      	ldr	r3, [r7, #8]
 8005b34:	691b      	ldr	r3, [r3, #16]
 8005b36:	431a      	orrs	r2, r3
 8005b38:	68fb      	ldr	r3, [r7, #12]
 8005b3a:	681b      	ldr	r3, [r3, #0]
 8005b3c:	430a      	orrs	r2, r1
 8005b3e:	609a      	str	r2, [r3, #8]

    /* Exit Initialization mode */
    hrtc->Instance->ISR &= ((uint32_t)~RTC_ISR_INIT);
 8005b40:	68fb      	ldr	r3, [r7, #12]
 8005b42:	681b      	ldr	r3, [r3, #0]
 8005b44:	68da      	ldr	r2, [r3, #12]
 8005b46:	68fb      	ldr	r3, [r7, #12]
 8005b48:	681b      	ldr	r3, [r3, #0]
 8005b4a:	f022 0280 	bic.w	r2, r2, #128	; 0x80
 8005b4e:	60da      	str	r2, [r3, #12]

    /* If  CR_BYPSHAD bit = 0U, wait for synchro else this check is not needed */
    if ((hrtc->Instance->CR & RTC_CR_BYPSHAD) == RESET)
 8005b50:	68fb      	ldr	r3, [r7, #12]
 8005b52:	681b      	ldr	r3, [r3, #0]
 8005b54:	689b      	ldr	r3, [r3, #8]
 8005b56:	f003 0320 	and.w	r3, r3, #32
 8005b5a:	2b00      	cmp	r3, #0
 8005b5c:	d111      	bne.n	8005b82 <HAL_RTC_SetTime+0x15c>
    {
      if (HAL_RTC_WaitForSynchro(hrtc) != HAL_OK)
 8005b5e:	68f8      	ldr	r0, [r7, #12]
 8005b60:	f000 f972 	bl	8005e48 <HAL_RTC_WaitForSynchro>
 8005b64:	4603      	mov	r3, r0
 8005b66:	2b00      	cmp	r3, #0
 8005b68:	d00b      	beq.n	8005b82 <HAL_RTC_SetTime+0x15c>
      {
        /* Enable the write protection for RTC registers */
        __HAL_RTC_WRITEPROTECTION_ENABLE(hrtc);
 8005b6a:	68fb      	ldr	r3, [r7, #12]
 8005b6c:	681b      	ldr	r3, [r3, #0]
 8005b6e:	22ff      	movs	r2, #255	; 0xff
 8005b70:	625a      	str	r2, [r3, #36]	; 0x24

        hrtc->State = HAL_RTC_STATE_ERROR;
 8005b72:	68fb      	ldr	r3, [r7, #12]
 8005b74:	2204      	movs	r2, #4
 8005b76:	775a      	strb	r2, [r3, #29]

        /* Process Unlocked */
        __HAL_UNLOCK(hrtc);
 8005b78:	68fb      	ldr	r3, [r7, #12]
 8005b7a:	2200      	movs	r2, #0
 8005b7c:	771a      	strb	r2, [r3, #28]

        return HAL_ERROR;
 8005b7e:	2301      	movs	r3, #1
 8005b80:	e00a      	b.n	8005b98 <HAL_RTC_SetTime+0x172>
      }
    }

    /* Enable the write protection for RTC registers */
    __HAL_RTC_WRITEPROTECTION_ENABLE(hrtc);
 8005b82:	68fb      	ldr	r3, [r7, #12]
 8005b84:	681b      	ldr	r3, [r3, #0]
 8005b86:	22ff      	movs	r2, #255	; 0xff
 8005b88:	625a      	str	r2, [r3, #36]	; 0x24

    hrtc->State = HAL_RTC_STATE_READY;
 8005b8a:	68fb      	ldr	r3, [r7, #12]
 8005b8c:	2201      	movs	r2, #1
 8005b8e:	775a      	strb	r2, [r3, #29]

    __HAL_UNLOCK(hrtc);
 8005b90:	68fb      	ldr	r3, [r7, #12]
 8005b92:	2200      	movs	r2, #0
 8005b94:	771a      	strb	r2, [r3, #28]

    return HAL_OK;
 8005b96:	2300      	movs	r3, #0
  }
}
 8005b98:	4618      	mov	r0, r3
 8005b9a:	371c      	adds	r7, #28
 8005b9c:	46bd      	mov	sp, r7
 8005b9e:	bd90      	pop	{r4, r7, pc}

08005ba0 <HAL_RTC_GetTime>:
  * @note   Call HAL_RTC_GetDate() after HAL_RTC_GetTime() to unlock the values
  *         in the higher-order calendar shadow registers.
  * @retval HAL status
  */
HAL_StatusTypeDef HAL_RTC_GetTime(RTC_HandleTypeDef *hrtc, RTC_TimeTypeDef *sTime, uint32_t Format)
{
 8005ba0:	b580      	push	{r7, lr}
 8005ba2:	b086      	sub	sp, #24
 8005ba4:	af00      	add	r7, sp, #0
 8005ba6:	60f8      	str	r0, [r7, #12]
 8005ba8:	60b9      	str	r1, [r7, #8]
 8005baa:	607a      	str	r2, [r7, #4]
  uint32_t tmpreg = 0U;
 8005bac:	2300      	movs	r3, #0
 8005bae:	617b      	str	r3, [r7, #20]

  /* Check the parameters */
  assert_param(IS_RTC_FORMAT(Format));

  /* Get subseconds structure field from the corresponding register*/
  sTime->SubSeconds = (uint32_t)(hrtc->Instance->SSR);
 8005bb0:	68fb      	ldr	r3, [r7, #12]
 8005bb2:	681b      	ldr	r3, [r3, #0]
 8005bb4:	6a9a      	ldr	r2, [r3, #40]	; 0x28
 8005bb6:	68bb      	ldr	r3, [r7, #8]
 8005bb8:	605a      	str	r2, [r3, #4]

  /* Get SecondFraction structure field from the corresponding register field*/
  sTime->SecondFraction = (uint32_t)(hrtc->Instance->PRER & RTC_PRER_PREDIV_S);
 8005bba:	68fb      	ldr	r3, [r7, #12]
 8005bbc:	681b      	ldr	r3, [r3, #0]
 8005bbe:	691b      	ldr	r3, [r3, #16]
 8005bc0:	f3c3 020e 	ubfx	r2, r3, #0, #15
 8005bc4:	68bb      	ldr	r3, [r7, #8]
 8005bc6:	609a      	str	r2, [r3, #8]

  /* Get the TR register */
  tmpreg = (uint32_t)(hrtc->Instance->TR & RTC_TR_RESERVED_MASK);
 8005bc8:	68fb      	ldr	r3, [r7, #12]
 8005bca:	681b      	ldr	r3, [r3, #0]
 8005bcc:	681b      	ldr	r3, [r3, #0]
 8005bce:	f003 337f 	and.w	r3, r3, #2139062143	; 0x7f7f7f7f
 8005bd2:	f023 43fe 	bic.w	r3, r3, #2130706432	; 0x7f000000
 8005bd6:	617b      	str	r3, [r7, #20]

  /* Fill the structure fields with the read parameters */
  sTime->Hours = (uint8_t)((tmpreg & (RTC_TR_HT | RTC_TR_HU)) >> 16U);
 8005bd8:	697b      	ldr	r3, [r7, #20]
 8005bda:	0c1b      	lsrs	r3, r3, #16
 8005bdc:	b2db      	uxtb	r3, r3
 8005bde:	f003 033f 	and.w	r3, r3, #63	; 0x3f
 8005be2:	b2da      	uxtb	r2, r3
 8005be4:	68bb      	ldr	r3, [r7, #8]
 8005be6:	701a      	strb	r2, [r3, #0]
  sTime->Minutes = (uint8_t)((tmpreg & (RTC_TR_MNT | RTC_TR_MNU)) >> 8U);
 8005be8:	697b      	ldr	r3, [r7, #20]
 8005bea:	0a1b      	lsrs	r3, r3, #8
 8005bec:	b2db      	uxtb	r3, r3
 8005bee:	f003 037f 	and.w	r3, r3, #127	; 0x7f
 8005bf2:	b2da      	uxtb	r2, r3
 8005bf4:	68bb      	ldr	r3, [r7, #8]
 8005bf6:	705a      	strb	r2, [r3, #1]
  sTime->Seconds = (uint8_t)(tmpreg & (RTC_TR_ST | RTC_TR_SU));
 8005bf8:	697b      	ldr	r3, [r7, #20]
 8005bfa:	b2db      	uxtb	r3, r3
 8005bfc:	f003 037f 	and.w	r3, r3, #127	; 0x7f
 8005c00:	b2da      	uxtb	r2, r3
 8005c02:	68bb      	ldr	r3, [r7, #8]
 8005c04:	709a      	strb	r2, [r3, #2]
  sTime->TimeFormat = (uint8_t)((tmpreg & (RTC_TR_PM)) >> 16U);
 8005c06:	697b      	ldr	r3, [r7, #20]
 8005c08:	0c1b      	lsrs	r3, r3, #16
 8005c0a:	b2db      	uxtb	r3, r3
 8005c0c:	f003 0340 	and.w	r3, r3, #64	; 0x40
 8005c10:	b2da      	uxtb	r2, r3
 8005c12:	68bb      	ldr	r3, [r7, #8]
 8005c14:	70da      	strb	r2, [r3, #3]

  /* Check the input parameters format */
  if (Format == RTC_FORMAT_BIN)
 8005c16:	687b      	ldr	r3, [r7, #4]
 8005c18:	2b00      	cmp	r3, #0
 8005c1a:	d11a      	bne.n	8005c52 <HAL_RTC_GetTime+0xb2>
  {
    /* Convert the time structure parameters to Binary format */
    sTime->Hours = (uint8_t)RTC_Bcd2ToByte(sTime->Hours);
 8005c1c:	68bb      	ldr	r3, [r7, #8]
 8005c1e:	781b      	ldrb	r3, [r3, #0]
 8005c20:	4618      	mov	r0, r3
 8005c22:	f000 f983 	bl	8005f2c <RTC_Bcd2ToByte>
 8005c26:	4603      	mov	r3, r0
 8005c28:	461a      	mov	r2, r3
 8005c2a:	68bb      	ldr	r3, [r7, #8]
 8005c2c:	701a      	strb	r2, [r3, #0]
    sTime->Minutes = (uint8_t)RTC_Bcd2ToByte(sTime->Minutes);
 8005c2e:	68bb      	ldr	r3, [r7, #8]
 8005c30:	785b      	ldrb	r3, [r3, #1]
 8005c32:	4618      	mov	r0, r3
 8005c34:	f000 f97a 	bl	8005f2c <RTC_Bcd2ToByte>
 8005c38:	4603      	mov	r3, r0
 8005c3a:	461a      	mov	r2, r3
 8005c3c:	68bb      	ldr	r3, [r7, #8]
 8005c3e:	705a      	strb	r2, [r3, #1]
    sTime->Seconds = (uint8_t)RTC_Bcd2ToByte(sTime->Seconds);
 8005c40:	68bb      	ldr	r3, [r7, #8]
 8005c42:	789b      	ldrb	r3, [r3, #2]
 8005c44:	4618      	mov	r0, r3
 8005c46:	f000 f971 	bl	8005f2c <RTC_Bcd2ToByte>
 8005c4a:	4603      	mov	r3, r0
 8005c4c:	461a      	mov	r2, r3
 8005c4e:	68bb      	ldr	r3, [r7, #8]
 8005c50:	709a      	strb	r2, [r3, #2]
  }

  return HAL_OK;
 8005c52:	2300      	movs	r3, #0
}
 8005c54:	4618      	mov	r0, r3
 8005c56:	3718      	adds	r7, #24
 8005c58:	46bd      	mov	sp, r7
 8005c5a:	bd80      	pop	{r7, pc}

08005c5c <HAL_RTC_SetDate>:
  *            @arg RTC_FORMAT_BIN: Binary data format
  *            @arg RTC_FORMAT_BCD: BCD data format
  * @retval HAL status
  */
HAL_StatusTypeDef HAL_RTC_SetDate(RTC_HandleTypeDef *hrtc, RTC_DateTypeDef *sDate, uint32_t Format)
{
 8005c5c:	b590      	push	{r4, r7, lr}
 8005c5e:	b087      	sub	sp, #28
 8005c60:	af00      	add	r7, sp, #0
 8005c62:	60f8      	str	r0, [r7, #12]
 8005c64:	60b9      	str	r1, [r7, #8]
 8005c66:	607a      	str	r2, [r7, #4]
  uint32_t datetmpreg = 0U;
 8005c68:	2300      	movs	r3, #0
 8005c6a:	617b      	str	r3, [r7, #20]

  /* Check the parameters */
  assert_param(IS_RTC_FORMAT(Format));

  /* Process Locked */
  __HAL_LOCK(hrtc);
 8005c6c:	68fb      	ldr	r3, [r7, #12]
 8005c6e:	7f1b      	ldrb	r3, [r3, #28]
 8005c70:	2b01      	cmp	r3, #1
 8005c72:	d101      	bne.n	8005c78 <HAL_RTC_SetDate+0x1c>
 8005c74:	2302      	movs	r3, #2
 8005c76:	e094      	b.n	8005da2 <HAL_RTC_SetDate+0x146>
 8005c78:	68fb      	ldr	r3, [r7, #12]
 8005c7a:	2201      	movs	r2, #1
 8005c7c:	771a      	strb	r2, [r3, #28]

  hrtc->State = HAL_RTC_STATE_BUSY;
 8005c7e:	68fb      	ldr	r3, [r7, #12]
 8005c80:	2202      	movs	r2, #2
 8005c82:	775a      	strb	r2, [r3, #29]

  if ((Format == RTC_FORMAT_BIN) && ((sDate->Month & 0x10U) == 0x10U))
 8005c84:	687b      	ldr	r3, [r7, #4]
 8005c86:	2b00      	cmp	r3, #0
 8005c88:	d10e      	bne.n	8005ca8 <HAL_RTC_SetDate+0x4c>
 8005c8a:	68bb      	ldr	r3, [r7, #8]
 8005c8c:	785b      	ldrb	r3, [r3, #1]
 8005c8e:	f003 0310 	and.w	r3, r3, #16
 8005c92:	2b00      	cmp	r3, #0
 8005c94:	d008      	beq.n	8005ca8 <HAL_RTC_SetDate+0x4c>
  {
    sDate->Month = (uint8_t)((sDate->Month & (uint8_t)~(0x10U)) + (uint8_t)0x0AU);
 8005c96:	68bb      	ldr	r3, [r7, #8]
 8005c98:	785b      	ldrb	r3, [r3, #1]
 8005c9a:	f023 0310 	bic.w	r3, r3, #16
 8005c9e:	b2db      	uxtb	r3, r3
 8005ca0:	330a      	adds	r3, #10
 8005ca2:	b2da      	uxtb	r2, r3
 8005ca4:	68bb      	ldr	r3, [r7, #8]
 8005ca6:	705a      	strb	r2, [r3, #1]
  }

  assert_param(IS_RTC_WEEKDAY(sDate->WeekDay));

  if (Format == RTC_FORMAT_BIN)
 8005ca8:	687b      	ldr	r3, [r7, #4]
 8005caa:	2b00      	cmp	r3, #0
 8005cac:	d11c      	bne.n	8005ce8 <HAL_RTC_SetDate+0x8c>
  {
    assert_param(IS_RTC_YEAR(sDate->Year));
    assert_param(IS_RTC_MONTH(sDate->Month));
    assert_param(IS_RTC_DATE(sDate->Date));

    datetmpreg = (((uint32_t)RTC_ByteToBcd2(sDate->Year) << 16U) | \
 8005cae:	68bb      	ldr	r3, [r7, #8]
 8005cb0:	78db      	ldrb	r3, [r3, #3]
 8005cb2:	4618      	mov	r0, r3
 8005cb4:	f000 f91c 	bl	8005ef0 <RTC_ByteToBcd2>
 8005cb8:	4603      	mov	r3, r0
 8005cba:	041c      	lsls	r4, r3, #16
                  ((uint32_t)RTC_ByteToBcd2(sDate->Month) << 8U) | \
 8005cbc:	68bb      	ldr	r3, [r7, #8]
 8005cbe:	785b      	ldrb	r3, [r3, #1]
 8005cc0:	4618      	mov	r0, r3
 8005cc2:	f000 f915 	bl	8005ef0 <RTC_ByteToBcd2>
 8005cc6:	4603      	mov	r3, r0
 8005cc8:	021b      	lsls	r3, r3, #8
    datetmpreg = (((uint32_t)RTC_ByteToBcd2(sDate->Year) << 16U) | \
 8005cca:	431c      	orrs	r4, r3
                  ((uint32_t)RTC_ByteToBcd2(sDate->Date)) | \
 8005ccc:	68bb      	ldr	r3, [r7, #8]
 8005cce:	789b      	ldrb	r3, [r3, #2]
 8005cd0:	4618      	mov	r0, r3
 8005cd2:	f000 f90d 	bl	8005ef0 <RTC_ByteToBcd2>
 8005cd6:	4603      	mov	r3, r0
                  ((uint32_t)RTC_ByteToBcd2(sDate->Month) << 8U) | \
 8005cd8:	ea44 0203 	orr.w	r2, r4, r3
                  ((uint32_t)sDate->WeekDay << 13U));
 8005cdc:	68bb      	ldr	r3, [r7, #8]
 8005cde:	781b      	ldrb	r3, [r3, #0]
 8005ce0:	035b      	lsls	r3, r3, #13
    datetmpreg = (((uint32_t)RTC_ByteToBcd2(sDate->Year) << 16U) | \
 8005ce2:	4313      	orrs	r3, r2
 8005ce4:	617b      	str	r3, [r7, #20]
 8005ce6:	e00e      	b.n	8005d06 <HAL_RTC_SetDate+0xaa>
  {
    assert_param(IS_RTC_YEAR(RTC_Bcd2ToByte(sDate->Year)));
    assert_param(IS_RTC_MONTH(RTC_Bcd2ToByte(sDate->Month)));
    assert_param(IS_RTC_DATE(RTC_Bcd2ToByte(sDate->Date)));

    datetmpreg = ((((uint32_t)sDate->Year) << 16U) | \
 8005ce8:	68bb      	ldr	r3, [r7, #8]
 8005cea:	78db      	ldrb	r3, [r3, #3]
 8005cec:	041a      	lsls	r2, r3, #16
                  (((uint32_t)sDate->Month) << 8U) | \
 8005cee:	68bb      	ldr	r3, [r7, #8]
 8005cf0:	785b      	ldrb	r3, [r3, #1]
 8005cf2:	021b      	lsls	r3, r3, #8
    datetmpreg = ((((uint32_t)sDate->Year) << 16U) | \
 8005cf4:	4313      	orrs	r3, r2
                  ((uint32_t)sDate->Date) | \
 8005cf6:	68ba      	ldr	r2, [r7, #8]
 8005cf8:	7892      	ldrb	r2, [r2, #2]
                  (((uint32_t)sDate->Month) << 8U) | \
 8005cfa:	431a      	orrs	r2, r3
                  (((uint32_t)sDate->WeekDay) << 13U));
 8005cfc:	68bb      	ldr	r3, [r7, #8]
 8005cfe:	781b      	ldrb	r3, [r3, #0]
 8005d00:	035b      	lsls	r3, r3, #13
    datetmpreg = ((((uint32_t)sDate->Year) << 16U) | \
 8005d02:	4313      	orrs	r3, r2
 8005d04:	617b      	str	r3, [r7, #20]
  }

  /* Disable the write protection for RTC registers */
  __HAL_RTC_WRITEPROTECTION_DISABLE(hrtc);
 8005d06:	68fb      	ldr	r3, [r7, #12]
 8005d08:	681b      	ldr	r3, [r3, #0]
 8005d0a:	22ca      	movs	r2, #202	; 0xca
 8005d0c:	625a      	str	r2, [r3, #36]	; 0x24
 8005d0e:	68fb      	ldr	r3, [r7, #12]
 8005d10:	681b      	ldr	r3, [r3, #0]
 8005d12:	2253      	movs	r2, #83	; 0x53
 8005d14:	625a      	str	r2, [r3, #36]	; 0x24

  /* Set Initialization mode */
  if (RTC_EnterInitMode(hrtc) != HAL_OK)
 8005d16:	68f8      	ldr	r0, [r7, #12]
 8005d18:	f000 f8be 	bl	8005e98 <RTC_EnterInitMode>
 8005d1c:	4603      	mov	r3, r0
 8005d1e:	2b00      	cmp	r3, #0
 8005d20:	d00b      	beq.n	8005d3a <HAL_RTC_SetDate+0xde>
  {
    /* Enable the write protection for RTC registers */
    __HAL_RTC_WRITEPROTECTION_ENABLE(hrtc);
 8005d22:	68fb      	ldr	r3, [r7, #12]
 8005d24:	681b      	ldr	r3, [r3, #0]
 8005d26:	22ff      	movs	r2, #255	; 0xff
 8005d28:	625a      	str	r2, [r3, #36]	; 0x24

    /* Set RTC state*/
    hrtc->State = HAL_RTC_STATE_ERROR;
 8005d2a:	68fb      	ldr	r3, [r7, #12]
 8005d2c:	2204      	movs	r2, #4
 8005d2e:	775a      	strb	r2, [r3, #29]

    /* Process Unlocked */
    __HAL_UNLOCK(hrtc);
 8005d30:	68fb      	ldr	r3, [r7, #12]
 8005d32:	2200      	movs	r2, #0
 8005d34:	771a      	strb	r2, [r3, #28]

    return HAL_ERROR;
 8005d36:	2301      	movs	r3, #1
 8005d38:	e033      	b.n	8005da2 <HAL_RTC_SetDate+0x146>
  }
  else
  {
    /* Set the RTC_DR register */
    hrtc->Instance->DR = (uint32_t)(datetmpreg & RTC_DR_RESERVED_MASK);
 8005d3a:	68fb      	ldr	r3, [r7, #12]
 8005d3c:	681a      	ldr	r2, [r3, #0]
 8005d3e:	697b      	ldr	r3, [r7, #20]
 8005d40:	f023 437f 	bic.w	r3, r3, #4278190080	; 0xff000000
 8005d44:	f023 03c0 	bic.w	r3, r3, #192	; 0xc0
 8005d48:	6053      	str	r3, [r2, #4]

    /* Exit Initialization mode */
    hrtc->Instance->ISR &= ((uint32_t)~RTC_ISR_INIT);
 8005d4a:	68fb      	ldr	r3, [r7, #12]
 8005d4c:	681b      	ldr	r3, [r3, #0]
 8005d4e:	68da      	ldr	r2, [r3, #12]
 8005d50:	68fb      	ldr	r3, [r7, #12]
 8005d52:	681b      	ldr	r3, [r3, #0]
 8005d54:	f022 0280 	bic.w	r2, r2, #128	; 0x80
 8005d58:	60da      	str	r2, [r3, #12]

    /* If  CR_BYPSHAD bit = 0U, wait for synchro else this check is not needed */
    if ((hrtc->Instance->CR & RTC_CR_BYPSHAD) == RESET)
 8005d5a:	68fb      	ldr	r3, [r7, #12]
 8005d5c:	681b      	ldr	r3, [r3, #0]
 8005d5e:	689b      	ldr	r3, [r3, #8]
 8005d60:	f003 0320 	and.w	r3, r3, #32
 8005d64:	2b00      	cmp	r3, #0
 8005d66:	d111      	bne.n	8005d8c <HAL_RTC_SetDate+0x130>
    {
      if (HAL_RTC_WaitForSynchro(hrtc) != HAL_OK)
 8005d68:	68f8      	ldr	r0, [r7, #12]
 8005d6a:	f000 f86d 	bl	8005e48 <HAL_RTC_WaitForSynchro>
 8005d6e:	4603      	mov	r3, r0
 8005d70:	2b00      	cmp	r3, #0
 8005d72:	d00b      	beq.n	8005d8c <HAL_RTC_SetDate+0x130>
      {
        /* Enable the write protection for RTC registers */
        __HAL_RTC_WRITEPROTECTION_ENABLE(hrtc);
 8005d74:	68fb      	ldr	r3, [r7, #12]
 8005d76:	681b      	ldr	r3, [r3, #0]
 8005d78:	22ff      	movs	r2, #255	; 0xff
 8005d7a:	625a      	str	r2, [r3, #36]	; 0x24

        hrtc->State = HAL_RTC_STATE_ERROR;
 8005d7c:	68fb      	ldr	r3, [r7, #12]
 8005d7e:	2204      	movs	r2, #4
 8005d80:	775a      	strb	r2, [r3, #29]

        /* Process Unlocked */
        __HAL_UNLOCK(hrtc);
 8005d82:	68fb      	ldr	r3, [r7, #12]
 8005d84:	2200      	movs	r2, #0
 8005d86:	771a      	strb	r2, [r3, #28]

        return HAL_ERROR;
 8005d88:	2301      	movs	r3, #1
 8005d8a:	e00a      	b.n	8005da2 <HAL_RTC_SetDate+0x146>
      }
    }

    /* Enable the write protection for RTC registers */
    __HAL_RTC_WRITEPROTECTION_ENABLE(hrtc);
 8005d8c:	68fb      	ldr	r3, [r7, #12]
 8005d8e:	681b      	ldr	r3, [r3, #0]
 8005d90:	22ff      	movs	r2, #255	; 0xff
 8005d92:	625a      	str	r2, [r3, #36]	; 0x24

    hrtc->State = HAL_RTC_STATE_READY ;
 8005d94:	68fb      	ldr	r3, [r7, #12]
 8005d96:	2201      	movs	r2, #1
 8005d98:	775a      	strb	r2, [r3, #29]

    /* Process Unlocked */
    __HAL_UNLOCK(hrtc);
 8005d9a:	68fb      	ldr	r3, [r7, #12]
 8005d9c:	2200      	movs	r2, #0
 8005d9e:	771a      	strb	r2, [r3, #28]

    return HAL_OK;
 8005da0:	2300      	movs	r3, #0
  }
}
 8005da2:	4618      	mov	r0, r3
 8005da4:	371c      	adds	r7, #28
 8005da6:	46bd      	mov	sp, r7
 8005da8:	bd90      	pop	{r4, r7, pc}

08005daa <HAL_RTC_GetDate>:
  *            @arg RTC_FORMAT_BIN :  Binary data format
  *            @arg RTC_FORMAT_BCD :  BCD data format
  * @retval HAL status
  */
HAL_StatusTypeDef HAL_RTC_GetDate(RTC_HandleTypeDef *hrtc, RTC_DateTypeDef *sDate, uint32_t Format)
{
 8005daa:	b580      	push	{r7, lr}
 8005dac:	b086      	sub	sp, #24
 8005dae:	af00      	add	r7, sp, #0
 8005db0:	60f8      	str	r0, [r7, #12]
 8005db2:	60b9      	str	r1, [r7, #8]
 8005db4:	607a      	str	r2, [r7, #4]
  uint32_t datetmpreg = 0U;
 8005db6:	2300      	movs	r3, #0
 8005db8:	617b      	str	r3, [r7, #20]

  /* Check the parameters */
  assert_param(IS_RTC_FORMAT(Format));

  /* Get the DR register */
  datetmpreg = (uint32_t)(hrtc->Instance->DR & RTC_DR_RESERVED_MASK);
 8005dba:	68fb      	ldr	r3, [r7, #12]
 8005dbc:	681b      	ldr	r3, [r3, #0]
 8005dbe:	685b      	ldr	r3, [r3, #4]
 8005dc0:	f023 437f 	bic.w	r3, r3, #4278190080	; 0xff000000
 8005dc4:	f023 03c0 	bic.w	r3, r3, #192	; 0xc0
 8005dc8:	617b      	str	r3, [r7, #20]

  /* Fill the structure fields with the read parameters */
  sDate->Year = (uint8_t)((datetmpreg & (RTC_DR_YT | RTC_DR_YU)) >> 16U);
 8005dca:	697b      	ldr	r3, [r7, #20]
 8005dcc:	0c1b      	lsrs	r3, r3, #16
 8005dce:	b2da      	uxtb	r2, r3
 8005dd0:	68bb      	ldr	r3, [r7, #8]
 8005dd2:	70da      	strb	r2, [r3, #3]
  sDate->Month = (uint8_t)((datetmpreg & (RTC_DR_MT | RTC_DR_MU)) >> 8U);
 8005dd4:	697b      	ldr	r3, [r7, #20]
 8005dd6:	0a1b      	lsrs	r3, r3, #8
 8005dd8:	b2db      	uxtb	r3, r3
 8005dda:	f003 031f 	and.w	r3, r3, #31
 8005dde:	b2da      	uxtb	r2, r3
 8005de0:	68bb      	ldr	r3, [r7, #8]
 8005de2:	705a      	strb	r2, [r3, #1]
  sDate->Date = (uint8_t)(datetmpreg & (RTC_DR_DT | RTC_DR_DU));
 8005de4:	697b      	ldr	r3, [r7, #20]
 8005de6:	b2db      	uxtb	r3, r3
 8005de8:	f003 033f 	and.w	r3, r3, #63	; 0x3f
 8005dec:	b2da      	uxtb	r2, r3
 8005dee:	68bb      	ldr	r3, [r7, #8]
 8005df0:	709a      	strb	r2, [r3, #2]
  sDate->WeekDay = (uint8_t)((datetmpreg & (RTC_DR_WDU)) >> 13U);
 8005df2:	697b      	ldr	r3, [r7, #20]
 8005df4:	0b5b      	lsrs	r3, r3, #13
 8005df6:	b2db      	uxtb	r3, r3
 8005df8:	f003 0307 	and.w	r3, r3, #7
 8005dfc:	b2da      	uxtb	r2, r3
 8005dfe:	68bb      	ldr	r3, [r7, #8]
 8005e00:	701a      	strb	r2, [r3, #0]

  /* Check the input parameters format */
  if (Format == RTC_FORMAT_BIN)
 8005e02:	687b      	ldr	r3, [r7, #4]
 8005e04:	2b00      	cmp	r3, #0
 8005e06:	d11a      	bne.n	8005e3e <HAL_RTC_GetDate+0x94>
  {
    /* Convert the date structure parameters to Binary format */
    sDate->Year = (uint8_t)RTC_Bcd2ToByte(sDate->Year);
 8005e08:	68bb      	ldr	r3, [r7, #8]
 8005e0a:	78db      	ldrb	r3, [r3, #3]
 8005e0c:	4618      	mov	r0, r3
 8005e0e:	f000 f88d 	bl	8005f2c <RTC_Bcd2ToByte>
 8005e12:	4603      	mov	r3, r0
 8005e14:	461a      	mov	r2, r3
 8005e16:	68bb      	ldr	r3, [r7, #8]
 8005e18:	70da      	strb	r2, [r3, #3]
    sDate->Month = (uint8_t)RTC_Bcd2ToByte(sDate->Month);
 8005e1a:	68bb      	ldr	r3, [r7, #8]
 8005e1c:	785b      	ldrb	r3, [r3, #1]
 8005e1e:	4618      	mov	r0, r3
 8005e20:	f000 f884 	bl	8005f2c <RTC_Bcd2ToByte>
 8005e24:	4603      	mov	r3, r0
 8005e26:	461a      	mov	r2, r3
 8005e28:	68bb      	ldr	r3, [r7, #8]
 8005e2a:	705a      	strb	r2, [r3, #1]
    sDate->Date = (uint8_t)RTC_Bcd2ToByte(sDate->Date);
 8005e2c:	68bb      	ldr	r3, [r7, #8]
 8005e2e:	789b      	ldrb	r3, [r3, #2]
 8005e30:	4618      	mov	r0, r3
 8005e32:	f000 f87b 	bl	8005f2c <RTC_Bcd2ToByte>
 8005e36:	4603      	mov	r3, r0
 8005e38:	461a      	mov	r2, r3
 8005e3a:	68bb      	ldr	r3, [r7, #8]
 8005e3c:	709a      	strb	r2, [r3, #2]
  }
  return HAL_OK;
 8005e3e:	2300      	movs	r3, #0
}
 8005e40:	4618      	mov	r0, r3
 8005e42:	3718      	adds	r7, #24
 8005e44:	46bd      	mov	sp, r7
 8005e46:	bd80      	pop	{r7, pc}

08005e48 <HAL_RTC_WaitForSynchro>:
  *         correctly copied into the RTC_TR and RTC_DR shadow registers.
  * @param  hrtc RTC handle
  * @retval HAL status
  */
HAL_StatusTypeDef HAL_RTC_WaitForSynchro(RTC_HandleTypeDef *hrtc)
{
 8005e48:	b580      	push	{r7, lr}
 8005e4a:	b084      	sub	sp, #16
 8005e4c:	af00      	add	r7, sp, #0
 8005e4e:	6078      	str	r0, [r7, #4]
  uint32_t tickstart = 0U;
 8005e50:	2300      	movs	r3, #0
 8005e52:	60fb      	str	r3, [r7, #12]

  /* Clear RSF flag */
  hrtc->Instance->ISR &= (uint32_t)RTC_RSF_MASK;
 8005e54:	687b      	ldr	r3, [r7, #4]
 8005e56:	681b      	ldr	r3, [r3, #0]
 8005e58:	68da      	ldr	r2, [r3, #12]
 8005e5a:	687b      	ldr	r3, [r7, #4]
 8005e5c:	681b      	ldr	r3, [r3, #0]
 8005e5e:	f022 02a0 	bic.w	r2, r2, #160	; 0xa0
 8005e62:	60da      	str	r2, [r3, #12]

  tickstart = HAL_GetTick();
 8005e64:	f7fd fe1e 	bl	8003aa4 <HAL_GetTick>
 8005e68:	60f8      	str	r0, [r7, #12]

  /* Wait the registers to be synchronised */
  while ((hrtc->Instance->ISR & RTC_ISR_RSF) == (uint32_t)RESET)
 8005e6a:	e009      	b.n	8005e80 <HAL_RTC_WaitForSynchro+0x38>
  {
    if ((HAL_GetTick() - tickstart) > RTC_TIMEOUT_VALUE)
 8005e6c:	f7fd fe1a 	bl	8003aa4 <HAL_GetTick>
 8005e70:	4602      	mov	r2, r0
 8005e72:	68fb      	ldr	r3, [r7, #12]
 8005e74:	1ad3      	subs	r3, r2, r3
 8005e76:	f5b3 7f7a 	cmp.w	r3, #1000	; 0x3e8
 8005e7a:	d901      	bls.n	8005e80 <HAL_RTC_WaitForSynchro+0x38>
    {
      return HAL_TIMEOUT;
 8005e7c:	2303      	movs	r3, #3
 8005e7e:	e007      	b.n	8005e90 <HAL_RTC_WaitForSynchro+0x48>
  while ((hrtc->Instance->ISR & RTC_ISR_RSF) == (uint32_t)RESET)
 8005e80:	687b      	ldr	r3, [r7, #4]
 8005e82:	681b      	ldr	r3, [r3, #0]
 8005e84:	68db      	ldr	r3, [r3, #12]
 8005e86:	f003 0320 	and.w	r3, r3, #32
 8005e8a:	2b00      	cmp	r3, #0
 8005e8c:	d0ee      	beq.n	8005e6c <HAL_RTC_WaitForSynchro+0x24>
    }
  }

  return HAL_OK;
 8005e8e:	2300      	movs	r3, #0
}
 8005e90:	4618      	mov	r0, r3
 8005e92:	3710      	adds	r7, #16
 8005e94:	46bd      	mov	sp, r7
 8005e96:	bd80      	pop	{r7, pc}

08005e98 <RTC_EnterInitMode>:
  * @retval An ErrorStatus enumeration value:
  *          - HAL_OK : RTC is in Init mode
  *          - HAL_TIMEOUT : RTC is not in Init mode and in Timeout
  */
HAL_StatusTypeDef RTC_EnterInitMode(RTC_HandleTypeDef *hrtc)
{
 8005e98:	b580      	push	{r7, lr}
 8005e9a:	b084      	sub	sp, #16
 8005e9c:	af00      	add	r7, sp, #0
 8005e9e:	6078      	str	r0, [r7, #4]
  uint32_t tickstart = 0U;
 8005ea0:	2300      	movs	r3, #0
 8005ea2:	60fb      	str	r3, [r7, #12]

  /* Check if the Initialization mode is set */
  if ((hrtc->Instance->ISR & RTC_ISR_INITF) == (uint32_t)RESET)
 8005ea4:	687b      	ldr	r3, [r7, #4]
 8005ea6:	681b      	ldr	r3, [r3, #0]
 8005ea8:	68db      	ldr	r3, [r3, #12]
 8005eaa:	f003 0340 	and.w	r3, r3, #64	; 0x40
 8005eae:	2b00      	cmp	r3, #0
 8005eb0:	d119      	bne.n	8005ee6 <RTC_EnterInitMode+0x4e>
  {
    /* Set the Initialization mode */
    hrtc->Instance->ISR = (uint32_t)RTC_INIT_MASK;
 8005eb2:	687b      	ldr	r3, [r7, #4]
 8005eb4:	681b      	ldr	r3, [r3, #0]
 8005eb6:	f04f 32ff 	mov.w	r2, #4294967295
 8005eba:	60da      	str	r2, [r3, #12]

    tickstart = HAL_GetTick();
 8005ebc:	f7fd fdf2 	bl	8003aa4 <HAL_GetTick>
 8005ec0:	60f8      	str	r0, [r7, #12]
    /* Wait till RTC is in INIT state and if Time out is reached exit */
    while ((hrtc->Instance->ISR & RTC_ISR_INITF) == (uint32_t)RESET)
 8005ec2:	e009      	b.n	8005ed8 <RTC_EnterInitMode+0x40>
    {
      if ((HAL_GetTick() - tickstart) > RTC_TIMEOUT_VALUE)
 8005ec4:	f7fd fdee 	bl	8003aa4 <HAL_GetTick>
 8005ec8:	4602      	mov	r2, r0
 8005eca:	68fb      	ldr	r3, [r7, #12]
 8005ecc:	1ad3      	subs	r3, r2, r3
 8005ece:	f5b3 7f7a 	cmp.w	r3, #1000	; 0x3e8
 8005ed2:	d901      	bls.n	8005ed8 <RTC_EnterInitMode+0x40>
      {
        return HAL_TIMEOUT;
 8005ed4:	2303      	movs	r3, #3
 8005ed6:	e007      	b.n	8005ee8 <RTC_EnterInitMode+0x50>
    while ((hrtc->Instance->ISR & RTC_ISR_INITF) == (uint32_t)RESET)
 8005ed8:	687b      	ldr	r3, [r7, #4]
 8005eda:	681b      	ldr	r3, [r3, #0]
 8005edc:	68db      	ldr	r3, [r3, #12]
 8005ede:	f003 0340 	and.w	r3, r3, #64	; 0x40
 8005ee2:	2b00      	cmp	r3, #0
 8005ee4:	d0ee      	beq.n	8005ec4 <RTC_EnterInitMode+0x2c>
      }
    }
  }

  return HAL_OK;
 8005ee6:	2300      	movs	r3, #0
}
 8005ee8:	4618      	mov	r0, r3
 8005eea:	3710      	adds	r7, #16
 8005eec:	46bd      	mov	sp, r7
 8005eee:	bd80      	pop	{r7, pc}

08005ef0 <RTC_ByteToBcd2>:
  * @brief  Convert a 2 digit decimal to BCD format.
  * @param  Value Byte to be converted
  * @retval Converted byte
  */
uint8_t RTC_ByteToBcd2(uint8_t Value)
{
 8005ef0:	b480      	push	{r7}
 8005ef2:	b085      	sub	sp, #20
 8005ef4:	af00      	add	r7, sp, #0
 8005ef6:	4603      	mov	r3, r0
 8005ef8:	71fb      	strb	r3, [r7, #7]
  uint32_t bcdhigh = 0U;
 8005efa:	2300      	movs	r3, #0
 8005efc:	60fb      	str	r3, [r7, #12]

  while (Value >= 10U)
 8005efe:	e005      	b.n	8005f0c <RTC_ByteToBcd2+0x1c>
  {
    bcdhigh++;
 8005f00:	68fb      	ldr	r3, [r7, #12]
 8005f02:	3301      	adds	r3, #1
 8005f04:	60fb      	str	r3, [r7, #12]
    Value -= 10U;
 8005f06:	79fb      	ldrb	r3, [r7, #7]
 8005f08:	3b0a      	subs	r3, #10
 8005f0a:	71fb      	strb	r3, [r7, #7]
  while (Value >= 10U)
 8005f0c:	79fb      	ldrb	r3, [r7, #7]
 8005f0e:	2b09      	cmp	r3, #9
 8005f10:	d8f6      	bhi.n	8005f00 <RTC_ByteToBcd2+0x10>
  }

  return ((uint8_t)(bcdhigh << 4U) | Value);
 8005f12:	68fb      	ldr	r3, [r7, #12]
 8005f14:	b2db      	uxtb	r3, r3
 8005f16:	011b      	lsls	r3, r3, #4
 8005f18:	b2da      	uxtb	r2, r3
 8005f1a:	79fb      	ldrb	r3, [r7, #7]
 8005f1c:	4313      	orrs	r3, r2
 8005f1e:	b2db      	uxtb	r3, r3
}
 8005f20:	4618      	mov	r0, r3
 8005f22:	3714      	adds	r7, #20
 8005f24:	46bd      	mov	sp, r7
 8005f26:	f85d 7b04 	ldr.w	r7, [sp], #4
 8005f2a:	4770      	bx	lr

08005f2c <RTC_Bcd2ToByte>:
  * @brief  Convert from 2 digit BCD to Binary.
  * @param  Value BCD value to be converted
  * @retval Converted word
  */
uint8_t RTC_Bcd2ToByte(uint8_t Value)
{
 8005f2c:	b480      	push	{r7}
 8005f2e:	b085      	sub	sp, #20
 8005f30:	af00      	add	r7, sp, #0
 8005f32:	4603      	mov	r3, r0
 8005f34:	71fb      	strb	r3, [r7, #7]
  uint32_t tmp = 0U;
 8005f36:	2300      	movs	r3, #0
 8005f38:	60fb      	str	r3, [r7, #12]
  tmp = ((uint8_t)(Value & (uint8_t)0xF0U) >> (uint8_t)0x4U) * 10U;
 8005f3a:	79fb      	ldrb	r3, [r7, #7]
 8005f3c:	091b      	lsrs	r3, r3, #4
 8005f3e:	b2db      	uxtb	r3, r3
 8005f40:	461a      	mov	r2, r3
 8005f42:	4613      	mov	r3, r2
 8005f44:	009b      	lsls	r3, r3, #2
 8005f46:	4413      	add	r3, r2
 8005f48:	005b      	lsls	r3, r3, #1
 8005f4a:	60fb      	str	r3, [r7, #12]
  return (tmp + (Value & (uint8_t)0x0FU));
 8005f4c:	79fb      	ldrb	r3, [r7, #7]
 8005f4e:	f003 030f 	and.w	r3, r3, #15
 8005f52:	b2da      	uxtb	r2, r3
 8005f54:	68fb      	ldr	r3, [r7, #12]
 8005f56:	b2db      	uxtb	r3, r3
 8005f58:	4413      	add	r3, r2
 8005f5a:	b2db      	uxtb	r3, r3
}
 8005f5c:	4618      	mov	r0, r3
 8005f5e:	3714      	adds	r7, #20
 8005f60:	46bd      	mov	sp, r7
 8005f62:	f85d 7b04 	ldr.w	r7, [sp], #4
 8005f66:	4770      	bx	lr

08005f68 <HAL_RTCEx_SetWakeUpTimer>:
  * @param  WakeUpCounter Wake up counter
  * @param  WakeUpClock Wake up clock
  * @retval HAL status
  */
HAL_StatusTypeDef HAL_RTCEx_SetWakeUpTimer(RTC_HandleTypeDef *hrtc, uint32_t WakeUpCounter, uint32_t WakeUpClock)
{
 8005f68:	b580      	push	{r7, lr}
 8005f6a:	b086      	sub	sp, #24
 8005f6c:	af00      	add	r7, sp, #0
 8005f6e:	60f8      	str	r0, [r7, #12]
 8005f70:	60b9      	str	r1, [r7, #8]
 8005f72:	607a      	str	r2, [r7, #4]
  uint32_t tickstart = 0U;
 8005f74:	2300      	movs	r3, #0
 8005f76:	617b      	str	r3, [r7, #20]
  /* Check the parameters */
  assert_param(IS_RTC_WAKEUP_CLOCK(WakeUpClock));
  assert_param(IS_RTC_WAKEUP_COUNTER(WakeUpCounter));

  /* Process Locked */
  __HAL_LOCK(hrtc);
 8005f78:	68fb      	ldr	r3, [r7, #12]
 8005f7a:	7f1b      	ldrb	r3, [r3, #28]
 8005f7c:	2b01      	cmp	r3, #1
 8005f7e:	d101      	bne.n	8005f84 <HAL_RTCEx_SetWakeUpTimer+0x1c>
 8005f80:	2302      	movs	r3, #2
 8005f82:	e081      	b.n	8006088 <HAL_RTCEx_SetWakeUpTimer+0x120>
 8005f84:	68fb      	ldr	r3, [r7, #12]
 8005f86:	2201      	movs	r2, #1
 8005f88:	771a      	strb	r2, [r3, #28]

  hrtc->State = HAL_RTC_STATE_BUSY;
 8005f8a:	68fb      	ldr	r3, [r7, #12]
 8005f8c:	2202      	movs	r2, #2
 8005f8e:	775a      	strb	r2, [r3, #29]

  /* Disable the write protection for RTC registers */
  __HAL_RTC_WRITEPROTECTION_DISABLE(hrtc);
 8005f90:	68fb      	ldr	r3, [r7, #12]
 8005f92:	681b      	ldr	r3, [r3, #0]
 8005f94:	22ca      	movs	r2, #202	; 0xca
 8005f96:	625a      	str	r2, [r3, #36]	; 0x24
 8005f98:	68fb      	ldr	r3, [r7, #12]
 8005f9a:	681b      	ldr	r3, [r3, #0]
 8005f9c:	2253      	movs	r2, #83	; 0x53
 8005f9e:	625a      	str	r2, [r3, #36]	; 0x24

  /*Check RTC WUTWF flag is reset only when wake up timer enabled*/
  if ((hrtc->Instance->CR & RTC_CR_WUTE) != RESET)
 8005fa0:	68fb      	ldr	r3, [r7, #12]
 8005fa2:	681b      	ldr	r3, [r3, #0]
 8005fa4:	689b      	ldr	r3, [r3, #8]
 8005fa6:	f403 6380 	and.w	r3, r3, #1024	; 0x400
 8005faa:	2b00      	cmp	r3, #0
 8005fac:	d01e      	beq.n	8005fec <HAL_RTCEx_SetWakeUpTimer+0x84>
  {
    tickstart = HAL_GetTick();
 8005fae:	f7fd fd79 	bl	8003aa4 <HAL_GetTick>
 8005fb2:	6178      	str	r0, [r7, #20]

    /* Wait till RTC WUTWF flag is reset and if Time out is reached exit */
    while (__HAL_RTC_WAKEUPTIMER_GET_FLAG(hrtc, RTC_FLAG_WUTWF) == SET)
 8005fb4:	e013      	b.n	8005fde <HAL_RTCEx_SetWakeUpTimer+0x76>
    {
      if ((HAL_GetTick() - tickstart) > RTC_TIMEOUT_VALUE)
 8005fb6:	f7fd fd75 	bl	8003aa4 <HAL_GetTick>
 8005fba:	4602      	mov	r2, r0
 8005fbc:	697b      	ldr	r3, [r7, #20]
 8005fbe:	1ad3      	subs	r3, r2, r3
 8005fc0:	f5b3 7f7a 	cmp.w	r3, #1000	; 0x3e8
 8005fc4:	d90b      	bls.n	8005fde <HAL_RTCEx_SetWakeUpTimer+0x76>
      {
        /* Enable the write protection for RTC registers */
        __HAL_RTC_WRITEPROTECTION_ENABLE(hrtc);
 8005fc6:	68fb      	ldr	r3, [r7, #12]
 8005fc8:	681b      	ldr	r3, [r3, #0]
 8005fca:	22ff      	movs	r2, #255	; 0xff
 8005fcc:	625a      	str	r2, [r3, #36]	; 0x24

        hrtc->State = HAL_RTC_STATE_TIMEOUT;
 8005fce:	68fb      	ldr	r3, [r7, #12]
 8005fd0:	2203      	movs	r2, #3
 8005fd2:	775a      	strb	r2, [r3, #29]

        /* Process Unlocked */
        __HAL_UNLOCK(hrtc);
 8005fd4:	68fb      	ldr	r3, [r7, #12]
 8005fd6:	2200      	movs	r2, #0
 8005fd8:	771a      	strb	r2, [r3, #28]

        return HAL_TIMEOUT;
 8005fda:	2303      	movs	r3, #3
 8005fdc:	e054      	b.n	8006088 <HAL_RTCEx_SetWakeUpTimer+0x120>
    while (__HAL_RTC_WAKEUPTIMER_GET_FLAG(hrtc, RTC_FLAG_WUTWF) == SET)
 8005fde:	68fb      	ldr	r3, [r7, #12]
 8005fe0:	681b      	ldr	r3, [r3, #0]
 8005fe2:	68db      	ldr	r3, [r3, #12]
 8005fe4:	f003 0304 	and.w	r3, r3, #4
 8005fe8:	2b00      	cmp	r3, #0
 8005fea:	d1e4      	bne.n	8005fb6 <HAL_RTCEx_SetWakeUpTimer+0x4e>
      }
    }
  }

  __HAL_RTC_WAKEUPTIMER_DISABLE(hrtc);
 8005fec:	68fb      	ldr	r3, [r7, #12]
 8005fee:	681b      	ldr	r3, [r3, #0]
 8005ff0:	689a      	ldr	r2, [r3, #8]
 8005ff2:	68fb      	ldr	r3, [r7, #12]
 8005ff4:	681b      	ldr	r3, [r3, #0]
 8005ff6:	f422 6280 	bic.w	r2, r2, #1024	; 0x400
 8005ffa:	609a      	str	r2, [r3, #8]

  tickstart = HAL_GetTick();
 8005ffc:	f7fd fd52 	bl	8003aa4 <HAL_GetTick>
 8006000:	6178      	str	r0, [r7, #20]

  /* Wait till RTC WUTWF flag is set and if Time out is reached exit */
  while (__HAL_RTC_WAKEUPTIMER_GET_FLAG(hrtc, RTC_FLAG_WUTWF) == RESET)
 8006002:	e013      	b.n	800602c <HAL_RTCEx_SetWakeUpTimer+0xc4>
  {
    if ((HAL_GetTick() - tickstart) > RTC_TIMEOUT_VALUE)
 8006004:	f7fd fd4e 	bl	8003aa4 <HAL_GetTick>
 8006008:	4602      	mov	r2, r0
 800600a:	697b      	ldr	r3, [r7, #20]
 800600c:	1ad3      	subs	r3, r2, r3
 800600e:	f5b3 7f7a 	cmp.w	r3, #1000	; 0x3e8
 8006012:	d90b      	bls.n	800602c <HAL_RTCEx_SetWakeUpTimer+0xc4>
    {
      /* Enable the write protection for RTC registers */
      __HAL_RTC_WRITEPROTECTION_ENABLE(hrtc);
 8006014:	68fb      	ldr	r3, [r7, #12]
 8006016:	681b      	ldr	r3, [r3, #0]
 8006018:	22ff      	movs	r2, #255	; 0xff
 800601a:	625a      	str	r2, [r3, #36]	; 0x24

      hrtc->State = HAL_RTC_STATE_TIMEOUT;
 800601c:	68fb      	ldr	r3, [r7, #12]
 800601e:	2203      	movs	r2, #3
 8006020:	775a      	strb	r2, [r3, #29]

      /* Process Unlocked */
      __HAL_UNLOCK(hrtc);
 8006022:	68fb      	ldr	r3, [r7, #12]
 8006024:	2200      	movs	r2, #0
 8006026:	771a      	strb	r2, [r3, #28]

      return HAL_TIMEOUT;
 8006028:	2303      	movs	r3, #3
 800602a:	e02d      	b.n	8006088 <HAL_RTCEx_SetWakeUpTimer+0x120>
  while (__HAL_RTC_WAKEUPTIMER_GET_FLAG(hrtc, RTC_FLAG_WUTWF) == RESET)
 800602c:	68fb      	ldr	r3, [r7, #12]
 800602e:	681b      	ldr	r3, [r3, #0]
 8006030:	68db      	ldr	r3, [r3, #12]
 8006032:	f003 0304 	and.w	r3, r3, #4
 8006036:	2b00      	cmp	r3, #0
 8006038:	d0e4      	beq.n	8006004 <HAL_RTCEx_SetWakeUpTimer+0x9c>
    }
  }

  /* Clear the Wakeup Timer clock source bits in CR register */
  hrtc->Instance->CR &= (uint32_t)~RTC_CR_WUCKSEL;
 800603a:	68fb      	ldr	r3, [r7, #12]
 800603c:	681b      	ldr	r3, [r3, #0]
 800603e:	689a      	ldr	r2, [r3, #8]
 8006040:	68fb      	ldr	r3, [r7, #12]
 8006042:	681b      	ldr	r3, [r3, #0]
 8006044:	f022 0207 	bic.w	r2, r2, #7
 8006048:	609a      	str	r2, [r3, #8]

  /* Configure the clock source */
  hrtc->Instance->CR |= (uint32_t)WakeUpClock;
 800604a:	68fb      	ldr	r3, [r7, #12]
 800604c:	681b      	ldr	r3, [r3, #0]
 800604e:	6899      	ldr	r1, [r3, #8]
 8006050:	68fb      	ldr	r3, [r7, #12]
 8006052:	681b      	ldr	r3, [r3, #0]
 8006054:	687a      	ldr	r2, [r7, #4]
 8006056:	430a      	orrs	r2, r1
 8006058:	609a      	str	r2, [r3, #8]

  /* Configure the Wakeup Timer counter */
  hrtc->Instance->WUTR = (uint32_t)WakeUpCounter;
 800605a:	68fb      	ldr	r3, [r7, #12]
 800605c:	681b      	ldr	r3, [r3, #0]
 800605e:	68ba      	ldr	r2, [r7, #8]
 8006060:	615a      	str	r2, [r3, #20]

  /* Enable the Wakeup Timer */
  __HAL_RTC_WAKEUPTIMER_ENABLE(hrtc);
 8006062:	68fb      	ldr	r3, [r7, #12]
 8006064:	681b      	ldr	r3, [r3, #0]
 8006066:	689a      	ldr	r2, [r3, #8]
 8006068:	68fb      	ldr	r3, [r7, #12]
 800606a:	681b      	ldr	r3, [r3, #0]
 800606c:	f442 6280 	orr.w	r2, r2, #1024	; 0x400
 8006070:	609a      	str	r2, [r3, #8]

  /* Enable the write protection for RTC registers */
  __HAL_RTC_WRITEPROTECTION_ENABLE(hrtc);
 8006072:	68fb      	ldr	r3, [r7, #12]
 8006074:	681b      	ldr	r3, [r3, #0]
 8006076:	22ff      	movs	r2, #255	; 0xff
 8006078:	625a      	str	r2, [r3, #36]	; 0x24

  hrtc->State = HAL_RTC_STATE_READY;
 800607a:	68fb      	ldr	r3, [r7, #12]
 800607c:	2201      	movs	r2, #1
 800607e:	775a      	strb	r2, [r3, #29]

  /* Process Unlocked */
  __HAL_UNLOCK(hrtc);
 8006080:	68fb      	ldr	r3, [r7, #12]
 8006082:	2200      	movs	r2, #0
 8006084:	771a      	strb	r2, [r3, #28]

  return HAL_OK;
 8006086:	2300      	movs	r3, #0
}
 8006088:	4618      	mov	r0, r3
 800608a:	3718      	adds	r7, #24
 800608c:	46bd      	mov	sp, r7
 800608e:	bd80      	pop	{r7, pc}

08006090 <HAL_RTCEx_BKUPWrite>:
  *                                 specify the register.
  * @param  Data Data to be written in the specified RTC Backup data register.
  * @retval None
  */
void HAL_RTCEx_BKUPWrite(RTC_HandleTypeDef *hrtc, uint32_t BackupRegister, uint32_t Data)
{
 8006090:	b480      	push	{r7}
 8006092:	b087      	sub	sp, #28
 8006094:	af00      	add	r7, sp, #0
 8006096:	60f8      	str	r0, [r7, #12]
 8006098:	60b9      	str	r1, [r7, #8]
 800609a:	607a      	str	r2, [r7, #4]
  uint32_t tmp = 0U;
 800609c:	2300      	movs	r3, #0
 800609e:	617b      	str	r3, [r7, #20]

  /* Check the parameters */
  assert_param(IS_RTC_BKP(BackupRegister));

  tmp = (uint32_t) & (hrtc->Instance->BKP0R);
 80060a0:	68fb      	ldr	r3, [r7, #12]
 80060a2:	681b      	ldr	r3, [r3, #0]
 80060a4:	3350      	adds	r3, #80	; 0x50
 80060a6:	617b      	str	r3, [r7, #20]
  tmp += (BackupRegister * 4U);
 80060a8:	68bb      	ldr	r3, [r7, #8]
 80060aa:	009b      	lsls	r3, r3, #2
 80060ac:	697a      	ldr	r2, [r7, #20]
 80060ae:	4413      	add	r3, r2
 80060b0:	617b      	str	r3, [r7, #20]

  /* Write the specified register */
  *(__IO uint32_t *)tmp = (uint32_t)Data;
 80060b2:	697b      	ldr	r3, [r7, #20]
 80060b4:	687a      	ldr	r2, [r7, #4]
 80060b6:	601a      	str	r2, [r3, #0]
}
 80060b8:	bf00      	nop
 80060ba:	371c      	adds	r7, #28
 80060bc:	46bd      	mov	sp, r7
 80060be:	f85d 7b04 	ldr.w	r7, [sp], #4
 80060c2:	4770      	bx	lr

080060c4 <HAL_RTCEx_BKUPRead>:
  *          This parameter can be: RTC_BKP_DRx where x can be from 0 to 19 to
  *                                 specify the register.
  * @retval Read value
  */
uint32_t HAL_RTCEx_BKUPRead(RTC_HandleTypeDef *hrtc, uint32_t BackupRegister)
{
 80060c4:	b480      	push	{r7}
 80060c6:	b085      	sub	sp, #20
 80060c8:	af00      	add	r7, sp, #0
 80060ca:	6078      	str	r0, [r7, #4]
 80060cc:	6039      	str	r1, [r7, #0]
  uint32_t tmp = 0U;
 80060ce:	2300      	movs	r3, #0
 80060d0:	60fb      	str	r3, [r7, #12]

  /* Check the parameters */
  assert_param(IS_RTC_BKP(BackupRegister));

  tmp = (uint32_t) & (hrtc->Instance->BKP0R);
 80060d2:	687b      	ldr	r3, [r7, #4]
 80060d4:	681b      	ldr	r3, [r3, #0]
 80060d6:	3350      	adds	r3, #80	; 0x50
 80060d8:	60fb      	str	r3, [r7, #12]
  tmp += (BackupRegister * 4U);
 80060da:	683b      	ldr	r3, [r7, #0]
 80060dc:	009b      	lsls	r3, r3, #2
 80060de:	68fa      	ldr	r2, [r7, #12]
 80060e0:	4413      	add	r3, r2
 80060e2:	60fb      	str	r3, [r7, #12]

  /* Read the specified register */
  return (*(__IO uint32_t *)tmp);
 80060e4:	68fb      	ldr	r3, [r7, #12]
 80060e6:	681b      	ldr	r3, [r3, #0]
}
 80060e8:	4618      	mov	r0, r3
 80060ea:	3714      	adds	r7, #20
 80060ec:	46bd      	mov	sp, r7
 80060ee:	f85d 7b04 	ldr.w	r7, [sp], #4
 80060f2:	4770      	bx	lr

080060f4 <HAL_SPI_Init>:
  * @param  hspi pointer to a SPI_HandleTypeDef structure that contains
  *               the configuration information for SPI module.
  * @retval HAL status
  */
HAL_StatusTypeDef HAL_SPI_Init(SPI_HandleTypeDef *hspi)
{
 80060f4:	b580      	push	{r7, lr}
 80060f6:	b084      	sub	sp, #16
 80060f8:	af00      	add	r7, sp, #0
 80060fa:	6078      	str	r0, [r7, #4]
  uint32_t frxth;

  /* Check the SPI handle allocation */
  if (hspi == NULL)
 80060fc:	687b      	ldr	r3, [r7, #4]
 80060fe:	2b00      	cmp	r3, #0
 8006100:	d101      	bne.n	8006106 <HAL_SPI_Init+0x12>
  {
    return HAL_ERROR;
 8006102:	2301      	movs	r3, #1
 8006104:	e09d      	b.n	8006242 <HAL_SPI_Init+0x14e>
  assert_param(IS_SPI_NSS(hspi->Init.NSS));
  assert_param(IS_SPI_NSSP(hspi->Init.NSSPMode));
  assert_param(IS_SPI_BAUDRATE_PRESCALER(hspi->Init.BaudRatePrescaler));
  assert_param(IS_SPI_FIRST_BIT(hspi->Init.FirstBit));
  assert_param(IS_SPI_TIMODE(hspi->Init.TIMode));
  if (hspi->Init.TIMode == SPI_TIMODE_DISABLE)
 8006106:	687b      	ldr	r3, [r7, #4]
 8006108:	6a5b      	ldr	r3, [r3, #36]	; 0x24
 800610a:	2b00      	cmp	r3, #0
 800610c:	d108      	bne.n	8006120 <HAL_SPI_Init+0x2c>
  {
    assert_param(IS_SPI_CPOL(hspi->Init.CLKPolarity));
    assert_param(IS_SPI_CPHA(hspi->Init.CLKPhase));

    if (hspi->Init.Mode == SPI_MODE_MASTER)
 800610e:	687b      	ldr	r3, [r7, #4]
 8006110:	685b      	ldr	r3, [r3, #4]
 8006112:	f5b3 7f82 	cmp.w	r3, #260	; 0x104
 8006116:	d009      	beq.n	800612c <HAL_SPI_Init+0x38>
      assert_param(IS_SPI_BAUDRATE_PRESCALER(hspi->Init.BaudRatePrescaler));
    }
    else
    {
      /* Baudrate prescaler not use in Motoraola Slave mode. force to default value */
      hspi->Init.BaudRatePrescaler = SPI_BAUDRATEPRESCALER_2;
 8006118:	687b      	ldr	r3, [r7, #4]
 800611a:	2200      	movs	r2, #0
 800611c:	61da      	str	r2, [r3, #28]
 800611e:	e005      	b.n	800612c <HAL_SPI_Init+0x38>
  else
  {
    assert_param(IS_SPI_BAUDRATE_PRESCALER(hspi->Init.BaudRatePrescaler));

    /* Force polarity and phase to TI protocaol requirements */
    hspi->Init.CLKPolarity = SPI_POLARITY_LOW;
 8006120:	687b      	ldr	r3, [r7, #4]
 8006122:	2200      	movs	r2, #0
 8006124:	611a      	str	r2, [r3, #16]
    hspi->Init.CLKPhase    = SPI_PHASE_1EDGE;
 8006126:	687b      	ldr	r3, [r7, #4]
 8006128:	2200      	movs	r2, #0
 800612a:	615a      	str	r2, [r3, #20]
  {
    assert_param(IS_SPI_CRC_POLYNOMIAL(hspi->Init.CRCPolynomial));
    assert_param(IS_SPI_CRC_LENGTH(hspi->Init.CRCLength));
  }
#else
  hspi->Init.CRCCalculation = SPI_CRCCALCULATION_DISABLE;
 800612c:	687b      	ldr	r3, [r7, #4]
 800612e:	2200      	movs	r2, #0
 8006130:	629a      	str	r2, [r3, #40]	; 0x28
#endif /* USE_SPI_CRC */

  if (hspi->State == HAL_SPI_STATE_RESET)
 8006132:	687b      	ldr	r3, [r7, #4]
 8006134:	f893 305d 	ldrb.w	r3, [r3, #93]	; 0x5d
 8006138:	b2db      	uxtb	r3, r3
 800613a:	2b00      	cmp	r3, #0
 800613c:	d106      	bne.n	800614c <HAL_SPI_Init+0x58>
  {
    /* Allocate lock resource and initialize it */
    hspi->Lock = HAL_UNLOCKED;
 800613e:	687b      	ldr	r3, [r7, #4]
 8006140:	2200      	movs	r2, #0
 8006142:	f883 205c 	strb.w	r2, [r3, #92]	; 0x5c

    /* Init the low level hardware : GPIO, CLOCK, NVIC... */
    hspi->MspInitCallback(hspi);
#else
    /* Init the low level hardware : GPIO, CLOCK, NVIC... */
    HAL_SPI_MspInit(hspi);
 8006146:	6878      	ldr	r0, [r7, #4]
 8006148:	f7fc fa58 	bl	80025fc <HAL_SPI_MspInit>
#endif /* USE_HAL_SPI_REGISTER_CALLBACKS */
  }

  hspi->State = HAL_SPI_STATE_BUSY;
 800614c:	687b      	ldr	r3, [r7, #4]
 800614e:	2202      	movs	r2, #2
 8006150:	f883 205d 	strb.w	r2, [r3, #93]	; 0x5d

  /* Disable the selected SPI peripheral */
  __HAL_SPI_DISABLE(hspi);
 8006154:	687b      	ldr	r3, [r7, #4]
 8006156:	681b      	ldr	r3, [r3, #0]
 8006158:	681a      	ldr	r2, [r3, #0]
 800615a:	687b      	ldr	r3, [r7, #4]
 800615c:	681b      	ldr	r3, [r3, #0]
 800615e:	f022 0240 	bic.w	r2, r2, #64	; 0x40
 8006162:	601a      	str	r2, [r3, #0]

  /* Align by default the rs fifo threshold on the data size */
  if (hspi->Init.DataSize > SPI_DATASIZE_8BIT)
 8006164:	687b      	ldr	r3, [r7, #4]
 8006166:	68db      	ldr	r3, [r3, #12]
 8006168:	f5b3 6fe0 	cmp.w	r3, #1792	; 0x700
 800616c:	d902      	bls.n	8006174 <HAL_SPI_Init+0x80>
  {
    frxth = SPI_RXFIFO_THRESHOLD_HF;
 800616e:	2300      	movs	r3, #0
 8006170:	60fb      	str	r3, [r7, #12]
 8006172:	e002      	b.n	800617a <HAL_SPI_Init+0x86>
  }
  else
  {
    frxth = SPI_RXFIFO_THRESHOLD_QF;
 8006174:	f44f 5380 	mov.w	r3, #4096	; 0x1000
 8006178:	60fb      	str	r3, [r7, #12]
  }

  /* CRC calculation is valid only for 16Bit and 8 Bit */
  if ((hspi->Init.DataSize != SPI_DATASIZE_16BIT) && (hspi->Init.DataSize != SPI_DATASIZE_8BIT))
 800617a:	687b      	ldr	r3, [r7, #4]
 800617c:	68db      	ldr	r3, [r3, #12]
 800617e:	f5b3 6f70 	cmp.w	r3, #3840	; 0xf00
 8006182:	d007      	beq.n	8006194 <HAL_SPI_Init+0xa0>
 8006184:	687b      	ldr	r3, [r7, #4]
 8006186:	68db      	ldr	r3, [r3, #12]
 8006188:	f5b3 6fe0 	cmp.w	r3, #1792	; 0x700
 800618c:	d002      	beq.n	8006194 <HAL_SPI_Init+0xa0>
  {
    /* CRC must be disabled */
    hspi->Init.CRCCalculation = SPI_CRCCALCULATION_DISABLE;
 800618e:	687b      	ldr	r3, [r7, #4]
 8006190:	2200      	movs	r2, #0
 8006192:	629a      	str	r2, [r3, #40]	; 0x28
  }

  /*----------------------- SPIx CR1 & CR2 Configuration ---------------------*/
  /* Configure : SPI Mode, Communication Mode, Clock polarity and phase, NSS management,
  Communication speed, First bit and CRC calculation state */
  WRITE_REG(hspi->Instance->CR1, ((hspi->Init.Mode & (SPI_CR1_MSTR | SPI_CR1_SSI)) |
 8006194:	687b      	ldr	r3, [r7, #4]
 8006196:	685b      	ldr	r3, [r3, #4]
 8006198:	f403 7282 	and.w	r2, r3, #260	; 0x104
 800619c:	687b      	ldr	r3, [r7, #4]
 800619e:	689b      	ldr	r3, [r3, #8]
 80061a0:	f403 4304 	and.w	r3, r3, #33792	; 0x8400
 80061a4:	431a      	orrs	r2, r3
 80061a6:	687b      	ldr	r3, [r7, #4]
 80061a8:	691b      	ldr	r3, [r3, #16]
 80061aa:	f003 0302 	and.w	r3, r3, #2
 80061ae:	431a      	orrs	r2, r3
 80061b0:	687b      	ldr	r3, [r7, #4]
 80061b2:	695b      	ldr	r3, [r3, #20]
 80061b4:	f003 0301 	and.w	r3, r3, #1
 80061b8:	431a      	orrs	r2, r3
 80061ba:	687b      	ldr	r3, [r7, #4]
 80061bc:	699b      	ldr	r3, [r3, #24]
 80061be:	f403 7300 	and.w	r3, r3, #512	; 0x200
 80061c2:	431a      	orrs	r2, r3
 80061c4:	687b      	ldr	r3, [r7, #4]
 80061c6:	69db      	ldr	r3, [r3, #28]
 80061c8:	f003 0338 	and.w	r3, r3, #56	; 0x38
 80061cc:	431a      	orrs	r2, r3
 80061ce:	687b      	ldr	r3, [r7, #4]
 80061d0:	6a1b      	ldr	r3, [r3, #32]
 80061d2:	f003 0380 	and.w	r3, r3, #128	; 0x80
 80061d6:	ea42 0103 	orr.w	r1, r2, r3
 80061da:	687b      	ldr	r3, [r7, #4]
 80061dc:	6a9b      	ldr	r3, [r3, #40]	; 0x28
 80061de:	f403 5200 	and.w	r2, r3, #8192	; 0x2000
 80061e2:	687b      	ldr	r3, [r7, #4]
 80061e4:	681b      	ldr	r3, [r3, #0]
 80061e6:	430a      	orrs	r2, r1
 80061e8:	601a      	str	r2, [r3, #0]
    }
  }
#endif /* USE_SPI_CRC */

  /* Configure : NSS management, TI Mode, NSS Pulse, Data size and Rx Fifo threshold */
  WRITE_REG(hspi->Instance->CR2, (((hspi->Init.NSS >> 16U) & SPI_CR2_SSOE) |
 80061ea:	687b      	ldr	r3, [r7, #4]
 80061ec:	699b      	ldr	r3, [r3, #24]
 80061ee:	0c1b      	lsrs	r3, r3, #16
 80061f0:	f003 0204 	and.w	r2, r3, #4
 80061f4:	687b      	ldr	r3, [r7, #4]
 80061f6:	6a5b      	ldr	r3, [r3, #36]	; 0x24
 80061f8:	f003 0310 	and.w	r3, r3, #16
 80061fc:	431a      	orrs	r2, r3
 80061fe:	687b      	ldr	r3, [r7, #4]
 8006200:	6b5b      	ldr	r3, [r3, #52]	; 0x34
 8006202:	f003 0308 	and.w	r3, r3, #8
 8006206:	431a      	orrs	r2, r3
 8006208:	687b      	ldr	r3, [r7, #4]
 800620a:	68db      	ldr	r3, [r3, #12]
 800620c:	f403 6370 	and.w	r3, r3, #3840	; 0xf00
 8006210:	ea42 0103 	orr.w	r1, r2, r3
 8006214:	68fb      	ldr	r3, [r7, #12]
 8006216:	f403 5280 	and.w	r2, r3, #4096	; 0x1000
 800621a:	687b      	ldr	r3, [r7, #4]
 800621c:	681b      	ldr	r3, [r3, #0]
 800621e:	430a      	orrs	r2, r1
 8006220:	605a      	str	r2, [r3, #4]
  }
#endif /* USE_SPI_CRC */

#if defined(SPI_I2SCFGR_I2SMOD)
  /* Activate the SPI mode (Make sure that I2SMOD bit in I2SCFGR register is reset) */
  CLEAR_BIT(hspi->Instance->I2SCFGR, SPI_I2SCFGR_I2SMOD);
 8006222:	687b      	ldr	r3, [r7, #4]
 8006224:	681b      	ldr	r3, [r3, #0]
 8006226:	69da      	ldr	r2, [r3, #28]
 8006228:	687b      	ldr	r3, [r7, #4]
 800622a:	681b      	ldr	r3, [r3, #0]
 800622c:	f422 6200 	bic.w	r2, r2, #2048	; 0x800
 8006230:	61da      	str	r2, [r3, #28]
#endif /* SPI_I2SCFGR_I2SMOD */

  hspi->ErrorCode = HAL_SPI_ERROR_NONE;
 8006232:	687b      	ldr	r3, [r7, #4]
 8006234:	2200      	movs	r2, #0
 8006236:	661a      	str	r2, [r3, #96]	; 0x60
  hspi->State     = HAL_SPI_STATE_READY;
 8006238:	687b      	ldr	r3, [r7, #4]
 800623a:	2201      	movs	r2, #1
 800623c:	f883 205d 	strb.w	r2, [r3, #93]	; 0x5d

  return HAL_OK;
 8006240:	2300      	movs	r3, #0
}
 8006242:	4618      	mov	r0, r3
 8006244:	3710      	adds	r7, #16
 8006246:	46bd      	mov	sp, r7
 8006248:	bd80      	pop	{r7, pc}

0800624a <HAL_SPI_Transmit>:
  * @param  Size amount of data to be sent
  * @param  Timeout Timeout duration
  * @retval HAL status
  */
HAL_StatusTypeDef HAL_SPI_Transmit(SPI_HandleTypeDef *hspi, uint8_t *pData, uint16_t Size, uint32_t Timeout)
{
 800624a:	b580      	push	{r7, lr}
 800624c:	b088      	sub	sp, #32
 800624e:	af00      	add	r7, sp, #0
 8006250:	60f8      	str	r0, [r7, #12]
 8006252:	60b9      	str	r1, [r7, #8]
 8006254:	603b      	str	r3, [r7, #0]
 8006256:	4613      	mov	r3, r2
 8006258:	80fb      	strh	r3, [r7, #6]
  uint32_t tickstart;
  HAL_StatusTypeDef errorcode = HAL_OK;
 800625a:	2300      	movs	r3, #0
 800625c:	77fb      	strb	r3, [r7, #31]

  /* Check Direction parameter */
  assert_param(IS_SPI_DIRECTION_2LINES_OR_1LINE(hspi->Init.Direction));

  /* Process Locked */
  __HAL_LOCK(hspi);
 800625e:	68fb      	ldr	r3, [r7, #12]
 8006260:	f893 305c 	ldrb.w	r3, [r3, #92]	; 0x5c
 8006264:	2b01      	cmp	r3, #1
 8006266:	d101      	bne.n	800626c <HAL_SPI_Transmit+0x22>
 8006268:	2302      	movs	r3, #2
 800626a:	e158      	b.n	800651e <HAL_SPI_Transmit+0x2d4>
 800626c:	68fb      	ldr	r3, [r7, #12]
 800626e:	2201      	movs	r2, #1
 8006270:	f883 205c 	strb.w	r2, [r3, #92]	; 0x5c

  /* Init tickstart for timeout management*/
  tickstart = HAL_GetTick();
 8006274:	f7fd fc16 	bl	8003aa4 <HAL_GetTick>
 8006278:	61b8      	str	r0, [r7, #24]
  initial_TxXferCount = Size;
 800627a:	88fb      	ldrh	r3, [r7, #6]
 800627c:	82fb      	strh	r3, [r7, #22]

  if (hspi->State != HAL_SPI_STATE_READY)
 800627e:	68fb      	ldr	r3, [r7, #12]
 8006280:	f893 305d 	ldrb.w	r3, [r3, #93]	; 0x5d
 8006284:	b2db      	uxtb	r3, r3
 8006286:	2b01      	cmp	r3, #1
 8006288:	d002      	beq.n	8006290 <HAL_SPI_Transmit+0x46>
  {
    errorcode = HAL_BUSY;
 800628a:	2302      	movs	r3, #2
 800628c:	77fb      	strb	r3, [r7, #31]
    goto error;
 800628e:	e13d      	b.n	800650c <HAL_SPI_Transmit+0x2c2>
  }

  if ((pData == NULL) || (Size == 0U))
 8006290:	68bb      	ldr	r3, [r7, #8]
 8006292:	2b00      	cmp	r3, #0
 8006294:	d002      	beq.n	800629c <HAL_SPI_Transmit+0x52>
 8006296:	88fb      	ldrh	r3, [r7, #6]
 8006298:	2b00      	cmp	r3, #0
 800629a:	d102      	bne.n	80062a2 <HAL_SPI_Transmit+0x58>
  {
    errorcode = HAL_ERROR;
 800629c:	2301      	movs	r3, #1
 800629e:	77fb      	strb	r3, [r7, #31]
    goto error;
 80062a0:	e134      	b.n	800650c <HAL_SPI_Transmit+0x2c2>
  }

  /* Set the transaction information */
  hspi->State       = HAL_SPI_STATE_BUSY_TX;
 80062a2:	68fb      	ldr	r3, [r7, #12]
 80062a4:	2203      	movs	r2, #3
 80062a6:	f883 205d 	strb.w	r2, [r3, #93]	; 0x5d
  hspi->ErrorCode   = HAL_SPI_ERROR_NONE;
 80062aa:	68fb      	ldr	r3, [r7, #12]
 80062ac:	2200      	movs	r2, #0
 80062ae:	661a      	str	r2, [r3, #96]	; 0x60
  hspi->pTxBuffPtr  = (uint8_t *)pData;
 80062b0:	68fb      	ldr	r3, [r7, #12]
 80062b2:	68ba      	ldr	r2, [r7, #8]
 80062b4:	639a      	str	r2, [r3, #56]	; 0x38
  hspi->TxXferSize  = Size;
 80062b6:	68fb      	ldr	r3, [r7, #12]
 80062b8:	88fa      	ldrh	r2, [r7, #6]
 80062ba:	879a      	strh	r2, [r3, #60]	; 0x3c
  hspi->TxXferCount = Size;
 80062bc:	68fb      	ldr	r3, [r7, #12]
 80062be:	88fa      	ldrh	r2, [r7, #6]
 80062c0:	87da      	strh	r2, [r3, #62]	; 0x3e

  /*Init field not used in handle to zero */
  hspi->pRxBuffPtr  = (uint8_t *)NULL;
 80062c2:	68fb      	ldr	r3, [r7, #12]
 80062c4:	2200      	movs	r2, #0
 80062c6:	641a      	str	r2, [r3, #64]	; 0x40
  hspi->RxXferSize  = 0U;
 80062c8:	68fb      	ldr	r3, [r7, #12]
 80062ca:	2200      	movs	r2, #0
 80062cc:	f8a3 2044 	strh.w	r2, [r3, #68]	; 0x44
  hspi->RxXferCount = 0U;
 80062d0:	68fb      	ldr	r3, [r7, #12]
 80062d2:	2200      	movs	r2, #0
 80062d4:	f8a3 2046 	strh.w	r2, [r3, #70]	; 0x46
  hspi->TxISR       = NULL;
 80062d8:	68fb      	ldr	r3, [r7, #12]
 80062da:	2200      	movs	r2, #0
 80062dc:	651a      	str	r2, [r3, #80]	; 0x50
  hspi->RxISR       = NULL;
 80062de:	68fb      	ldr	r3, [r7, #12]
 80062e0:	2200      	movs	r2, #0
 80062e2:	64da      	str	r2, [r3, #76]	; 0x4c

  /* Configure communication direction : 1Line */
  if (hspi->Init.Direction == SPI_DIRECTION_1LINE)
 80062e4:	68fb      	ldr	r3, [r7, #12]
 80062e6:	689b      	ldr	r3, [r3, #8]
 80062e8:	f5b3 4f00 	cmp.w	r3, #32768	; 0x8000
 80062ec:	d10f      	bne.n	800630e <HAL_SPI_Transmit+0xc4>
  {
    /* Disable SPI Peripheral before set 1Line direction (BIDIOE bit) */
    __HAL_SPI_DISABLE(hspi);
 80062ee:	68fb      	ldr	r3, [r7, #12]
 80062f0:	681b      	ldr	r3, [r3, #0]
 80062f2:	681a      	ldr	r2, [r3, #0]
 80062f4:	68fb      	ldr	r3, [r7, #12]
 80062f6:	681b      	ldr	r3, [r3, #0]
 80062f8:	f022 0240 	bic.w	r2, r2, #64	; 0x40
 80062fc:	601a      	str	r2, [r3, #0]
    SPI_1LINE_TX(hspi);
 80062fe:	68fb      	ldr	r3, [r7, #12]
 8006300:	681b      	ldr	r3, [r3, #0]
 8006302:	681a      	ldr	r2, [r3, #0]
 8006304:	68fb      	ldr	r3, [r7, #12]
 8006306:	681b      	ldr	r3, [r3, #0]
 8006308:	f442 4280 	orr.w	r2, r2, #16384	; 0x4000
 800630c:	601a      	str	r2, [r3, #0]
    SPI_RESET_CRC(hspi);
  }
#endif /* USE_SPI_CRC */

  /* Check if the SPI is already enabled */
  if ((hspi->Instance->CR1 & SPI_CR1_SPE) != SPI_CR1_SPE)
 800630e:	68fb      	ldr	r3, [r7, #12]
 8006310:	681b      	ldr	r3, [r3, #0]
 8006312:	681b      	ldr	r3, [r3, #0]
 8006314:	f003 0340 	and.w	r3, r3, #64	; 0x40
 8006318:	2b40      	cmp	r3, #64	; 0x40
 800631a:	d007      	beq.n	800632c <HAL_SPI_Transmit+0xe2>
  {
    /* Enable SPI peripheral */
    __HAL_SPI_ENABLE(hspi);
 800631c:	68fb      	ldr	r3, [r7, #12]
 800631e:	681b      	ldr	r3, [r3, #0]
 8006320:	681a      	ldr	r2, [r3, #0]
 8006322:	68fb      	ldr	r3, [r7, #12]
 8006324:	681b      	ldr	r3, [r3, #0]
 8006326:	f042 0240 	orr.w	r2, r2, #64	; 0x40
 800632a:	601a      	str	r2, [r3, #0]
  }

  /* Transmit data in 16 Bit mode */
  if (hspi->Init.DataSize > SPI_DATASIZE_8BIT)
 800632c:	68fb      	ldr	r3, [r7, #12]
 800632e:	68db      	ldr	r3, [r3, #12]
 8006330:	f5b3 6fe0 	cmp.w	r3, #1792	; 0x700
 8006334:	d94b      	bls.n	80063ce <HAL_SPI_Transmit+0x184>
  {
    if ((hspi->Init.Mode == SPI_MODE_SLAVE) || (initial_TxXferCount == 0x01U))
 8006336:	68fb      	ldr	r3, [r7, #12]
 8006338:	685b      	ldr	r3, [r3, #4]
 800633a:	2b00      	cmp	r3, #0
 800633c:	d002      	beq.n	8006344 <HAL_SPI_Transmit+0xfa>
 800633e:	8afb      	ldrh	r3, [r7, #22]
 8006340:	2b01      	cmp	r3, #1
 8006342:	d13e      	bne.n	80063c2 <HAL_SPI_Transmit+0x178>
    {
      hspi->Instance->DR = *((uint16_t *)hspi->pTxBuffPtr);
 8006344:	68fb      	ldr	r3, [r7, #12]
 8006346:	6b9b      	ldr	r3, [r3, #56]	; 0x38
 8006348:	881a      	ldrh	r2, [r3, #0]
 800634a:	68fb      	ldr	r3, [r7, #12]
 800634c:	681b      	ldr	r3, [r3, #0]
 800634e:	60da      	str	r2, [r3, #12]
      hspi->pTxBuffPtr += sizeof(uint16_t);
 8006350:	68fb      	ldr	r3, [r7, #12]
 8006352:	6b9b      	ldr	r3, [r3, #56]	; 0x38
 8006354:	1c9a      	adds	r2, r3, #2
 8006356:	68fb      	ldr	r3, [r7, #12]
 8006358:	639a      	str	r2, [r3, #56]	; 0x38
      hspi->TxXferCount--;
 800635a:	68fb      	ldr	r3, [r7, #12]
 800635c:	8fdb      	ldrh	r3, [r3, #62]	; 0x3e
 800635e:	b29b      	uxth	r3, r3
 8006360:	3b01      	subs	r3, #1
 8006362:	b29a      	uxth	r2, r3
 8006364:	68fb      	ldr	r3, [r7, #12]
 8006366:	87da      	strh	r2, [r3, #62]	; 0x3e
    }
    /* Transmit data in 16 Bit mode */
    while (hspi->TxXferCount > 0U)
 8006368:	e02b      	b.n	80063c2 <HAL_SPI_Transmit+0x178>
    {
      /* Wait until TXE flag is set to send data */
      if (__HAL_SPI_GET_FLAG(hspi, SPI_FLAG_TXE))
 800636a:	68fb      	ldr	r3, [r7, #12]
 800636c:	681b      	ldr	r3, [r3, #0]
 800636e:	689b      	ldr	r3, [r3, #8]
 8006370:	f003 0302 	and.w	r3, r3, #2
 8006374:	2b02      	cmp	r3, #2
 8006376:	d112      	bne.n	800639e <HAL_SPI_Transmit+0x154>
      {
        hspi->Instance->DR = *((uint16_t *)hspi->pTxBuffPtr);
 8006378:	68fb      	ldr	r3, [r7, #12]
 800637a:	6b9b      	ldr	r3, [r3, #56]	; 0x38
 800637c:	881a      	ldrh	r2, [r3, #0]
 800637e:	68fb      	ldr	r3, [r7, #12]
 8006380:	681b      	ldr	r3, [r3, #0]
 8006382:	60da      	str	r2, [r3, #12]
        hspi->pTxBuffPtr += sizeof(uint16_t);
 8006384:	68fb      	ldr	r3, [r7, #12]
 8006386:	6b9b      	ldr	r3, [r3, #56]	; 0x38
 8006388:	1c9a      	adds	r2, r3, #2
 800638a:	68fb      	ldr	r3, [r7, #12]
 800638c:	639a      	str	r2, [r3, #56]	; 0x38
        hspi->TxXferCount--;
 800638e:	68fb      	ldr	r3, [r7, #12]
 8006390:	8fdb      	ldrh	r3, [r3, #62]	; 0x3e
 8006392:	b29b      	uxth	r3, r3
 8006394:	3b01      	subs	r3, #1
 8006396:	b29a      	uxth	r2, r3
 8006398:	68fb      	ldr	r3, [r7, #12]
 800639a:	87da      	strh	r2, [r3, #62]	; 0x3e
 800639c:	e011      	b.n	80063c2 <HAL_SPI_Transmit+0x178>
      }
      else
      {
        /* Timeout management */
        if ((((HAL_GetTick() - tickstart) >=  Timeout) && (Timeout != HAL_MAX_DELAY)) || (Timeout == 0U))
 800639e:	f7fd fb81 	bl	8003aa4 <HAL_GetTick>
 80063a2:	4602      	mov	r2, r0
 80063a4:	69bb      	ldr	r3, [r7, #24]
 80063a6:	1ad3      	subs	r3, r2, r3
 80063a8:	683a      	ldr	r2, [r7, #0]
 80063aa:	429a      	cmp	r2, r3
 80063ac:	d803      	bhi.n	80063b6 <HAL_SPI_Transmit+0x16c>
 80063ae:	683b      	ldr	r3, [r7, #0]
 80063b0:	f1b3 3fff 	cmp.w	r3, #4294967295
 80063b4:	d102      	bne.n	80063bc <HAL_SPI_Transmit+0x172>
 80063b6:	683b      	ldr	r3, [r7, #0]
 80063b8:	2b00      	cmp	r3, #0
 80063ba:	d102      	bne.n	80063c2 <HAL_SPI_Transmit+0x178>
        {
          errorcode = HAL_TIMEOUT;
 80063bc:	2303      	movs	r3, #3
 80063be:	77fb      	strb	r3, [r7, #31]
          goto error;
 80063c0:	e0a4      	b.n	800650c <HAL_SPI_Transmit+0x2c2>
    while (hspi->TxXferCount > 0U)
 80063c2:	68fb      	ldr	r3, [r7, #12]
 80063c4:	8fdb      	ldrh	r3, [r3, #62]	; 0x3e
 80063c6:	b29b      	uxth	r3, r3
 80063c8:	2b00      	cmp	r3, #0
 80063ca:	d1ce      	bne.n	800636a <HAL_SPI_Transmit+0x120>
 80063cc:	e07c      	b.n	80064c8 <HAL_SPI_Transmit+0x27e>
    }
  }
  /* Transmit data in 8 Bit mode */
  else
  {
    if ((hspi->Init.Mode == SPI_MODE_SLAVE) || (initial_TxXferCount == 0x01U))
 80063ce:	68fb      	ldr	r3, [r7, #12]
 80063d0:	685b      	ldr	r3, [r3, #4]
 80063d2:	2b00      	cmp	r3, #0
 80063d4:	d002      	beq.n	80063dc <HAL_SPI_Transmit+0x192>
 80063d6:	8afb      	ldrh	r3, [r7, #22]
 80063d8:	2b01      	cmp	r3, #1
 80063da:	d170      	bne.n	80064be <HAL_SPI_Transmit+0x274>
    {
      if (hspi->TxXferCount > 1U)
 80063dc:	68fb      	ldr	r3, [r7, #12]
 80063de:	8fdb      	ldrh	r3, [r3, #62]	; 0x3e
 80063e0:	b29b      	uxth	r3, r3
 80063e2:	2b01      	cmp	r3, #1
 80063e4:	d912      	bls.n	800640c <HAL_SPI_Transmit+0x1c2>
      {
        /* write on the data register in packing mode */
        hspi->Instance->DR = *((uint16_t *)hspi->pTxBuffPtr);
 80063e6:	68fb      	ldr	r3, [r7, #12]
 80063e8:	6b9b      	ldr	r3, [r3, #56]	; 0x38
 80063ea:	881a      	ldrh	r2, [r3, #0]
 80063ec:	68fb      	ldr	r3, [r7, #12]
 80063ee:	681b      	ldr	r3, [r3, #0]
 80063f0:	60da      	str	r2, [r3, #12]
        hspi->pTxBuffPtr += sizeof(uint16_t);
 80063f2:	68fb      	ldr	r3, [r7, #12]
 80063f4:	6b9b      	ldr	r3, [r3, #56]	; 0x38
 80063f6:	1c9a      	adds	r2, r3, #2
 80063f8:	68fb      	ldr	r3, [r7, #12]
 80063fa:	639a      	str	r2, [r3, #56]	; 0x38
        hspi->TxXferCount -= 2U;
 80063fc:	68fb      	ldr	r3, [r7, #12]
 80063fe:	8fdb      	ldrh	r3, [r3, #62]	; 0x3e
 8006400:	b29b      	uxth	r3, r3
 8006402:	3b02      	subs	r3, #2
 8006404:	b29a      	uxth	r2, r3
 8006406:	68fb      	ldr	r3, [r7, #12]
 8006408:	87da      	strh	r2, [r3, #62]	; 0x3e
 800640a:	e058      	b.n	80064be <HAL_SPI_Transmit+0x274>
      }
      else
      {
        *((__IO uint8_t *)&hspi->Instance->DR) = (*hspi->pTxBuffPtr);
 800640c:	68fb      	ldr	r3, [r7, #12]
 800640e:	6b9a      	ldr	r2, [r3, #56]	; 0x38
 8006410:	68fb      	ldr	r3, [r7, #12]
 8006412:	681b      	ldr	r3, [r3, #0]
 8006414:	330c      	adds	r3, #12
 8006416:	7812      	ldrb	r2, [r2, #0]
 8006418:	701a      	strb	r2, [r3, #0]
        hspi->pTxBuffPtr ++;
 800641a:	68fb      	ldr	r3, [r7, #12]
 800641c:	6b9b      	ldr	r3, [r3, #56]	; 0x38
 800641e:	1c5a      	adds	r2, r3, #1
 8006420:	68fb      	ldr	r3, [r7, #12]
 8006422:	639a      	str	r2, [r3, #56]	; 0x38
        hspi->TxXferCount--;
 8006424:	68fb      	ldr	r3, [r7, #12]
 8006426:	8fdb      	ldrh	r3, [r3, #62]	; 0x3e
 8006428:	b29b      	uxth	r3, r3
 800642a:	3b01      	subs	r3, #1
 800642c:	b29a      	uxth	r2, r3
 800642e:	68fb      	ldr	r3, [r7, #12]
 8006430:	87da      	strh	r2, [r3, #62]	; 0x3e
      }
    }
    while (hspi->TxXferCount > 0U)
 8006432:	e044      	b.n	80064be <HAL_SPI_Transmit+0x274>
    {
      /* Wait until TXE flag is set to send data */
      if (__HAL_SPI_GET_FLAG(hspi, SPI_FLAG_TXE))
 8006434:	68fb      	ldr	r3, [r7, #12]
 8006436:	681b      	ldr	r3, [r3, #0]
 8006438:	689b      	ldr	r3, [r3, #8]
 800643a:	f003 0302 	and.w	r3, r3, #2
 800643e:	2b02      	cmp	r3, #2
 8006440:	d12b      	bne.n	800649a <HAL_SPI_Transmit+0x250>
      {
        if (hspi->TxXferCount > 1U)
 8006442:	68fb      	ldr	r3, [r7, #12]
 8006444:	8fdb      	ldrh	r3, [r3, #62]	; 0x3e
 8006446:	b29b      	uxth	r3, r3
 8006448:	2b01      	cmp	r3, #1
 800644a:	d912      	bls.n	8006472 <HAL_SPI_Transmit+0x228>
        {
          /* write on the data register in packing mode */
          hspi->Instance->DR = *((uint16_t *)hspi->pTxBuffPtr);
 800644c:	68fb      	ldr	r3, [r7, #12]
 800644e:	6b9b      	ldr	r3, [r3, #56]	; 0x38
 8006450:	881a      	ldrh	r2, [r3, #0]
 8006452:	68fb      	ldr	r3, [r7, #12]
 8006454:	681b      	ldr	r3, [r3, #0]
 8006456:	60da      	str	r2, [r3, #12]
          hspi->pTxBuffPtr += sizeof(uint16_t);
 8006458:	68fb      	ldr	r3, [r7, #12]
 800645a:	6b9b      	ldr	r3, [r3, #56]	; 0x38
 800645c:	1c9a      	adds	r2, r3, #2
 800645e:	68fb      	ldr	r3, [r7, #12]
 8006460:	639a      	str	r2, [r3, #56]	; 0x38
          hspi->TxXferCount -= 2U;
 8006462:	68fb      	ldr	r3, [r7, #12]
 8006464:	8fdb      	ldrh	r3, [r3, #62]	; 0x3e
 8006466:	b29b      	uxth	r3, r3
 8006468:	3b02      	subs	r3, #2
 800646a:	b29a      	uxth	r2, r3
 800646c:	68fb      	ldr	r3, [r7, #12]
 800646e:	87da      	strh	r2, [r3, #62]	; 0x3e
 8006470:	e025      	b.n	80064be <HAL_SPI_Transmit+0x274>
        }
        else
        {
          *((__IO uint8_t *)&hspi->Instance->DR) = (*hspi->pTxBuffPtr);
 8006472:	68fb      	ldr	r3, [r7, #12]
 8006474:	6b9a      	ldr	r2, [r3, #56]	; 0x38
 8006476:	68fb      	ldr	r3, [r7, #12]
 8006478:	681b      	ldr	r3, [r3, #0]
 800647a:	330c      	adds	r3, #12
 800647c:	7812      	ldrb	r2, [r2, #0]
 800647e:	701a      	strb	r2, [r3, #0]
          hspi->pTxBuffPtr++;
 8006480:	68fb      	ldr	r3, [r7, #12]
 8006482:	6b9b      	ldr	r3, [r3, #56]	; 0x38
 8006484:	1c5a      	adds	r2, r3, #1
 8006486:	68fb      	ldr	r3, [r7, #12]
 8006488:	639a      	str	r2, [r3, #56]	; 0x38
          hspi->TxXferCount--;
 800648a:	68fb      	ldr	r3, [r7, #12]
 800648c:	8fdb      	ldrh	r3, [r3, #62]	; 0x3e
 800648e:	b29b      	uxth	r3, r3
 8006490:	3b01      	subs	r3, #1
 8006492:	b29a      	uxth	r2, r3
 8006494:	68fb      	ldr	r3, [r7, #12]
 8006496:	87da      	strh	r2, [r3, #62]	; 0x3e
 8006498:	e011      	b.n	80064be <HAL_SPI_Transmit+0x274>
        }
      }
      else
      {
        /* Timeout management */
        if ((((HAL_GetTick() - tickstart) >=  Timeout) && (Timeout != HAL_MAX_DELAY)) || (Timeout == 0U))
 800649a:	f7fd fb03 	bl	8003aa4 <HAL_GetTick>
 800649e:	4602      	mov	r2, r0
 80064a0:	69bb      	ldr	r3, [r7, #24]
 80064a2:	1ad3      	subs	r3, r2, r3
 80064a4:	683a      	ldr	r2, [r7, #0]
 80064a6:	429a      	cmp	r2, r3
 80064a8:	d803      	bhi.n	80064b2 <HAL_SPI_Transmit+0x268>
 80064aa:	683b      	ldr	r3, [r7, #0]
 80064ac:	f1b3 3fff 	cmp.w	r3, #4294967295
 80064b0:	d102      	bne.n	80064b8 <HAL_SPI_Transmit+0x26e>
 80064b2:	683b      	ldr	r3, [r7, #0]
 80064b4:	2b00      	cmp	r3, #0
 80064b6:	d102      	bne.n	80064be <HAL_SPI_Transmit+0x274>
        {
          errorcode = HAL_TIMEOUT;
 80064b8:	2303      	movs	r3, #3
 80064ba:	77fb      	strb	r3, [r7, #31]
          goto error;
 80064bc:	e026      	b.n	800650c <HAL_SPI_Transmit+0x2c2>
    while (hspi->TxXferCount > 0U)
 80064be:	68fb      	ldr	r3, [r7, #12]
 80064c0:	8fdb      	ldrh	r3, [r3, #62]	; 0x3e
 80064c2:	b29b      	uxth	r3, r3
 80064c4:	2b00      	cmp	r3, #0
 80064c6:	d1b5      	bne.n	8006434 <HAL_SPI_Transmit+0x1ea>
    SET_BIT(hspi->Instance->CR1, SPI_CR1_CRCNEXT);
  }
#endif /* USE_SPI_CRC */

  /* Check the end of the transaction */
  if (SPI_EndRxTxTransaction(hspi, Timeout, tickstart) != HAL_OK)
 80064c8:	69ba      	ldr	r2, [r7, #24]
 80064ca:	6839      	ldr	r1, [r7, #0]
 80064cc:	68f8      	ldr	r0, [r7, #12]
 80064ce:	f000 fce3 	bl	8006e98 <SPI_EndRxTxTransaction>
 80064d2:	4603      	mov	r3, r0
 80064d4:	2b00      	cmp	r3, #0
 80064d6:	d002      	beq.n	80064de <HAL_SPI_Transmit+0x294>
  {
    hspi->ErrorCode = HAL_SPI_ERROR_FLAG;
 80064d8:	68fb      	ldr	r3, [r7, #12]
 80064da:	2220      	movs	r2, #32
 80064dc:	661a      	str	r2, [r3, #96]	; 0x60
  }

  /* Clear overrun flag in 2 Lines communication mode because received is not read */
  if (hspi->Init.Direction == SPI_DIRECTION_2LINES)
 80064de:	68fb      	ldr	r3, [r7, #12]
 80064e0:	689b      	ldr	r3, [r3, #8]
 80064e2:	2b00      	cmp	r3, #0
 80064e4:	d10a      	bne.n	80064fc <HAL_SPI_Transmit+0x2b2>
  {
    __HAL_SPI_CLEAR_OVRFLAG(hspi);
 80064e6:	2300      	movs	r3, #0
 80064e8:	613b      	str	r3, [r7, #16]
 80064ea:	68fb      	ldr	r3, [r7, #12]
 80064ec:	681b      	ldr	r3, [r3, #0]
 80064ee:	68db      	ldr	r3, [r3, #12]
 80064f0:	613b      	str	r3, [r7, #16]
 80064f2:	68fb      	ldr	r3, [r7, #12]
 80064f4:	681b      	ldr	r3, [r3, #0]
 80064f6:	689b      	ldr	r3, [r3, #8]
 80064f8:	613b      	str	r3, [r7, #16]
 80064fa:	693b      	ldr	r3, [r7, #16]
  }

  if (hspi->ErrorCode != HAL_SPI_ERROR_NONE)
 80064fc:	68fb      	ldr	r3, [r7, #12]
 80064fe:	6e1b      	ldr	r3, [r3, #96]	; 0x60
 8006500:	2b00      	cmp	r3, #0
 8006502:	d002      	beq.n	800650a <HAL_SPI_Transmit+0x2c0>
  {
    errorcode = HAL_ERROR;
 8006504:	2301      	movs	r3, #1
 8006506:	77fb      	strb	r3, [r7, #31]
 8006508:	e000      	b.n	800650c <HAL_SPI_Transmit+0x2c2>
  }

error:
 800650a:	bf00      	nop
  hspi->State = HAL_SPI_STATE_READY;
 800650c:	68fb      	ldr	r3, [r7, #12]
 800650e:	2201      	movs	r2, #1
 8006510:	f883 205d 	strb.w	r2, [r3, #93]	; 0x5d
  /* Process Unlocked */
  __HAL_UNLOCK(hspi);
 8006514:	68fb      	ldr	r3, [r7, #12]
 8006516:	2200      	movs	r2, #0
 8006518:	f883 205c 	strb.w	r2, [r3, #92]	; 0x5c
  return errorcode;
 800651c:	7ffb      	ldrb	r3, [r7, #31]
}
 800651e:	4618      	mov	r0, r3
 8006520:	3720      	adds	r7, #32
 8006522:	46bd      	mov	sp, r7
 8006524:	bd80      	pop	{r7, pc}

08006526 <HAL_SPI_Receive>:
  * @param  Size amount of data to be received
  * @param  Timeout Timeout duration
  * @retval HAL status
  */
HAL_StatusTypeDef HAL_SPI_Receive(SPI_HandleTypeDef *hspi, uint8_t *pData, uint16_t Size, uint32_t Timeout)
{
 8006526:	b580      	push	{r7, lr}
 8006528:	b088      	sub	sp, #32
 800652a:	af02      	add	r7, sp, #8
 800652c:	60f8      	str	r0, [r7, #12]
 800652e:	60b9      	str	r1, [r7, #8]
 8006530:	603b      	str	r3, [r7, #0]
 8006532:	4613      	mov	r3, r2
 8006534:	80fb      	strh	r3, [r7, #6]
  __IO uint32_t tmpreg = 0U;
  __IO uint8_t  * ptmpreg8;
  __IO uint8_t  tmpreg8 = 0;
#endif /* USE_SPI_CRC */
  uint32_t tickstart;
  HAL_StatusTypeDef errorcode = HAL_OK;
 8006536:	2300      	movs	r3, #0
 8006538:	75fb      	strb	r3, [r7, #23]

  if ((hspi->Init.Mode == SPI_MODE_MASTER) && (hspi->Init.Direction == SPI_DIRECTION_2LINES))
 800653a:	68fb      	ldr	r3, [r7, #12]
 800653c:	685b      	ldr	r3, [r3, #4]
 800653e:	f5b3 7f82 	cmp.w	r3, #260	; 0x104
 8006542:	d112      	bne.n	800656a <HAL_SPI_Receive+0x44>
 8006544:	68fb      	ldr	r3, [r7, #12]
 8006546:	689b      	ldr	r3, [r3, #8]
 8006548:	2b00      	cmp	r3, #0
 800654a:	d10e      	bne.n	800656a <HAL_SPI_Receive+0x44>
  {
    hspi->State = HAL_SPI_STATE_BUSY_RX;
 800654c:	68fb      	ldr	r3, [r7, #12]
 800654e:	2204      	movs	r2, #4
 8006550:	f883 205d 	strb.w	r2, [r3, #93]	; 0x5d
    /* Call transmit-receive function to send Dummy data on Tx line and generate clock on CLK line */
    return HAL_SPI_TransmitReceive(hspi, pData, pData, Size, Timeout);
 8006554:	88fa      	ldrh	r2, [r7, #6]
 8006556:	683b      	ldr	r3, [r7, #0]
 8006558:	9300      	str	r3, [sp, #0]
 800655a:	4613      	mov	r3, r2
 800655c:	68ba      	ldr	r2, [r7, #8]
 800655e:	68b9      	ldr	r1, [r7, #8]
 8006560:	68f8      	ldr	r0, [r7, #12]
 8006562:	f000 f910 	bl	8006786 <HAL_SPI_TransmitReceive>
 8006566:	4603      	mov	r3, r0
 8006568:	e109      	b.n	800677e <HAL_SPI_Receive+0x258>
  }

  /* Process Locked */
  __HAL_LOCK(hspi);
 800656a:	68fb      	ldr	r3, [r7, #12]
 800656c:	f893 305c 	ldrb.w	r3, [r3, #92]	; 0x5c
 8006570:	2b01      	cmp	r3, #1
 8006572:	d101      	bne.n	8006578 <HAL_SPI_Receive+0x52>
 8006574:	2302      	movs	r3, #2
 8006576:	e102      	b.n	800677e <HAL_SPI_Receive+0x258>
 8006578:	68fb      	ldr	r3, [r7, #12]
 800657a:	2201      	movs	r2, #1
 800657c:	f883 205c 	strb.w	r2, [r3, #92]	; 0x5c

  /* Init tickstart for timeout management*/
  tickstart = HAL_GetTick();
 8006580:	f7fd fa90 	bl	8003aa4 <HAL_GetTick>
 8006584:	6138      	str	r0, [r7, #16]

  if (hspi->State != HAL_SPI_STATE_READY)
 8006586:	68fb      	ldr	r3, [r7, #12]
 8006588:	f893 305d 	ldrb.w	r3, [r3, #93]	; 0x5d
 800658c:	b2db      	uxtb	r3, r3
 800658e:	2b01      	cmp	r3, #1
 8006590:	d002      	beq.n	8006598 <HAL_SPI_Receive+0x72>
  {
    errorcode = HAL_BUSY;
 8006592:	2302      	movs	r3, #2
 8006594:	75fb      	strb	r3, [r7, #23]
    goto error;
 8006596:	e0e9      	b.n	800676c <HAL_SPI_Receive+0x246>
  }

  if ((pData == NULL) || (Size == 0U))
 8006598:	68bb      	ldr	r3, [r7, #8]
 800659a:	2b00      	cmp	r3, #0
 800659c:	d002      	beq.n	80065a4 <HAL_SPI_Receive+0x7e>
 800659e:	88fb      	ldrh	r3, [r7, #6]
 80065a0:	2b00      	cmp	r3, #0
 80065a2:	d102      	bne.n	80065aa <HAL_SPI_Receive+0x84>
  {
    errorcode = HAL_ERROR;
 80065a4:	2301      	movs	r3, #1
 80065a6:	75fb      	strb	r3, [r7, #23]
    goto error;
 80065a8:	e0e0      	b.n	800676c <HAL_SPI_Receive+0x246>
  }

  /* Set the transaction information */
  hspi->State       = HAL_SPI_STATE_BUSY_RX;
 80065aa:	68fb      	ldr	r3, [r7, #12]
 80065ac:	2204      	movs	r2, #4
 80065ae:	f883 205d 	strb.w	r2, [r3, #93]	; 0x5d
  hspi->ErrorCode   = HAL_SPI_ERROR_NONE;
 80065b2:	68fb      	ldr	r3, [r7, #12]
 80065b4:	2200      	movs	r2, #0
 80065b6:	661a      	str	r2, [r3, #96]	; 0x60
  hspi->pRxBuffPtr  = (uint8_t *)pData;
 80065b8:	68fb      	ldr	r3, [r7, #12]
 80065ba:	68ba      	ldr	r2, [r7, #8]
 80065bc:	641a      	str	r2, [r3, #64]	; 0x40
  hspi->RxXferSize  = Size;
 80065be:	68fb      	ldr	r3, [r7, #12]
 80065c0:	88fa      	ldrh	r2, [r7, #6]
 80065c2:	f8a3 2044 	strh.w	r2, [r3, #68]	; 0x44
  hspi->RxXferCount = Size;
 80065c6:	68fb      	ldr	r3, [r7, #12]
 80065c8:	88fa      	ldrh	r2, [r7, #6]
 80065ca:	f8a3 2046 	strh.w	r2, [r3, #70]	; 0x46

  /*Init field not used in handle to zero */
  hspi->pTxBuffPtr  = (uint8_t *)NULL;
 80065ce:	68fb      	ldr	r3, [r7, #12]
 80065d0:	2200      	movs	r2, #0
 80065d2:	639a      	str	r2, [r3, #56]	; 0x38
  hspi->TxXferSize  = 0U;
 80065d4:	68fb      	ldr	r3, [r7, #12]
 80065d6:	2200      	movs	r2, #0
 80065d8:	879a      	strh	r2, [r3, #60]	; 0x3c
  hspi->TxXferCount = 0U;
 80065da:	68fb      	ldr	r3, [r7, #12]
 80065dc:	2200      	movs	r2, #0
 80065de:	87da      	strh	r2, [r3, #62]	; 0x3e
  hspi->RxISR       = NULL;
 80065e0:	68fb      	ldr	r3, [r7, #12]
 80065e2:	2200      	movs	r2, #0
 80065e4:	64da      	str	r2, [r3, #76]	; 0x4c
  hspi->TxISR       = NULL;
 80065e6:	68fb      	ldr	r3, [r7, #12]
 80065e8:	2200      	movs	r2, #0
 80065ea:	651a      	str	r2, [r3, #80]	; 0x50
    hspi->RxXferCount--;
  }
#endif /* USE_SPI_CRC */

  /* Set the Rx Fifo threshold */
  if (hspi->Init.DataSize > SPI_DATASIZE_8BIT)
 80065ec:	68fb      	ldr	r3, [r7, #12]
 80065ee:	68db      	ldr	r3, [r3, #12]
 80065f0:	f5b3 6fe0 	cmp.w	r3, #1792	; 0x700
 80065f4:	d908      	bls.n	8006608 <HAL_SPI_Receive+0xe2>
  {
    /* Set RX Fifo threshold according the reception data length: 16bit */
    CLEAR_BIT(hspi->Instance->CR2, SPI_RXFIFO_THRESHOLD);
 80065f6:	68fb      	ldr	r3, [r7, #12]
 80065f8:	681b      	ldr	r3, [r3, #0]
 80065fa:	685a      	ldr	r2, [r3, #4]
 80065fc:	68fb      	ldr	r3, [r7, #12]
 80065fe:	681b      	ldr	r3, [r3, #0]
 8006600:	f422 5280 	bic.w	r2, r2, #4096	; 0x1000
 8006604:	605a      	str	r2, [r3, #4]
 8006606:	e007      	b.n	8006618 <HAL_SPI_Receive+0xf2>
  }
  else
  {
    /* Set RX Fifo threshold according the reception data length: 8bit */
    SET_BIT(hspi->Instance->CR2, SPI_RXFIFO_THRESHOLD);
 8006608:	68fb      	ldr	r3, [r7, #12]
 800660a:	681b      	ldr	r3, [r3, #0]
 800660c:	685a      	ldr	r2, [r3, #4]
 800660e:	68fb      	ldr	r3, [r7, #12]
 8006610:	681b      	ldr	r3, [r3, #0]
 8006612:	f442 5280 	orr.w	r2, r2, #4096	; 0x1000
 8006616:	605a      	str	r2, [r3, #4]
  }

  /* Configure communication direction: 1Line */
  if (hspi->Init.Direction == SPI_DIRECTION_1LINE)
 8006618:	68fb      	ldr	r3, [r7, #12]
 800661a:	689b      	ldr	r3, [r3, #8]
 800661c:	f5b3 4f00 	cmp.w	r3, #32768	; 0x8000
 8006620:	d10f      	bne.n	8006642 <HAL_SPI_Receive+0x11c>
  {
    /* Disable SPI Peripheral before set 1Line direction (BIDIOE bit) */
    __HAL_SPI_DISABLE(hspi);
 8006622:	68fb      	ldr	r3, [r7, #12]
 8006624:	681b      	ldr	r3, [r3, #0]
 8006626:	681a      	ldr	r2, [r3, #0]
 8006628:	68fb      	ldr	r3, [r7, #12]
 800662a:	681b      	ldr	r3, [r3, #0]
 800662c:	f022 0240 	bic.w	r2, r2, #64	; 0x40
 8006630:	601a      	str	r2, [r3, #0]
    SPI_1LINE_RX(hspi);
 8006632:	68fb      	ldr	r3, [r7, #12]
 8006634:	681b      	ldr	r3, [r3, #0]
 8006636:	681a      	ldr	r2, [r3, #0]
 8006638:	68fb      	ldr	r3, [r7, #12]
 800663a:	681b      	ldr	r3, [r3, #0]
 800663c:	f422 4280 	bic.w	r2, r2, #16384	; 0x4000
 8006640:	601a      	str	r2, [r3, #0]
  }

  /* Check if the SPI is already enabled */
  if ((hspi->Instance->CR1 & SPI_CR1_SPE) != SPI_CR1_SPE)
 8006642:	68fb      	ldr	r3, [r7, #12]
 8006644:	681b      	ldr	r3, [r3, #0]
 8006646:	681b      	ldr	r3, [r3, #0]
 8006648:	f003 0340 	and.w	r3, r3, #64	; 0x40
 800664c:	2b40      	cmp	r3, #64	; 0x40
 800664e:	d007      	beq.n	8006660 <HAL_SPI_Receive+0x13a>
  {
    /* Enable SPI peripheral */
    __HAL_SPI_ENABLE(hspi);
 8006650:	68fb      	ldr	r3, [r7, #12]
 8006652:	681b      	ldr	r3, [r3, #0]
 8006654:	681a      	ldr	r2, [r3, #0]
 8006656:	68fb      	ldr	r3, [r7, #12]
 8006658:	681b      	ldr	r3, [r3, #0]
 800665a:	f042 0240 	orr.w	r2, r2, #64	; 0x40
 800665e:	601a      	str	r2, [r3, #0]
  }

  /* Receive data in 8 Bit mode */
  if (hspi->Init.DataSize <= SPI_DATASIZE_8BIT)
 8006660:	68fb      	ldr	r3, [r7, #12]
 8006662:	68db      	ldr	r3, [r3, #12]
 8006664:	f5b3 6fe0 	cmp.w	r3, #1792	; 0x700
 8006668:	d867      	bhi.n	800673a <HAL_SPI_Receive+0x214>
  {
    /* Transfer loop */
    while (hspi->RxXferCount > 0U)
 800666a:	e030      	b.n	80066ce <HAL_SPI_Receive+0x1a8>
    {
      /* Check the RXNE flag */
      if (__HAL_SPI_GET_FLAG(hspi, SPI_FLAG_RXNE))
 800666c:	68fb      	ldr	r3, [r7, #12]
 800666e:	681b      	ldr	r3, [r3, #0]
 8006670:	689b      	ldr	r3, [r3, #8]
 8006672:	f003 0301 	and.w	r3, r3, #1
 8006676:	2b01      	cmp	r3, #1
 8006678:	d117      	bne.n	80066aa <HAL_SPI_Receive+0x184>
      {
        /* read the received data */
        (* (uint8_t *)hspi->pRxBuffPtr) = *(__IO uint8_t *)&hspi->Instance->DR;
 800667a:	68fb      	ldr	r3, [r7, #12]
 800667c:	681b      	ldr	r3, [r3, #0]
 800667e:	f103 020c 	add.w	r2, r3, #12
 8006682:	68fb      	ldr	r3, [r7, #12]
 8006684:	6c1b      	ldr	r3, [r3, #64]	; 0x40
 8006686:	7812      	ldrb	r2, [r2, #0]
 8006688:	b2d2      	uxtb	r2, r2
 800668a:	701a      	strb	r2, [r3, #0]
        hspi->pRxBuffPtr += sizeof(uint8_t);
 800668c:	68fb      	ldr	r3, [r7, #12]
 800668e:	6c1b      	ldr	r3, [r3, #64]	; 0x40
 8006690:	1c5a      	adds	r2, r3, #1
 8006692:	68fb      	ldr	r3, [r7, #12]
 8006694:	641a      	str	r2, [r3, #64]	; 0x40
        hspi->RxXferCount--;
 8006696:	68fb      	ldr	r3, [r7, #12]
 8006698:	f8b3 3046 	ldrh.w	r3, [r3, #70]	; 0x46
 800669c:	b29b      	uxth	r3, r3
 800669e:	3b01      	subs	r3, #1
 80066a0:	b29a      	uxth	r2, r3
 80066a2:	68fb      	ldr	r3, [r7, #12]
 80066a4:	f8a3 2046 	strh.w	r2, [r3, #70]	; 0x46
 80066a8:	e011      	b.n	80066ce <HAL_SPI_Receive+0x1a8>
      }
      else
      {
        /* Timeout management */
        if ((((HAL_GetTick() - tickstart) >=  Timeout) && (Timeout != HAL_MAX_DELAY)) || (Timeout == 0U))
 80066aa:	f7fd f9fb 	bl	8003aa4 <HAL_GetTick>
 80066ae:	4602      	mov	r2, r0
 80066b0:	693b      	ldr	r3, [r7, #16]
 80066b2:	1ad3      	subs	r3, r2, r3
 80066b4:	683a      	ldr	r2, [r7, #0]
 80066b6:	429a      	cmp	r2, r3
 80066b8:	d803      	bhi.n	80066c2 <HAL_SPI_Receive+0x19c>
 80066ba:	683b      	ldr	r3, [r7, #0]
 80066bc:	f1b3 3fff 	cmp.w	r3, #4294967295
 80066c0:	d102      	bne.n	80066c8 <HAL_SPI_Receive+0x1a2>
 80066c2:	683b      	ldr	r3, [r7, #0]
 80066c4:	2b00      	cmp	r3, #0
 80066c6:	d102      	bne.n	80066ce <HAL_SPI_Receive+0x1a8>
        {
          errorcode = HAL_TIMEOUT;
 80066c8:	2303      	movs	r3, #3
 80066ca:	75fb      	strb	r3, [r7, #23]
          goto error;
 80066cc:	e04e      	b.n	800676c <HAL_SPI_Receive+0x246>
    while (hspi->RxXferCount > 0U)
 80066ce:	68fb      	ldr	r3, [r7, #12]
 80066d0:	f8b3 3046 	ldrh.w	r3, [r3, #70]	; 0x46
 80066d4:	b29b      	uxth	r3, r3
 80066d6:	2b00      	cmp	r3, #0
 80066d8:	d1c8      	bne.n	800666c <HAL_SPI_Receive+0x146>
 80066da:	e034      	b.n	8006746 <HAL_SPI_Receive+0x220>
  {
    /* Transfer loop */
    while (hspi->RxXferCount > 0U)
    {
      /* Check the RXNE flag */
      if (__HAL_SPI_GET_FLAG(hspi, SPI_FLAG_RXNE))
 80066dc:	68fb      	ldr	r3, [r7, #12]
 80066de:	681b      	ldr	r3, [r3, #0]
 80066e0:	689b      	ldr	r3, [r3, #8]
 80066e2:	f003 0301 	and.w	r3, r3, #1
 80066e6:	2b01      	cmp	r3, #1
 80066e8:	d115      	bne.n	8006716 <HAL_SPI_Receive+0x1f0>
      {
        *((uint16_t *)hspi->pRxBuffPtr) = (uint16_t)hspi->Instance->DR;
 80066ea:	68fb      	ldr	r3, [r7, #12]
 80066ec:	681b      	ldr	r3, [r3, #0]
 80066ee:	68da      	ldr	r2, [r3, #12]
 80066f0:	68fb      	ldr	r3, [r7, #12]
 80066f2:	6c1b      	ldr	r3, [r3, #64]	; 0x40
 80066f4:	b292      	uxth	r2, r2
 80066f6:	801a      	strh	r2, [r3, #0]
        hspi->pRxBuffPtr += sizeof(uint16_t);
 80066f8:	68fb      	ldr	r3, [r7, #12]
 80066fa:	6c1b      	ldr	r3, [r3, #64]	; 0x40
 80066fc:	1c9a      	adds	r2, r3, #2
 80066fe:	68fb      	ldr	r3, [r7, #12]
 8006700:	641a      	str	r2, [r3, #64]	; 0x40
        hspi->RxXferCount--;
 8006702:	68fb      	ldr	r3, [r7, #12]
 8006704:	f8b3 3046 	ldrh.w	r3, [r3, #70]	; 0x46
 8006708:	b29b      	uxth	r3, r3
 800670a:	3b01      	subs	r3, #1
 800670c:	b29a      	uxth	r2, r3
 800670e:	68fb      	ldr	r3, [r7, #12]
 8006710:	f8a3 2046 	strh.w	r2, [r3, #70]	; 0x46
 8006714:	e011      	b.n	800673a <HAL_SPI_Receive+0x214>
      }
      else
      {
        /* Timeout management */
        if ((((HAL_GetTick() - tickstart) >=  Timeout) && (Timeout != HAL_MAX_DELAY)) || (Timeout == 0U))
 8006716:	f7fd f9c5 	bl	8003aa4 <HAL_GetTick>
 800671a:	4602      	mov	r2, r0
 800671c:	693b      	ldr	r3, [r7, #16]
 800671e:	1ad3      	subs	r3, r2, r3
 8006720:	683a      	ldr	r2, [r7, #0]
 8006722:	429a      	cmp	r2, r3
 8006724:	d803      	bhi.n	800672e <HAL_SPI_Receive+0x208>
 8006726:	683b      	ldr	r3, [r7, #0]
 8006728:	f1b3 3fff 	cmp.w	r3, #4294967295
 800672c:	d102      	bne.n	8006734 <HAL_SPI_Receive+0x20e>
 800672e:	683b      	ldr	r3, [r7, #0]
 8006730:	2b00      	cmp	r3, #0
 8006732:	d102      	bne.n	800673a <HAL_SPI_Receive+0x214>
        {
          errorcode = HAL_TIMEOUT;
 8006734:	2303      	movs	r3, #3
 8006736:	75fb      	strb	r3, [r7, #23]
          goto error;
 8006738:	e018      	b.n	800676c <HAL_SPI_Receive+0x246>
    while (hspi->RxXferCount > 0U)
 800673a:	68fb      	ldr	r3, [r7, #12]
 800673c:	f8b3 3046 	ldrh.w	r3, [r3, #70]	; 0x46
 8006740:	b29b      	uxth	r3, r3
 8006742:	2b00      	cmp	r3, #0
 8006744:	d1ca      	bne.n	80066dc <HAL_SPI_Receive+0x1b6>
    }
  }
#endif /* USE_SPI_CRC */

  /* Check the end of the transaction */
  if (SPI_EndRxTransaction(hspi, Timeout, tickstart) != HAL_OK)
 8006746:	693a      	ldr	r2, [r7, #16]
 8006748:	6839      	ldr	r1, [r7, #0]
 800674a:	68f8      	ldr	r0, [r7, #12]
 800674c:	f000 fb4c 	bl	8006de8 <SPI_EndRxTransaction>
 8006750:	4603      	mov	r3, r0
 8006752:	2b00      	cmp	r3, #0
 8006754:	d002      	beq.n	800675c <HAL_SPI_Receive+0x236>
  {
    hspi->ErrorCode = HAL_SPI_ERROR_FLAG;
 8006756:	68fb      	ldr	r3, [r7, #12]
 8006758:	2220      	movs	r2, #32
 800675a:	661a      	str	r2, [r3, #96]	; 0x60
    SET_BIT(hspi->ErrorCode, HAL_SPI_ERROR_CRC);
    __HAL_SPI_CLEAR_CRCERRFLAG(hspi);
  }
#endif /* USE_SPI_CRC */

  if (hspi->ErrorCode != HAL_SPI_ERROR_NONE)
 800675c:	68fb      	ldr	r3, [r7, #12]
 800675e:	6e1b      	ldr	r3, [r3, #96]	; 0x60
 8006760:	2b00      	cmp	r3, #0
 8006762:	d002      	beq.n	800676a <HAL_SPI_Receive+0x244>
  {
    errorcode = HAL_ERROR;
 8006764:	2301      	movs	r3, #1
 8006766:	75fb      	strb	r3, [r7, #23]
 8006768:	e000      	b.n	800676c <HAL_SPI_Receive+0x246>
  }

error :
 800676a:	bf00      	nop
  hspi->State = HAL_SPI_STATE_READY;
 800676c:	68fb      	ldr	r3, [r7, #12]
 800676e:	2201      	movs	r2, #1
 8006770:	f883 205d 	strb.w	r2, [r3, #93]	; 0x5d
  __HAL_UNLOCK(hspi);
 8006774:	68fb      	ldr	r3, [r7, #12]
 8006776:	2200      	movs	r2, #0
 8006778:	f883 205c 	strb.w	r2, [r3, #92]	; 0x5c
  return errorcode;
 800677c:	7dfb      	ldrb	r3, [r7, #23]
}
 800677e:	4618      	mov	r0, r3
 8006780:	3718      	adds	r7, #24
 8006782:	46bd      	mov	sp, r7
 8006784:	bd80      	pop	{r7, pc}

08006786 <HAL_SPI_TransmitReceive>:
  * @param  Timeout Timeout duration
  * @retval HAL status
  */
HAL_StatusTypeDef HAL_SPI_TransmitReceive(SPI_HandleTypeDef *hspi, uint8_t *pTxData, uint8_t *pRxData, uint16_t Size,
                                          uint32_t Timeout)
{
 8006786:	b580      	push	{r7, lr}
 8006788:	b08a      	sub	sp, #40	; 0x28
 800678a:	af00      	add	r7, sp, #0
 800678c:	60f8      	str	r0, [r7, #12]
 800678e:	60b9      	str	r1, [r7, #8]
 8006790:	607a      	str	r2, [r7, #4]
 8006792:	807b      	strh	r3, [r7, #2]
  __IO uint8_t  * ptmpreg8;
  __IO uint8_t  tmpreg8 = 0;
#endif /* USE_SPI_CRC */

  /* Variable used to alternate Rx and Tx during transfer */
  uint32_t             txallowed = 1U;
 8006794:	2301      	movs	r3, #1
 8006796:	627b      	str	r3, [r7, #36]	; 0x24
  HAL_StatusTypeDef    errorcode = HAL_OK;
 8006798:	2300      	movs	r3, #0
 800679a:	f887 3023 	strb.w	r3, [r7, #35]	; 0x23

  /* Check Direction parameter */
  assert_param(IS_SPI_DIRECTION_2LINES(hspi->Init.Direction));

  /* Process Locked */
  __HAL_LOCK(hspi);
 800679e:	68fb      	ldr	r3, [r7, #12]
 80067a0:	f893 305c 	ldrb.w	r3, [r3, #92]	; 0x5c
 80067a4:	2b01      	cmp	r3, #1
 80067a6:	d101      	bne.n	80067ac <HAL_SPI_TransmitReceive+0x26>
 80067a8:	2302      	movs	r3, #2
 80067aa:	e1fb      	b.n	8006ba4 <HAL_SPI_TransmitReceive+0x41e>
 80067ac:	68fb      	ldr	r3, [r7, #12]
 80067ae:	2201      	movs	r2, #1
 80067b0:	f883 205c 	strb.w	r2, [r3, #92]	; 0x5c

  /* Init tickstart for timeout management*/
  tickstart = HAL_GetTick();
 80067b4:	f7fd f976 	bl	8003aa4 <HAL_GetTick>
 80067b8:	61f8      	str	r0, [r7, #28]

  /* Init temporary variables */
  tmp_state           = hspi->State;
 80067ba:	68fb      	ldr	r3, [r7, #12]
 80067bc:	f893 305d 	ldrb.w	r3, [r3, #93]	; 0x5d
 80067c0:	76fb      	strb	r3, [r7, #27]
  tmp_mode            = hspi->Init.Mode;
 80067c2:	68fb      	ldr	r3, [r7, #12]
 80067c4:	685b      	ldr	r3, [r3, #4]
 80067c6:	617b      	str	r3, [r7, #20]
  initial_TxXferCount = Size;
 80067c8:	887b      	ldrh	r3, [r7, #2]
 80067ca:	827b      	strh	r3, [r7, #18]
  initial_RxXferCount = Size;
 80067cc:	887b      	ldrh	r3, [r7, #2]
 80067ce:	823b      	strh	r3, [r7, #16]
#if (USE_SPI_CRC != 0U)
  spi_cr1             = READ_REG(hspi->Instance->CR1);
  spi_cr2             = READ_REG(hspi->Instance->CR2);
#endif /* USE_SPI_CRC */

  if (!((tmp_state == HAL_SPI_STATE_READY) || \
 80067d0:	7efb      	ldrb	r3, [r7, #27]
 80067d2:	2b01      	cmp	r3, #1
 80067d4:	d00e      	beq.n	80067f4 <HAL_SPI_TransmitReceive+0x6e>
 80067d6:	697b      	ldr	r3, [r7, #20]
 80067d8:	f5b3 7f82 	cmp.w	r3, #260	; 0x104
 80067dc:	d106      	bne.n	80067ec <HAL_SPI_TransmitReceive+0x66>
        ((tmp_mode == SPI_MODE_MASTER) && (hspi->Init.Direction == SPI_DIRECTION_2LINES) && (tmp_state == HAL_SPI_STATE_BUSY_RX))))
 80067de:	68fb      	ldr	r3, [r7, #12]
 80067e0:	689b      	ldr	r3, [r3, #8]
 80067e2:	2b00      	cmp	r3, #0
 80067e4:	d102      	bne.n	80067ec <HAL_SPI_TransmitReceive+0x66>
 80067e6:	7efb      	ldrb	r3, [r7, #27]
 80067e8:	2b04      	cmp	r3, #4
 80067ea:	d003      	beq.n	80067f4 <HAL_SPI_TransmitReceive+0x6e>
  {
    errorcode = HAL_BUSY;
 80067ec:	2302      	movs	r3, #2
 80067ee:	f887 3023 	strb.w	r3, [r7, #35]	; 0x23
    goto error;
 80067f2:	e1cd      	b.n	8006b90 <HAL_SPI_TransmitReceive+0x40a>
  }

  if ((pTxData == NULL) || (pRxData == NULL) || (Size == 0U))
 80067f4:	68bb      	ldr	r3, [r7, #8]
 80067f6:	2b00      	cmp	r3, #0
 80067f8:	d005      	beq.n	8006806 <HAL_SPI_TransmitReceive+0x80>
 80067fa:	687b      	ldr	r3, [r7, #4]
 80067fc:	2b00      	cmp	r3, #0
 80067fe:	d002      	beq.n	8006806 <HAL_SPI_TransmitReceive+0x80>
 8006800:	887b      	ldrh	r3, [r7, #2]
 8006802:	2b00      	cmp	r3, #0
 8006804:	d103      	bne.n	800680e <HAL_SPI_TransmitReceive+0x88>
  {
    errorcode = HAL_ERROR;
 8006806:	2301      	movs	r3, #1
 8006808:	f887 3023 	strb.w	r3, [r7, #35]	; 0x23
    goto error;
 800680c:	e1c0      	b.n	8006b90 <HAL_SPI_TransmitReceive+0x40a>
  }

  /* Don't overwrite in case of HAL_SPI_STATE_BUSY_RX */
  if (hspi->State != HAL_SPI_STATE_BUSY_RX)
 800680e:	68fb      	ldr	r3, [r7, #12]
 8006810:	f893 305d 	ldrb.w	r3, [r3, #93]	; 0x5d
 8006814:	b2db      	uxtb	r3, r3
 8006816:	2b04      	cmp	r3, #4
 8006818:	d003      	beq.n	8006822 <HAL_SPI_TransmitReceive+0x9c>
  {
    hspi->State = HAL_SPI_STATE_BUSY_TX_RX;
 800681a:	68fb      	ldr	r3, [r7, #12]
 800681c:	2205      	movs	r2, #5
 800681e:	f883 205d 	strb.w	r2, [r3, #93]	; 0x5d
  }

  /* Set the transaction information */
  hspi->ErrorCode   = HAL_SPI_ERROR_NONE;
 8006822:	68fb      	ldr	r3, [r7, #12]
 8006824:	2200      	movs	r2, #0
 8006826:	661a      	str	r2, [r3, #96]	; 0x60
  hspi->pRxBuffPtr  = (uint8_t *)pRxData;
 8006828:	68fb      	ldr	r3, [r7, #12]
 800682a:	687a      	ldr	r2, [r7, #4]
 800682c:	641a      	str	r2, [r3, #64]	; 0x40
  hspi->RxXferCount = Size;
 800682e:	68fb      	ldr	r3, [r7, #12]
 8006830:	887a      	ldrh	r2, [r7, #2]
 8006832:	f8a3 2046 	strh.w	r2, [r3, #70]	; 0x46
  hspi->RxXferSize  = Size;
 8006836:	68fb      	ldr	r3, [r7, #12]
 8006838:	887a      	ldrh	r2, [r7, #2]
 800683a:	f8a3 2044 	strh.w	r2, [r3, #68]	; 0x44
  hspi->pTxBuffPtr  = (uint8_t *)pTxData;
 800683e:	68fb      	ldr	r3, [r7, #12]
 8006840:	68ba      	ldr	r2, [r7, #8]
 8006842:	639a      	str	r2, [r3, #56]	; 0x38
  hspi->TxXferCount = Size;
 8006844:	68fb      	ldr	r3, [r7, #12]
 8006846:	887a      	ldrh	r2, [r7, #2]
 8006848:	87da      	strh	r2, [r3, #62]	; 0x3e
  hspi->TxXferSize  = Size;
 800684a:	68fb      	ldr	r3, [r7, #12]
 800684c:	887a      	ldrh	r2, [r7, #2]
 800684e:	879a      	strh	r2, [r3, #60]	; 0x3c

  /*Init field not used in handle to zero */
  hspi->RxISR       = NULL;
 8006850:	68fb      	ldr	r3, [r7, #12]
 8006852:	2200      	movs	r2, #0
 8006854:	64da      	str	r2, [r3, #76]	; 0x4c
  hspi->TxISR       = NULL;
 8006856:	68fb      	ldr	r3, [r7, #12]
 8006858:	2200      	movs	r2, #0
 800685a:	651a      	str	r2, [r3, #80]	; 0x50
    SPI_RESET_CRC(hspi);
  }
#endif /* USE_SPI_CRC */

  /* Set the Rx Fifo threshold */
  if ((hspi->Init.DataSize > SPI_DATASIZE_8BIT) || (initial_RxXferCount > 1U))
 800685c:	68fb      	ldr	r3, [r7, #12]
 800685e:	68db      	ldr	r3, [r3, #12]
 8006860:	f5b3 6fe0 	cmp.w	r3, #1792	; 0x700
 8006864:	d802      	bhi.n	800686c <HAL_SPI_TransmitReceive+0xe6>
 8006866:	8a3b      	ldrh	r3, [r7, #16]
 8006868:	2b01      	cmp	r3, #1
 800686a:	d908      	bls.n	800687e <HAL_SPI_TransmitReceive+0xf8>
  {
    /* Set fiforxthreshold according the reception data length: 16bit */
    CLEAR_BIT(hspi->Instance->CR2, SPI_RXFIFO_THRESHOLD);
 800686c:	68fb      	ldr	r3, [r7, #12]
 800686e:	681b      	ldr	r3, [r3, #0]
 8006870:	685a      	ldr	r2, [r3, #4]
 8006872:	68fb      	ldr	r3, [r7, #12]
 8006874:	681b      	ldr	r3, [r3, #0]
 8006876:	f422 5280 	bic.w	r2, r2, #4096	; 0x1000
 800687a:	605a      	str	r2, [r3, #4]
 800687c:	e007      	b.n	800688e <HAL_SPI_TransmitReceive+0x108>
  }
  else
  {
    /* Set fiforxthreshold according the reception data length: 8bit */
    SET_BIT(hspi->Instance->CR2, SPI_RXFIFO_THRESHOLD);
 800687e:	68fb      	ldr	r3, [r7, #12]
 8006880:	681b      	ldr	r3, [r3, #0]
 8006882:	685a      	ldr	r2, [r3, #4]
 8006884:	68fb      	ldr	r3, [r7, #12]
 8006886:	681b      	ldr	r3, [r3, #0]
 8006888:	f442 5280 	orr.w	r2, r2, #4096	; 0x1000
 800688c:	605a      	str	r2, [r3, #4]
  }

  /* Check if the SPI is already enabled */
  if ((hspi->Instance->CR1 & SPI_CR1_SPE) != SPI_CR1_SPE)
 800688e:	68fb      	ldr	r3, [r7, #12]
 8006890:	681b      	ldr	r3, [r3, #0]
 8006892:	681b      	ldr	r3, [r3, #0]
 8006894:	f003 0340 	and.w	r3, r3, #64	; 0x40
 8006898:	2b40      	cmp	r3, #64	; 0x40
 800689a:	d007      	beq.n	80068ac <HAL_SPI_TransmitReceive+0x126>
  {
    /* Enable SPI peripheral */
    __HAL_SPI_ENABLE(hspi);
 800689c:	68fb      	ldr	r3, [r7, #12]
 800689e:	681b      	ldr	r3, [r3, #0]
 80068a0:	681a      	ldr	r2, [r3, #0]
 80068a2:	68fb      	ldr	r3, [r7, #12]
 80068a4:	681b      	ldr	r3, [r3, #0]
 80068a6:	f042 0240 	orr.w	r2, r2, #64	; 0x40
 80068aa:	601a      	str	r2, [r3, #0]
  }

  /* Transmit and Receive data in 16 Bit mode */
  if (hspi->Init.DataSize > SPI_DATASIZE_8BIT)
 80068ac:	68fb      	ldr	r3, [r7, #12]
 80068ae:	68db      	ldr	r3, [r3, #12]
 80068b0:	f5b3 6fe0 	cmp.w	r3, #1792	; 0x700
 80068b4:	d97c      	bls.n	80069b0 <HAL_SPI_TransmitReceive+0x22a>
  {
    if ((hspi->Init.Mode == SPI_MODE_SLAVE) || (initial_TxXferCount == 0x01U))
 80068b6:	68fb      	ldr	r3, [r7, #12]
 80068b8:	685b      	ldr	r3, [r3, #4]
 80068ba:	2b00      	cmp	r3, #0
 80068bc:	d002      	beq.n	80068c4 <HAL_SPI_TransmitReceive+0x13e>
 80068be:	8a7b      	ldrh	r3, [r7, #18]
 80068c0:	2b01      	cmp	r3, #1
 80068c2:	d169      	bne.n	8006998 <HAL_SPI_TransmitReceive+0x212>
    {
      hspi->Instance->DR = *((uint16_t *)hspi->pTxBuffPtr);
 80068c4:	68fb      	ldr	r3, [r7, #12]
 80068c6:	6b9b      	ldr	r3, [r3, #56]	; 0x38
 80068c8:	881a      	ldrh	r2, [r3, #0]
 80068ca:	68fb      	ldr	r3, [r7, #12]
 80068cc:	681b      	ldr	r3, [r3, #0]
 80068ce:	60da      	str	r2, [r3, #12]
      hspi->pTxBuffPtr += sizeof(uint16_t);
 80068d0:	68fb      	ldr	r3, [r7, #12]
 80068d2:	6b9b      	ldr	r3, [r3, #56]	; 0x38
 80068d4:	1c9a      	adds	r2, r3, #2
 80068d6:	68fb      	ldr	r3, [r7, #12]
 80068d8:	639a      	str	r2, [r3, #56]	; 0x38
      hspi->TxXferCount--;
 80068da:	68fb      	ldr	r3, [r7, #12]
 80068dc:	8fdb      	ldrh	r3, [r3, #62]	; 0x3e
 80068de:	b29b      	uxth	r3, r3
 80068e0:	3b01      	subs	r3, #1
 80068e2:	b29a      	uxth	r2, r3
 80068e4:	68fb      	ldr	r3, [r7, #12]
 80068e6:	87da      	strh	r2, [r3, #62]	; 0x3e
    }
    while ((hspi->TxXferCount > 0U) || (hspi->RxXferCount > 0U))
 80068e8:	e056      	b.n	8006998 <HAL_SPI_TransmitReceive+0x212>
    {
      /* Check TXE flag */
      if ((__HAL_SPI_GET_FLAG(hspi, SPI_FLAG_TXE)) && (hspi->TxXferCount > 0U) && (txallowed == 1U))
 80068ea:	68fb      	ldr	r3, [r7, #12]
 80068ec:	681b      	ldr	r3, [r3, #0]
 80068ee:	689b      	ldr	r3, [r3, #8]
 80068f0:	f003 0302 	and.w	r3, r3, #2
 80068f4:	2b02      	cmp	r3, #2
 80068f6:	d11b      	bne.n	8006930 <HAL_SPI_TransmitReceive+0x1aa>
 80068f8:	68fb      	ldr	r3, [r7, #12]
 80068fa:	8fdb      	ldrh	r3, [r3, #62]	; 0x3e
 80068fc:	b29b      	uxth	r3, r3
 80068fe:	2b00      	cmp	r3, #0
 8006900:	d016      	beq.n	8006930 <HAL_SPI_TransmitReceive+0x1aa>
 8006902:	6a7b      	ldr	r3, [r7, #36]	; 0x24
 8006904:	2b01      	cmp	r3, #1
 8006906:	d113      	bne.n	8006930 <HAL_SPI_TransmitReceive+0x1aa>
      {
        hspi->Instance->DR = *((uint16_t *)hspi->pTxBuffPtr);
 8006908:	68fb      	ldr	r3, [r7, #12]
 800690a:	6b9b      	ldr	r3, [r3, #56]	; 0x38
 800690c:	881a      	ldrh	r2, [r3, #0]
 800690e:	68fb      	ldr	r3, [r7, #12]
 8006910:	681b      	ldr	r3, [r3, #0]
 8006912:	60da      	str	r2, [r3, #12]
        hspi->pTxBuffPtr += sizeof(uint16_t);
 8006914:	68fb      	ldr	r3, [r7, #12]
 8006916:	6b9b      	ldr	r3, [r3, #56]	; 0x38
 8006918:	1c9a      	adds	r2, r3, #2
 800691a:	68fb      	ldr	r3, [r7, #12]
 800691c:	639a      	str	r2, [r3, #56]	; 0x38
        hspi->TxXferCount--;
 800691e:	68fb      	ldr	r3, [r7, #12]
 8006920:	8fdb      	ldrh	r3, [r3, #62]	; 0x3e
 8006922:	b29b      	uxth	r3, r3
 8006924:	3b01      	subs	r3, #1
 8006926:	b29a      	uxth	r2, r3
 8006928:	68fb      	ldr	r3, [r7, #12]
 800692a:	87da      	strh	r2, [r3, #62]	; 0x3e
        /* Next Data is a reception (Rx). Tx not allowed */
        txallowed = 0U;
 800692c:	2300      	movs	r3, #0
 800692e:	627b      	str	r3, [r7, #36]	; 0x24
        }
#endif /* USE_SPI_CRC */
      }

      /* Check RXNE flag */
      if ((__HAL_SPI_GET_FLAG(hspi, SPI_FLAG_RXNE)) && (hspi->RxXferCount > 0U))
 8006930:	68fb      	ldr	r3, [r7, #12]
 8006932:	681b      	ldr	r3, [r3, #0]
 8006934:	689b      	ldr	r3, [r3, #8]
 8006936:	f003 0301 	and.w	r3, r3, #1
 800693a:	2b01      	cmp	r3, #1
 800693c:	d11c      	bne.n	8006978 <HAL_SPI_TransmitReceive+0x1f2>
 800693e:	68fb      	ldr	r3, [r7, #12]
 8006940:	f8b3 3046 	ldrh.w	r3, [r3, #70]	; 0x46
 8006944:	b29b      	uxth	r3, r3
 8006946:	2b00      	cmp	r3, #0
 8006948:	d016      	beq.n	8006978 <HAL_SPI_TransmitReceive+0x1f2>
      {
        *((uint16_t *)hspi->pRxBuffPtr) = (uint16_t)hspi->Instance->DR;
 800694a:	68fb      	ldr	r3, [r7, #12]
 800694c:	681b      	ldr	r3, [r3, #0]
 800694e:	68da      	ldr	r2, [r3, #12]
 8006950:	68fb      	ldr	r3, [r7, #12]
 8006952:	6c1b      	ldr	r3, [r3, #64]	; 0x40
 8006954:	b292      	uxth	r2, r2
 8006956:	801a      	strh	r2, [r3, #0]
        hspi->pRxBuffPtr += sizeof(uint16_t);
 8006958:	68fb      	ldr	r3, [r7, #12]
 800695a:	6c1b      	ldr	r3, [r3, #64]	; 0x40
 800695c:	1c9a      	adds	r2, r3, #2
 800695e:	68fb      	ldr	r3, [r7, #12]
 8006960:	641a      	str	r2, [r3, #64]	; 0x40
        hspi->RxXferCount--;
 8006962:	68fb      	ldr	r3, [r7, #12]
 8006964:	f8b3 3046 	ldrh.w	r3, [r3, #70]	; 0x46
 8006968:	b29b      	uxth	r3, r3
 800696a:	3b01      	subs	r3, #1
 800696c:	b29a      	uxth	r2, r3
 800696e:	68fb      	ldr	r3, [r7, #12]
 8006970:	f8a3 2046 	strh.w	r2, [r3, #70]	; 0x46
        /* Next Data is a Transmission (Tx). Tx is allowed */
        txallowed = 1U;
 8006974:	2301      	movs	r3, #1
 8006976:	627b      	str	r3, [r7, #36]	; 0x24
      }
      if (((HAL_GetTick() - tickstart) >=  Timeout) && (Timeout != HAL_MAX_DELAY))
 8006978:	f7fd f894 	bl	8003aa4 <HAL_GetTick>
 800697c:	4602      	mov	r2, r0
 800697e:	69fb      	ldr	r3, [r7, #28]
 8006980:	1ad3      	subs	r3, r2, r3
 8006982:	6b3a      	ldr	r2, [r7, #48]	; 0x30
 8006984:	429a      	cmp	r2, r3
 8006986:	d807      	bhi.n	8006998 <HAL_SPI_TransmitReceive+0x212>
 8006988:	6b3b      	ldr	r3, [r7, #48]	; 0x30
 800698a:	f1b3 3fff 	cmp.w	r3, #4294967295
 800698e:	d003      	beq.n	8006998 <HAL_SPI_TransmitReceive+0x212>
      {
        errorcode = HAL_TIMEOUT;
 8006990:	2303      	movs	r3, #3
 8006992:	f887 3023 	strb.w	r3, [r7, #35]	; 0x23
        goto error;
 8006996:	e0fb      	b.n	8006b90 <HAL_SPI_TransmitReceive+0x40a>
    while ((hspi->TxXferCount > 0U) || (hspi->RxXferCount > 0U))
 8006998:	68fb      	ldr	r3, [r7, #12]
 800699a:	8fdb      	ldrh	r3, [r3, #62]	; 0x3e
 800699c:	b29b      	uxth	r3, r3
 800699e:	2b00      	cmp	r3, #0
 80069a0:	d1a3      	bne.n	80068ea <HAL_SPI_TransmitReceive+0x164>
 80069a2:	68fb      	ldr	r3, [r7, #12]
 80069a4:	f8b3 3046 	ldrh.w	r3, [r3, #70]	; 0x46
 80069a8:	b29b      	uxth	r3, r3
 80069aa:	2b00      	cmp	r3, #0
 80069ac:	d19d      	bne.n	80068ea <HAL_SPI_TransmitReceive+0x164>
 80069ae:	e0df      	b.n	8006b70 <HAL_SPI_TransmitReceive+0x3ea>
    }
  }
  /* Transmit and Receive data in 8 Bit mode */
  else
  {
    if ((hspi->Init.Mode == SPI_MODE_SLAVE) || (initial_TxXferCount == 0x01U))
 80069b0:	68fb      	ldr	r3, [r7, #12]
 80069b2:	685b      	ldr	r3, [r3, #4]
 80069b4:	2b00      	cmp	r3, #0
 80069b6:	d003      	beq.n	80069c0 <HAL_SPI_TransmitReceive+0x23a>
 80069b8:	8a7b      	ldrh	r3, [r7, #18]
 80069ba:	2b01      	cmp	r3, #1
 80069bc:	f040 80cb 	bne.w	8006b56 <HAL_SPI_TransmitReceive+0x3d0>
    {
      if (hspi->TxXferCount > 1U)
 80069c0:	68fb      	ldr	r3, [r7, #12]
 80069c2:	8fdb      	ldrh	r3, [r3, #62]	; 0x3e
 80069c4:	b29b      	uxth	r3, r3
 80069c6:	2b01      	cmp	r3, #1
 80069c8:	d912      	bls.n	80069f0 <HAL_SPI_TransmitReceive+0x26a>
      {
        hspi->Instance->DR = *((uint16_t *)hspi->pTxBuffPtr);
 80069ca:	68fb      	ldr	r3, [r7, #12]
 80069cc:	6b9b      	ldr	r3, [r3, #56]	; 0x38
 80069ce:	881a      	ldrh	r2, [r3, #0]
 80069d0:	68fb      	ldr	r3, [r7, #12]
 80069d2:	681b      	ldr	r3, [r3, #0]
 80069d4:	60da      	str	r2, [r3, #12]
        hspi->pTxBuffPtr += sizeof(uint16_t);
 80069d6:	68fb      	ldr	r3, [r7, #12]
 80069d8:	6b9b      	ldr	r3, [r3, #56]	; 0x38
 80069da:	1c9a      	adds	r2, r3, #2
 80069dc:	68fb      	ldr	r3, [r7, #12]
 80069de:	639a      	str	r2, [r3, #56]	; 0x38
        hspi->TxXferCount -= 2U;
 80069e0:	68fb      	ldr	r3, [r7, #12]
 80069e2:	8fdb      	ldrh	r3, [r3, #62]	; 0x3e
 80069e4:	b29b      	uxth	r3, r3
 80069e6:	3b02      	subs	r3, #2
 80069e8:	b29a      	uxth	r2, r3
 80069ea:	68fb      	ldr	r3, [r7, #12]
 80069ec:	87da      	strh	r2, [r3, #62]	; 0x3e
 80069ee:	e0b2      	b.n	8006b56 <HAL_SPI_TransmitReceive+0x3d0>
      }
      else
      {
        *(__IO uint8_t *)&hspi->Instance->DR = (*hspi->pTxBuffPtr);
 80069f0:	68fb      	ldr	r3, [r7, #12]
 80069f2:	6b9a      	ldr	r2, [r3, #56]	; 0x38
 80069f4:	68fb      	ldr	r3, [r7, #12]
 80069f6:	681b      	ldr	r3, [r3, #0]
 80069f8:	330c      	adds	r3, #12
 80069fa:	7812      	ldrb	r2, [r2, #0]
 80069fc:	701a      	strb	r2, [r3, #0]
        hspi->pTxBuffPtr++;
 80069fe:	68fb      	ldr	r3, [r7, #12]
 8006a00:	6b9b      	ldr	r3, [r3, #56]	; 0x38
 8006a02:	1c5a      	adds	r2, r3, #1
 8006a04:	68fb      	ldr	r3, [r7, #12]
 8006a06:	639a      	str	r2, [r3, #56]	; 0x38
        hspi->TxXferCount--;
 8006a08:	68fb      	ldr	r3, [r7, #12]
 8006a0a:	8fdb      	ldrh	r3, [r3, #62]	; 0x3e
 8006a0c:	b29b      	uxth	r3, r3
 8006a0e:	3b01      	subs	r3, #1
 8006a10:	b29a      	uxth	r2, r3
 8006a12:	68fb      	ldr	r3, [r7, #12]
 8006a14:	87da      	strh	r2, [r3, #62]	; 0x3e
      }
    }
    while ((hspi->TxXferCount > 0U) || (hspi->RxXferCount > 0U))
 8006a16:	e09e      	b.n	8006b56 <HAL_SPI_TransmitReceive+0x3d0>
    {
      /* Check TXE flag */
      if ((__HAL_SPI_GET_FLAG(hspi, SPI_FLAG_TXE)) && (hspi->TxXferCount > 0U) && (txallowed == 1U))
 8006a18:	68fb      	ldr	r3, [r7, #12]
 8006a1a:	681b      	ldr	r3, [r3, #0]
 8006a1c:	689b      	ldr	r3, [r3, #8]
 8006a1e:	f003 0302 	and.w	r3, r3, #2
 8006a22:	2b02      	cmp	r3, #2
 8006a24:	d134      	bne.n	8006a90 <HAL_SPI_TransmitReceive+0x30a>
 8006a26:	68fb      	ldr	r3, [r7, #12]
 8006a28:	8fdb      	ldrh	r3, [r3, #62]	; 0x3e
 8006a2a:	b29b      	uxth	r3, r3
 8006a2c:	2b00      	cmp	r3, #0
 8006a2e:	d02f      	beq.n	8006a90 <HAL_SPI_TransmitReceive+0x30a>
 8006a30:	6a7b      	ldr	r3, [r7, #36]	; 0x24
 8006a32:	2b01      	cmp	r3, #1
 8006a34:	d12c      	bne.n	8006a90 <HAL_SPI_TransmitReceive+0x30a>
      {
        if (hspi->TxXferCount > 1U)
 8006a36:	68fb      	ldr	r3, [r7, #12]
 8006a38:	8fdb      	ldrh	r3, [r3, #62]	; 0x3e
 8006a3a:	b29b      	uxth	r3, r3
 8006a3c:	2b01      	cmp	r3, #1
 8006a3e:	d912      	bls.n	8006a66 <HAL_SPI_TransmitReceive+0x2e0>
        {
          hspi->Instance->DR = *((uint16_t *)hspi->pTxBuffPtr);
 8006a40:	68fb      	ldr	r3, [r7, #12]
 8006a42:	6b9b      	ldr	r3, [r3, #56]	; 0x38
 8006a44:	881a      	ldrh	r2, [r3, #0]
 8006a46:	68fb      	ldr	r3, [r7, #12]
 8006a48:	681b      	ldr	r3, [r3, #0]
 8006a4a:	60da      	str	r2, [r3, #12]
          hspi->pTxBuffPtr += sizeof(uint16_t);
 8006a4c:	68fb      	ldr	r3, [r7, #12]
 8006a4e:	6b9b      	ldr	r3, [r3, #56]	; 0x38
 8006a50:	1c9a      	adds	r2, r3, #2
 8006a52:	68fb      	ldr	r3, [r7, #12]
 8006a54:	639a      	str	r2, [r3, #56]	; 0x38
          hspi->TxXferCount -= 2U;
 8006a56:	68fb      	ldr	r3, [r7, #12]
 8006a58:	8fdb      	ldrh	r3, [r3, #62]	; 0x3e
 8006a5a:	b29b      	uxth	r3, r3
 8006a5c:	3b02      	subs	r3, #2
 8006a5e:	b29a      	uxth	r2, r3
 8006a60:	68fb      	ldr	r3, [r7, #12]
 8006a62:	87da      	strh	r2, [r3, #62]	; 0x3e
 8006a64:	e012      	b.n	8006a8c <HAL_SPI_TransmitReceive+0x306>
        }
        else
        {
          *(__IO uint8_t *)&hspi->Instance->DR = (*hspi->pTxBuffPtr);
 8006a66:	68fb      	ldr	r3, [r7, #12]
 8006a68:	6b9a      	ldr	r2, [r3, #56]	; 0x38
 8006a6a:	68fb      	ldr	r3, [r7, #12]
 8006a6c:	681b      	ldr	r3, [r3, #0]
 8006a6e:	330c      	adds	r3, #12
 8006a70:	7812      	ldrb	r2, [r2, #0]
 8006a72:	701a      	strb	r2, [r3, #0]
          hspi->pTxBuffPtr++;
 8006a74:	68fb      	ldr	r3, [r7, #12]
 8006a76:	6b9b      	ldr	r3, [r3, #56]	; 0x38
 8006a78:	1c5a      	adds	r2, r3, #1
 8006a7a:	68fb      	ldr	r3, [r7, #12]
 8006a7c:	639a      	str	r2, [r3, #56]	; 0x38
          hspi->TxXferCount--;
 8006a7e:	68fb      	ldr	r3, [r7, #12]
 8006a80:	8fdb      	ldrh	r3, [r3, #62]	; 0x3e
 8006a82:	b29b      	uxth	r3, r3
 8006a84:	3b01      	subs	r3, #1
 8006a86:	b29a      	uxth	r2, r3
 8006a88:	68fb      	ldr	r3, [r7, #12]
 8006a8a:	87da      	strh	r2, [r3, #62]	; 0x3e
        }
        /* Next Data is a reception (Rx). Tx not allowed */
        txallowed = 0U;
 8006a8c:	2300      	movs	r3, #0
 8006a8e:	627b      	str	r3, [r7, #36]	; 0x24
        }
#endif /* USE_SPI_CRC */
      }

      /* Wait until RXNE flag is reset */
      if ((__HAL_SPI_GET_FLAG(hspi, SPI_FLAG_RXNE)) && (hspi->RxXferCount > 0U))
 8006a90:	68fb      	ldr	r3, [r7, #12]
 8006a92:	681b      	ldr	r3, [r3, #0]
 8006a94:	689b      	ldr	r3, [r3, #8]
 8006a96:	f003 0301 	and.w	r3, r3, #1
 8006a9a:	2b01      	cmp	r3, #1
 8006a9c:	d148      	bne.n	8006b30 <HAL_SPI_TransmitReceive+0x3aa>
 8006a9e:	68fb      	ldr	r3, [r7, #12]
 8006aa0:	f8b3 3046 	ldrh.w	r3, [r3, #70]	; 0x46
 8006aa4:	b29b      	uxth	r3, r3
 8006aa6:	2b00      	cmp	r3, #0
 8006aa8:	d042      	beq.n	8006b30 <HAL_SPI_TransmitReceive+0x3aa>
      {
        if (hspi->RxXferCount > 1U)
 8006aaa:	68fb      	ldr	r3, [r7, #12]
 8006aac:	f8b3 3046 	ldrh.w	r3, [r3, #70]	; 0x46
 8006ab0:	b29b      	uxth	r3, r3
 8006ab2:	2b01      	cmp	r3, #1
 8006ab4:	d923      	bls.n	8006afe <HAL_SPI_TransmitReceive+0x378>
        {
          *((uint16_t *)hspi->pRxBuffPtr) = (uint16_t)hspi->Instance->DR;
 8006ab6:	68fb      	ldr	r3, [r7, #12]
 8006ab8:	681b      	ldr	r3, [r3, #0]
 8006aba:	68da      	ldr	r2, [r3, #12]
 8006abc:	68fb      	ldr	r3, [r7, #12]
 8006abe:	6c1b      	ldr	r3, [r3, #64]	; 0x40
 8006ac0:	b292      	uxth	r2, r2
 8006ac2:	801a      	strh	r2, [r3, #0]
          hspi->pRxBuffPtr += sizeof(uint16_t);
 8006ac4:	68fb      	ldr	r3, [r7, #12]
 8006ac6:	6c1b      	ldr	r3, [r3, #64]	; 0x40
 8006ac8:	1c9a      	adds	r2, r3, #2
 8006aca:	68fb      	ldr	r3, [r7, #12]
 8006acc:	641a      	str	r2, [r3, #64]	; 0x40
          hspi->RxXferCount -= 2U;
 8006ace:	68fb      	ldr	r3, [r7, #12]
 8006ad0:	f8b3 3046 	ldrh.w	r3, [r3, #70]	; 0x46
 8006ad4:	b29b      	uxth	r3, r3
 8006ad6:	3b02      	subs	r3, #2
 8006ad8:	b29a      	uxth	r2, r3
 8006ada:	68fb      	ldr	r3, [r7, #12]
 8006adc:	f8a3 2046 	strh.w	r2, [r3, #70]	; 0x46
          if (hspi->RxXferCount <= 1U)
 8006ae0:	68fb      	ldr	r3, [r7, #12]
 8006ae2:	f8b3 3046 	ldrh.w	r3, [r3, #70]	; 0x46
 8006ae6:	b29b      	uxth	r3, r3
 8006ae8:	2b01      	cmp	r3, #1
 8006aea:	d81f      	bhi.n	8006b2c <HAL_SPI_TransmitReceive+0x3a6>
          {
            /* Set RX Fifo threshold before to switch on 8 bit data size */
            SET_BIT(hspi->Instance->CR2, SPI_RXFIFO_THRESHOLD);
 8006aec:	68fb      	ldr	r3, [r7, #12]
 8006aee:	681b      	ldr	r3, [r3, #0]
 8006af0:	685a      	ldr	r2, [r3, #4]
 8006af2:	68fb      	ldr	r3, [r7, #12]
 8006af4:	681b      	ldr	r3, [r3, #0]
 8006af6:	f442 5280 	orr.w	r2, r2, #4096	; 0x1000
 8006afa:	605a      	str	r2, [r3, #4]
 8006afc:	e016      	b.n	8006b2c <HAL_SPI_TransmitReceive+0x3a6>
          }
        }
        else
        {
          (*(uint8_t *)hspi->pRxBuffPtr) = *(__IO uint8_t *)&hspi->Instance->DR;
 8006afe:	68fb      	ldr	r3, [r7, #12]
 8006b00:	681b      	ldr	r3, [r3, #0]
 8006b02:	f103 020c 	add.w	r2, r3, #12
 8006b06:	68fb      	ldr	r3, [r7, #12]
 8006b08:	6c1b      	ldr	r3, [r3, #64]	; 0x40
 8006b0a:	7812      	ldrb	r2, [r2, #0]
 8006b0c:	b2d2      	uxtb	r2, r2
 8006b0e:	701a      	strb	r2, [r3, #0]
          hspi->pRxBuffPtr++;
 8006b10:	68fb      	ldr	r3, [r7, #12]
 8006b12:	6c1b      	ldr	r3, [r3, #64]	; 0x40
 8006b14:	1c5a      	adds	r2, r3, #1
 8006b16:	68fb      	ldr	r3, [r7, #12]
 8006b18:	641a      	str	r2, [r3, #64]	; 0x40
          hspi->RxXferCount--;
 8006b1a:	68fb      	ldr	r3, [r7, #12]
 8006b1c:	f8b3 3046 	ldrh.w	r3, [r3, #70]	; 0x46
 8006b20:	b29b      	uxth	r3, r3
 8006b22:	3b01      	subs	r3, #1
 8006b24:	b29a      	uxth	r2, r3
 8006b26:	68fb      	ldr	r3, [r7, #12]
 8006b28:	f8a3 2046 	strh.w	r2, [r3, #70]	; 0x46
        }
        /* Next Data is a Transmission (Tx). Tx is allowed */
        txallowed = 1U;
 8006b2c:	2301      	movs	r3, #1
 8006b2e:	627b      	str	r3, [r7, #36]	; 0x24
      }
      if ((((HAL_GetTick() - tickstart) >=  Timeout) && ((Timeout != HAL_MAX_DELAY))) || (Timeout == 0U))
 8006b30:	f7fc ffb8 	bl	8003aa4 <HAL_GetTick>
 8006b34:	4602      	mov	r2, r0
 8006b36:	69fb      	ldr	r3, [r7, #28]
 8006b38:	1ad3      	subs	r3, r2, r3
 8006b3a:	6b3a      	ldr	r2, [r7, #48]	; 0x30
 8006b3c:	429a      	cmp	r2, r3
 8006b3e:	d803      	bhi.n	8006b48 <HAL_SPI_TransmitReceive+0x3c2>
 8006b40:	6b3b      	ldr	r3, [r7, #48]	; 0x30
 8006b42:	f1b3 3fff 	cmp.w	r3, #4294967295
 8006b46:	d102      	bne.n	8006b4e <HAL_SPI_TransmitReceive+0x3c8>
 8006b48:	6b3b      	ldr	r3, [r7, #48]	; 0x30
 8006b4a:	2b00      	cmp	r3, #0
 8006b4c:	d103      	bne.n	8006b56 <HAL_SPI_TransmitReceive+0x3d0>
      {
        errorcode = HAL_TIMEOUT;
 8006b4e:	2303      	movs	r3, #3
 8006b50:	f887 3023 	strb.w	r3, [r7, #35]	; 0x23
        goto error;
 8006b54:	e01c      	b.n	8006b90 <HAL_SPI_TransmitReceive+0x40a>
    while ((hspi->TxXferCount > 0U) || (hspi->RxXferCount > 0U))
 8006b56:	68fb      	ldr	r3, [r7, #12]
 8006b58:	8fdb      	ldrh	r3, [r3, #62]	; 0x3e
 8006b5a:	b29b      	uxth	r3, r3
 8006b5c:	2b00      	cmp	r3, #0
 8006b5e:	f47f af5b 	bne.w	8006a18 <HAL_SPI_TransmitReceive+0x292>
 8006b62:	68fb      	ldr	r3, [r7, #12]
 8006b64:	f8b3 3046 	ldrh.w	r3, [r3, #70]	; 0x46
 8006b68:	b29b      	uxth	r3, r3
 8006b6a:	2b00      	cmp	r3, #0
 8006b6c:	f47f af54 	bne.w	8006a18 <HAL_SPI_TransmitReceive+0x292>
    errorcode = HAL_ERROR;
  }
#endif /* USE_SPI_CRC */

  /* Check the end of the transaction */
  if (SPI_EndRxTxTransaction(hspi, Timeout, tickstart) != HAL_OK)
 8006b70:	69fa      	ldr	r2, [r7, #28]
 8006b72:	6b39      	ldr	r1, [r7, #48]	; 0x30
 8006b74:	68f8      	ldr	r0, [r7, #12]
 8006b76:	f000 f98f 	bl	8006e98 <SPI_EndRxTxTransaction>
 8006b7a:	4603      	mov	r3, r0
 8006b7c:	2b00      	cmp	r3, #0
 8006b7e:	d006      	beq.n	8006b8e <HAL_SPI_TransmitReceive+0x408>
  {
    errorcode = HAL_ERROR;
 8006b80:	2301      	movs	r3, #1
 8006b82:	f887 3023 	strb.w	r3, [r7, #35]	; 0x23
    hspi->ErrorCode = HAL_SPI_ERROR_FLAG;
 8006b86:	68fb      	ldr	r3, [r7, #12]
 8006b88:	2220      	movs	r2, #32
 8006b8a:	661a      	str	r2, [r3, #96]	; 0x60
 8006b8c:	e000      	b.n	8006b90 <HAL_SPI_TransmitReceive+0x40a>
  }

error :
 8006b8e:	bf00      	nop
  hspi->State = HAL_SPI_STATE_READY;
 8006b90:	68fb      	ldr	r3, [r7, #12]
 8006b92:	2201      	movs	r2, #1
 8006b94:	f883 205d 	strb.w	r2, [r3, #93]	; 0x5d
  __HAL_UNLOCK(hspi);
 8006b98:	68fb      	ldr	r3, [r7, #12]
 8006b9a:	2200      	movs	r2, #0
 8006b9c:	f883 205c 	strb.w	r2, [r3, #92]	; 0x5c
  return errorcode;
 8006ba0:	f897 3023 	ldrb.w	r3, [r7, #35]	; 0x23
}
 8006ba4:	4618      	mov	r0, r3
 8006ba6:	3728      	adds	r7, #40	; 0x28
 8006ba8:	46bd      	mov	sp, r7
 8006baa:	bd80      	pop	{r7, pc}

08006bac <SPI_WaitFlagStateUntilTimeout>:
  * @param  Tickstart tick start value
  * @retval HAL status
  */
static HAL_StatusTypeDef SPI_WaitFlagStateUntilTimeout(SPI_HandleTypeDef *hspi, uint32_t Flag, FlagStatus State,
                                                       uint32_t Timeout, uint32_t Tickstart)
{
 8006bac:	b580      	push	{r7, lr}
 8006bae:	b088      	sub	sp, #32
 8006bb0:	af00      	add	r7, sp, #0
 8006bb2:	60f8      	str	r0, [r7, #12]
 8006bb4:	60b9      	str	r1, [r7, #8]
 8006bb6:	603b      	str	r3, [r7, #0]
 8006bb8:	4613      	mov	r3, r2
 8006bba:	71fb      	strb	r3, [r7, #7]
  __IO uint32_t count;
  uint32_t tmp_timeout;
  uint32_t tmp_tickstart;

  /* Adjust Timeout value  in case of end of transfer */
  tmp_timeout   = Timeout - (HAL_GetTick() - Tickstart);
 8006bbc:	f7fc ff72 	bl	8003aa4 <HAL_GetTick>
 8006bc0:	4602      	mov	r2, r0
 8006bc2:	6abb      	ldr	r3, [r7, #40]	; 0x28
 8006bc4:	1a9b      	subs	r3, r3, r2
 8006bc6:	683a      	ldr	r2, [r7, #0]
 8006bc8:	4413      	add	r3, r2
 8006bca:	61fb      	str	r3, [r7, #28]
  tmp_tickstart = HAL_GetTick();
 8006bcc:	f7fc ff6a 	bl	8003aa4 <HAL_GetTick>
 8006bd0:	61b8      	str	r0, [r7, #24]

  /* Calculate Timeout based on a software loop to avoid blocking issue if Systick is disabled */
  count = tmp_timeout * ((SystemCoreClock * 32U) >> 20U);
 8006bd2:	4b39      	ldr	r3, [pc, #228]	; (8006cb8 <SPI_WaitFlagStateUntilTimeout+0x10c>)
 8006bd4:	681b      	ldr	r3, [r3, #0]
 8006bd6:	015b      	lsls	r3, r3, #5
 8006bd8:	0d1b      	lsrs	r3, r3, #20
 8006bda:	69fa      	ldr	r2, [r7, #28]
 8006bdc:	fb02 f303 	mul.w	r3, r2, r3
 8006be0:	617b      	str	r3, [r7, #20]

  while ((__HAL_SPI_GET_FLAG(hspi, Flag) ? SET : RESET) != State)
 8006be2:	e054      	b.n	8006c8e <SPI_WaitFlagStateUntilTimeout+0xe2>
  {
    if (Timeout != HAL_MAX_DELAY)
 8006be4:	683b      	ldr	r3, [r7, #0]
 8006be6:	f1b3 3fff 	cmp.w	r3, #4294967295
 8006bea:	d050      	beq.n	8006c8e <SPI_WaitFlagStateUntilTimeout+0xe2>
    {
      if (((HAL_GetTick() - tmp_tickstart) >= tmp_timeout) || (tmp_timeout == 0U))
 8006bec:	f7fc ff5a 	bl	8003aa4 <HAL_GetTick>
 8006bf0:	4602      	mov	r2, r0
 8006bf2:	69bb      	ldr	r3, [r7, #24]
 8006bf4:	1ad3      	subs	r3, r2, r3
 8006bf6:	69fa      	ldr	r2, [r7, #28]
 8006bf8:	429a      	cmp	r2, r3
 8006bfa:	d902      	bls.n	8006c02 <SPI_WaitFlagStateUntilTimeout+0x56>
 8006bfc:	69fb      	ldr	r3, [r7, #28]
 8006bfe:	2b00      	cmp	r3, #0
 8006c00:	d13d      	bne.n	8006c7e <SPI_WaitFlagStateUntilTimeout+0xd2>
        /* Disable the SPI and reset the CRC: the CRC value should be cleared
           on both master and slave sides in order to resynchronize the master
           and slave for their respective CRC calculation */

        /* Disable TXE, RXNE and ERR interrupts for the interrupt process */
        __HAL_SPI_DISABLE_IT(hspi, (SPI_IT_TXE | SPI_IT_RXNE | SPI_IT_ERR));
 8006c02:	68fb      	ldr	r3, [r7, #12]
 8006c04:	681b      	ldr	r3, [r3, #0]
 8006c06:	685a      	ldr	r2, [r3, #4]
 8006c08:	68fb      	ldr	r3, [r7, #12]
 8006c0a:	681b      	ldr	r3, [r3, #0]
 8006c0c:	f022 02e0 	bic.w	r2, r2, #224	; 0xe0
 8006c10:	605a      	str	r2, [r3, #4]

        if ((hspi->Init.Mode == SPI_MODE_MASTER) && ((hspi->Init.Direction == SPI_DIRECTION_1LINE)
 8006c12:	68fb      	ldr	r3, [r7, #12]
 8006c14:	685b      	ldr	r3, [r3, #4]
 8006c16:	f5b3 7f82 	cmp.w	r3, #260	; 0x104
 8006c1a:	d111      	bne.n	8006c40 <SPI_WaitFlagStateUntilTimeout+0x94>
 8006c1c:	68fb      	ldr	r3, [r7, #12]
 8006c1e:	689b      	ldr	r3, [r3, #8]
 8006c20:	f5b3 4f00 	cmp.w	r3, #32768	; 0x8000
 8006c24:	d004      	beq.n	8006c30 <SPI_WaitFlagStateUntilTimeout+0x84>
                                                     || (hspi->Init.Direction == SPI_DIRECTION_2LINES_RXONLY)))
 8006c26:	68fb      	ldr	r3, [r7, #12]
 8006c28:	689b      	ldr	r3, [r3, #8]
 8006c2a:	f5b3 6f80 	cmp.w	r3, #1024	; 0x400
 8006c2e:	d107      	bne.n	8006c40 <SPI_WaitFlagStateUntilTimeout+0x94>
        {
          /* Disable SPI peripheral */
          __HAL_SPI_DISABLE(hspi);
 8006c30:	68fb      	ldr	r3, [r7, #12]
 8006c32:	681b      	ldr	r3, [r3, #0]
 8006c34:	681a      	ldr	r2, [r3, #0]
 8006c36:	68fb      	ldr	r3, [r7, #12]
 8006c38:	681b      	ldr	r3, [r3, #0]
 8006c3a:	f022 0240 	bic.w	r2, r2, #64	; 0x40
 8006c3e:	601a      	str	r2, [r3, #0]
        }

        /* Reset CRC Calculation */
        if (hspi->Init.CRCCalculation == SPI_CRCCALCULATION_ENABLE)
 8006c40:	68fb      	ldr	r3, [r7, #12]
 8006c42:	6a9b      	ldr	r3, [r3, #40]	; 0x28
 8006c44:	f5b3 5f00 	cmp.w	r3, #8192	; 0x2000
 8006c48:	d10f      	bne.n	8006c6a <SPI_WaitFlagStateUntilTimeout+0xbe>
        {
          SPI_RESET_CRC(hspi);
 8006c4a:	68fb      	ldr	r3, [r7, #12]
 8006c4c:	681b      	ldr	r3, [r3, #0]
 8006c4e:	681a      	ldr	r2, [r3, #0]
 8006c50:	68fb      	ldr	r3, [r7, #12]
 8006c52:	681b      	ldr	r3, [r3, #0]
 8006c54:	f422 5200 	bic.w	r2, r2, #8192	; 0x2000
 8006c58:	601a      	str	r2, [r3, #0]
 8006c5a:	68fb      	ldr	r3, [r7, #12]
 8006c5c:	681b      	ldr	r3, [r3, #0]
 8006c5e:	681a      	ldr	r2, [r3, #0]
 8006c60:	68fb      	ldr	r3, [r7, #12]
 8006c62:	681b      	ldr	r3, [r3, #0]
 8006c64:	f442 5200 	orr.w	r2, r2, #8192	; 0x2000
 8006c68:	601a      	str	r2, [r3, #0]
        }

        hspi->State = HAL_SPI_STATE_READY;
 8006c6a:	68fb      	ldr	r3, [r7, #12]
 8006c6c:	2201      	movs	r2, #1
 8006c6e:	f883 205d 	strb.w	r2, [r3, #93]	; 0x5d

        /* Process Unlocked */
        __HAL_UNLOCK(hspi);
 8006c72:	68fb      	ldr	r3, [r7, #12]
 8006c74:	2200      	movs	r2, #0
 8006c76:	f883 205c 	strb.w	r2, [r3, #92]	; 0x5c

        return HAL_TIMEOUT;
 8006c7a:	2303      	movs	r3, #3
 8006c7c:	e017      	b.n	8006cae <SPI_WaitFlagStateUntilTimeout+0x102>
      }
      /* If Systick is disabled or not incremented, deactivate timeout to go in disable loop procedure */
      if(count == 0U)
 8006c7e:	697b      	ldr	r3, [r7, #20]
 8006c80:	2b00      	cmp	r3, #0
 8006c82:	d101      	bne.n	8006c88 <SPI_WaitFlagStateUntilTimeout+0xdc>
      {
        tmp_timeout = 0U;
 8006c84:	2300      	movs	r3, #0
 8006c86:	61fb      	str	r3, [r7, #28]
      }
      count--;
 8006c88:	697b      	ldr	r3, [r7, #20]
 8006c8a:	3b01      	subs	r3, #1
 8006c8c:	617b      	str	r3, [r7, #20]
  while ((__HAL_SPI_GET_FLAG(hspi, Flag) ? SET : RESET) != State)
 8006c8e:	68fb      	ldr	r3, [r7, #12]
 8006c90:	681b      	ldr	r3, [r3, #0]
 8006c92:	689a      	ldr	r2, [r3, #8]
 8006c94:	68bb      	ldr	r3, [r7, #8]
 8006c96:	4013      	ands	r3, r2
 8006c98:	68ba      	ldr	r2, [r7, #8]
 8006c9a:	429a      	cmp	r2, r3
 8006c9c:	bf0c      	ite	eq
 8006c9e:	2301      	moveq	r3, #1
 8006ca0:	2300      	movne	r3, #0
 8006ca2:	b2db      	uxtb	r3, r3
 8006ca4:	461a      	mov	r2, r3
 8006ca6:	79fb      	ldrb	r3, [r7, #7]
 8006ca8:	429a      	cmp	r2, r3
 8006caa:	d19b      	bne.n	8006be4 <SPI_WaitFlagStateUntilTimeout+0x38>
    }
  }

  return HAL_OK;
 8006cac:	2300      	movs	r3, #0
}
 8006cae:	4618      	mov	r0, r3
 8006cb0:	3720      	adds	r7, #32
 8006cb2:	46bd      	mov	sp, r7
 8006cb4:	bd80      	pop	{r7, pc}
 8006cb6:	bf00      	nop
 8006cb8:	2000180c 	.word	0x2000180c

08006cbc <SPI_WaitFifoStateUntilTimeout>:
  * @param  Tickstart tick start value
  * @retval HAL status
  */
static HAL_StatusTypeDef SPI_WaitFifoStateUntilTimeout(SPI_HandleTypeDef *hspi, uint32_t Fifo, uint32_t State,
                                                       uint32_t Timeout, uint32_t Tickstart)
{
 8006cbc:	b580      	push	{r7, lr}
 8006cbe:	b08a      	sub	sp, #40	; 0x28
 8006cc0:	af00      	add	r7, sp, #0
 8006cc2:	60f8      	str	r0, [r7, #12]
 8006cc4:	60b9      	str	r1, [r7, #8]
 8006cc6:	607a      	str	r2, [r7, #4]
 8006cc8:	603b      	str	r3, [r7, #0]
  __IO uint32_t count;
  uint32_t tmp_timeout;
  uint32_t tmp_tickstart;
  __IO uint8_t  * ptmpreg8;
  __IO uint8_t  tmpreg8 = 0;
 8006cca:	2300      	movs	r3, #0
 8006ccc:	75fb      	strb	r3, [r7, #23]

  /* Adjust Timeout value  in case of end of transfer */
  tmp_timeout = Timeout - (HAL_GetTick() - Tickstart);
 8006cce:	f7fc fee9 	bl	8003aa4 <HAL_GetTick>
 8006cd2:	4602      	mov	r2, r0
 8006cd4:	6b3b      	ldr	r3, [r7, #48]	; 0x30
 8006cd6:	1a9b      	subs	r3, r3, r2
 8006cd8:	683a      	ldr	r2, [r7, #0]
 8006cda:	4413      	add	r3, r2
 8006cdc:	627b      	str	r3, [r7, #36]	; 0x24
  tmp_tickstart = HAL_GetTick();
 8006cde:	f7fc fee1 	bl	8003aa4 <HAL_GetTick>
 8006ce2:	6238      	str	r0, [r7, #32]

  /* Initialize the 8bit temporary pointer */
  ptmpreg8 = (__IO uint8_t *)&hspi->Instance->DR;
 8006ce4:	68fb      	ldr	r3, [r7, #12]
 8006ce6:	681b      	ldr	r3, [r3, #0]
 8006ce8:	330c      	adds	r3, #12
 8006cea:	61fb      	str	r3, [r7, #28]

  /* Calculate Timeout based on a software loop to avoid blocking issue if Systick is disabled */
  count = tmp_timeout * ((SystemCoreClock * 35U) >> 20U);
 8006cec:	4b3d      	ldr	r3, [pc, #244]	; (8006de4 <SPI_WaitFifoStateUntilTimeout+0x128>)
 8006cee:	681a      	ldr	r2, [r3, #0]
 8006cf0:	4613      	mov	r3, r2
 8006cf2:	009b      	lsls	r3, r3, #2
 8006cf4:	4413      	add	r3, r2
 8006cf6:	00da      	lsls	r2, r3, #3
 8006cf8:	1ad3      	subs	r3, r2, r3
 8006cfa:	0d1b      	lsrs	r3, r3, #20
 8006cfc:	6a7a      	ldr	r2, [r7, #36]	; 0x24
 8006cfe:	fb02 f303 	mul.w	r3, r2, r3
 8006d02:	61bb      	str	r3, [r7, #24]

  while ((hspi->Instance->SR & Fifo) != State)
 8006d04:	e060      	b.n	8006dc8 <SPI_WaitFifoStateUntilTimeout+0x10c>
  {
    if ((Fifo == SPI_SR_FRLVL) && (State == SPI_FRLVL_EMPTY))
 8006d06:	68bb      	ldr	r3, [r7, #8]
 8006d08:	f5b3 6fc0 	cmp.w	r3, #1536	; 0x600
 8006d0c:	d107      	bne.n	8006d1e <SPI_WaitFifoStateUntilTimeout+0x62>
 8006d0e:	687b      	ldr	r3, [r7, #4]
 8006d10:	2b00      	cmp	r3, #0
 8006d12:	d104      	bne.n	8006d1e <SPI_WaitFifoStateUntilTimeout+0x62>
    {
      /* Flush Data Register by a blank read */
      tmpreg8 = *ptmpreg8;
 8006d14:	69fb      	ldr	r3, [r7, #28]
 8006d16:	781b      	ldrb	r3, [r3, #0]
 8006d18:	b2db      	uxtb	r3, r3
 8006d1a:	75fb      	strb	r3, [r7, #23]
      /* To avoid GCC warning */
      UNUSED(tmpreg8);
 8006d1c:	7dfb      	ldrb	r3, [r7, #23]
    }

    if (Timeout != HAL_MAX_DELAY)
 8006d1e:	683b      	ldr	r3, [r7, #0]
 8006d20:	f1b3 3fff 	cmp.w	r3, #4294967295
 8006d24:	d050      	beq.n	8006dc8 <SPI_WaitFifoStateUntilTimeout+0x10c>
    {
      if (((HAL_GetTick() - tmp_tickstart) >= tmp_timeout) || (tmp_timeout == 0U))
 8006d26:	f7fc febd 	bl	8003aa4 <HAL_GetTick>
 8006d2a:	4602      	mov	r2, r0
 8006d2c:	6a3b      	ldr	r3, [r7, #32]
 8006d2e:	1ad3      	subs	r3, r2, r3
 8006d30:	6a7a      	ldr	r2, [r7, #36]	; 0x24
 8006d32:	429a      	cmp	r2, r3
 8006d34:	d902      	bls.n	8006d3c <SPI_WaitFifoStateUntilTimeout+0x80>
 8006d36:	6a7b      	ldr	r3, [r7, #36]	; 0x24
 8006d38:	2b00      	cmp	r3, #0
 8006d3a:	d13d      	bne.n	8006db8 <SPI_WaitFifoStateUntilTimeout+0xfc>
        /* Disable the SPI and reset the CRC: the CRC value should be cleared
           on both master and slave sides in order to resynchronize the master
           and slave for their respective CRC calculation */

        /* Disable TXE, RXNE and ERR interrupts for the interrupt process */
        __HAL_SPI_DISABLE_IT(hspi, (SPI_IT_TXE | SPI_IT_RXNE | SPI_IT_ERR));
 8006d3c:	68fb      	ldr	r3, [r7, #12]
 8006d3e:	681b      	ldr	r3, [r3, #0]
 8006d40:	685a      	ldr	r2, [r3, #4]
 8006d42:	68fb      	ldr	r3, [r7, #12]
 8006d44:	681b      	ldr	r3, [r3, #0]
 8006d46:	f022 02e0 	bic.w	r2, r2, #224	; 0xe0
 8006d4a:	605a      	str	r2, [r3, #4]

        if ((hspi->Init.Mode == SPI_MODE_MASTER) && ((hspi->Init.Direction == SPI_DIRECTION_1LINE)
 8006d4c:	68fb      	ldr	r3, [r7, #12]
 8006d4e:	685b      	ldr	r3, [r3, #4]
 8006d50:	f5b3 7f82 	cmp.w	r3, #260	; 0x104
 8006d54:	d111      	bne.n	8006d7a <SPI_WaitFifoStateUntilTimeout+0xbe>
 8006d56:	68fb      	ldr	r3, [r7, #12]
 8006d58:	689b      	ldr	r3, [r3, #8]
 8006d5a:	f5b3 4f00 	cmp.w	r3, #32768	; 0x8000
 8006d5e:	d004      	beq.n	8006d6a <SPI_WaitFifoStateUntilTimeout+0xae>
                                                     || (hspi->Init.Direction == SPI_DIRECTION_2LINES_RXONLY)))
 8006d60:	68fb      	ldr	r3, [r7, #12]
 8006d62:	689b      	ldr	r3, [r3, #8]
 8006d64:	f5b3 6f80 	cmp.w	r3, #1024	; 0x400
 8006d68:	d107      	bne.n	8006d7a <SPI_WaitFifoStateUntilTimeout+0xbe>
        {
          /* Disable SPI peripheral */
          __HAL_SPI_DISABLE(hspi);
 8006d6a:	68fb      	ldr	r3, [r7, #12]
 8006d6c:	681b      	ldr	r3, [r3, #0]
 8006d6e:	681a      	ldr	r2, [r3, #0]
 8006d70:	68fb      	ldr	r3, [r7, #12]
 8006d72:	681b      	ldr	r3, [r3, #0]
 8006d74:	f022 0240 	bic.w	r2, r2, #64	; 0x40
 8006d78:	601a      	str	r2, [r3, #0]
        }

        /* Reset CRC Calculation */
        if (hspi->Init.CRCCalculation == SPI_CRCCALCULATION_ENABLE)
 8006d7a:	68fb      	ldr	r3, [r7, #12]
 8006d7c:	6a9b      	ldr	r3, [r3, #40]	; 0x28
 8006d7e:	f5b3 5f00 	cmp.w	r3, #8192	; 0x2000
 8006d82:	d10f      	bne.n	8006da4 <SPI_WaitFifoStateUntilTimeout+0xe8>
        {
          SPI_RESET_CRC(hspi);
 8006d84:	68fb      	ldr	r3, [r7, #12]
 8006d86:	681b      	ldr	r3, [r3, #0]
 8006d88:	681a      	ldr	r2, [r3, #0]
 8006d8a:	68fb      	ldr	r3, [r7, #12]
 8006d8c:	681b      	ldr	r3, [r3, #0]
 8006d8e:	f422 5200 	bic.w	r2, r2, #8192	; 0x2000
 8006d92:	601a      	str	r2, [r3, #0]
 8006d94:	68fb      	ldr	r3, [r7, #12]
 8006d96:	681b      	ldr	r3, [r3, #0]
 8006d98:	681a      	ldr	r2, [r3, #0]
 8006d9a:	68fb      	ldr	r3, [r7, #12]
 8006d9c:	681b      	ldr	r3, [r3, #0]
 8006d9e:	f442 5200 	orr.w	r2, r2, #8192	; 0x2000
 8006da2:	601a      	str	r2, [r3, #0]
        }

        hspi->State = HAL_SPI_STATE_READY;
 8006da4:	68fb      	ldr	r3, [r7, #12]
 8006da6:	2201      	movs	r2, #1
 8006da8:	f883 205d 	strb.w	r2, [r3, #93]	; 0x5d

        /* Process Unlocked */
        __HAL_UNLOCK(hspi);
 8006dac:	68fb      	ldr	r3, [r7, #12]
 8006dae:	2200      	movs	r2, #0
 8006db0:	f883 205c 	strb.w	r2, [r3, #92]	; 0x5c

        return HAL_TIMEOUT;
 8006db4:	2303      	movs	r3, #3
 8006db6:	e010      	b.n	8006dda <SPI_WaitFifoStateUntilTimeout+0x11e>
      }
      /* If Systick is disabled or not incremented, deactivate timeout to go in disable loop procedure */
      if(count == 0U)
 8006db8:	69bb      	ldr	r3, [r7, #24]
 8006dba:	2b00      	cmp	r3, #0
 8006dbc:	d101      	bne.n	8006dc2 <SPI_WaitFifoStateUntilTimeout+0x106>
      {
        tmp_timeout = 0U;
 8006dbe:	2300      	movs	r3, #0
 8006dc0:	627b      	str	r3, [r7, #36]	; 0x24
      }      
      count--;
 8006dc2:	69bb      	ldr	r3, [r7, #24]
 8006dc4:	3b01      	subs	r3, #1
 8006dc6:	61bb      	str	r3, [r7, #24]
  while ((hspi->Instance->SR & Fifo) != State)
 8006dc8:	68fb      	ldr	r3, [r7, #12]
 8006dca:	681b      	ldr	r3, [r3, #0]
 8006dcc:	689a      	ldr	r2, [r3, #8]
 8006dce:	68bb      	ldr	r3, [r7, #8]
 8006dd0:	4013      	ands	r3, r2
 8006dd2:	687a      	ldr	r2, [r7, #4]
 8006dd4:	429a      	cmp	r2, r3
 8006dd6:	d196      	bne.n	8006d06 <SPI_WaitFifoStateUntilTimeout+0x4a>
    }
  }

  return HAL_OK;
 8006dd8:	2300      	movs	r3, #0
}
 8006dda:	4618      	mov	r0, r3
 8006ddc:	3728      	adds	r7, #40	; 0x28
 8006dde:	46bd      	mov	sp, r7
 8006de0:	bd80      	pop	{r7, pc}
 8006de2:	bf00      	nop
 8006de4:	2000180c 	.word	0x2000180c

08006de8 <SPI_EndRxTransaction>:
  * @param  Timeout Timeout duration
  * @param  Tickstart tick start value
  * @retval HAL status
  */
static HAL_StatusTypeDef SPI_EndRxTransaction(SPI_HandleTypeDef *hspi,  uint32_t Timeout, uint32_t Tickstart)
{
 8006de8:	b580      	push	{r7, lr}
 8006dea:	b086      	sub	sp, #24
 8006dec:	af02      	add	r7, sp, #8
 8006dee:	60f8      	str	r0, [r7, #12]
 8006df0:	60b9      	str	r1, [r7, #8]
 8006df2:	607a      	str	r2, [r7, #4]
  if ((hspi->Init.Mode == SPI_MODE_MASTER) && ((hspi->Init.Direction == SPI_DIRECTION_1LINE)
 8006df4:	68fb      	ldr	r3, [r7, #12]
 8006df6:	685b      	ldr	r3, [r3, #4]
 8006df8:	f5b3 7f82 	cmp.w	r3, #260	; 0x104
 8006dfc:	d111      	bne.n	8006e22 <SPI_EndRxTransaction+0x3a>
 8006dfe:	68fb      	ldr	r3, [r7, #12]
 8006e00:	689b      	ldr	r3, [r3, #8]
 8006e02:	f5b3 4f00 	cmp.w	r3, #32768	; 0x8000
 8006e06:	d004      	beq.n	8006e12 <SPI_EndRxTransaction+0x2a>
                                               || (hspi->Init.Direction == SPI_DIRECTION_2LINES_RXONLY)))
 8006e08:	68fb      	ldr	r3, [r7, #12]
 8006e0a:	689b      	ldr	r3, [r3, #8]
 8006e0c:	f5b3 6f80 	cmp.w	r3, #1024	; 0x400
 8006e10:	d107      	bne.n	8006e22 <SPI_EndRxTransaction+0x3a>
  {
    /* Disable SPI peripheral */
    __HAL_SPI_DISABLE(hspi);
 8006e12:	68fb      	ldr	r3, [r7, #12]
 8006e14:	681b      	ldr	r3, [r3, #0]
 8006e16:	681a      	ldr	r2, [r3, #0]
 8006e18:	68fb      	ldr	r3, [r7, #12]
 8006e1a:	681b      	ldr	r3, [r3, #0]
 8006e1c:	f022 0240 	bic.w	r2, r2, #64	; 0x40
 8006e20:	601a      	str	r2, [r3, #0]
  }

  /* Control the BSY flag */
  if (SPI_WaitFlagStateUntilTimeout(hspi, SPI_FLAG_BSY, RESET, Timeout, Tickstart) != HAL_OK)
 8006e22:	687b      	ldr	r3, [r7, #4]
 8006e24:	9300      	str	r3, [sp, #0]
 8006e26:	68bb      	ldr	r3, [r7, #8]
 8006e28:	2200      	movs	r2, #0
 8006e2a:	2180      	movs	r1, #128	; 0x80
 8006e2c:	68f8      	ldr	r0, [r7, #12]
 8006e2e:	f7ff febd 	bl	8006bac <SPI_WaitFlagStateUntilTimeout>
 8006e32:	4603      	mov	r3, r0
 8006e34:	2b00      	cmp	r3, #0
 8006e36:	d007      	beq.n	8006e48 <SPI_EndRxTransaction+0x60>
  {
    SET_BIT(hspi->ErrorCode, HAL_SPI_ERROR_FLAG);
 8006e38:	68fb      	ldr	r3, [r7, #12]
 8006e3a:	6e1b      	ldr	r3, [r3, #96]	; 0x60
 8006e3c:	f043 0220 	orr.w	r2, r3, #32
 8006e40:	68fb      	ldr	r3, [r7, #12]
 8006e42:	661a      	str	r2, [r3, #96]	; 0x60
    return HAL_TIMEOUT;
 8006e44:	2303      	movs	r3, #3
 8006e46:	e023      	b.n	8006e90 <SPI_EndRxTransaction+0xa8>
  }

  if ((hspi->Init.Mode == SPI_MODE_MASTER) && ((hspi->Init.Direction == SPI_DIRECTION_1LINE)
 8006e48:	68fb      	ldr	r3, [r7, #12]
 8006e4a:	685b      	ldr	r3, [r3, #4]
 8006e4c:	f5b3 7f82 	cmp.w	r3, #260	; 0x104
 8006e50:	d11d      	bne.n	8006e8e <SPI_EndRxTransaction+0xa6>
 8006e52:	68fb      	ldr	r3, [r7, #12]
 8006e54:	689b      	ldr	r3, [r3, #8]
 8006e56:	f5b3 4f00 	cmp.w	r3, #32768	; 0x8000
 8006e5a:	d004      	beq.n	8006e66 <SPI_EndRxTransaction+0x7e>
                                               || (hspi->Init.Direction == SPI_DIRECTION_2LINES_RXONLY)))
 8006e5c:	68fb      	ldr	r3, [r7, #12]
 8006e5e:	689b      	ldr	r3, [r3, #8]
 8006e60:	f5b3 6f80 	cmp.w	r3, #1024	; 0x400
 8006e64:	d113      	bne.n	8006e8e <SPI_EndRxTransaction+0xa6>
  {
    /* Empty the FRLVL fifo */
    if (SPI_WaitFifoStateUntilTimeout(hspi, SPI_FLAG_FRLVL, SPI_FRLVL_EMPTY, Timeout, Tickstart) != HAL_OK)
 8006e66:	687b      	ldr	r3, [r7, #4]
 8006e68:	9300      	str	r3, [sp, #0]
 8006e6a:	68bb      	ldr	r3, [r7, #8]
 8006e6c:	2200      	movs	r2, #0
 8006e6e:	f44f 61c0 	mov.w	r1, #1536	; 0x600
 8006e72:	68f8      	ldr	r0, [r7, #12]
 8006e74:	f7ff ff22 	bl	8006cbc <SPI_WaitFifoStateUntilTimeout>
 8006e78:	4603      	mov	r3, r0
 8006e7a:	2b00      	cmp	r3, #0
 8006e7c:	d007      	beq.n	8006e8e <SPI_EndRxTransaction+0xa6>
    {
      SET_BIT(hspi->ErrorCode, HAL_SPI_ERROR_FLAG);
 8006e7e:	68fb      	ldr	r3, [r7, #12]
 8006e80:	6e1b      	ldr	r3, [r3, #96]	; 0x60
 8006e82:	f043 0220 	orr.w	r2, r3, #32
 8006e86:	68fb      	ldr	r3, [r7, #12]
 8006e88:	661a      	str	r2, [r3, #96]	; 0x60
      return HAL_TIMEOUT;
 8006e8a:	2303      	movs	r3, #3
 8006e8c:	e000      	b.n	8006e90 <SPI_EndRxTransaction+0xa8>
    }
  }
  return HAL_OK;
 8006e8e:	2300      	movs	r3, #0
}
 8006e90:	4618      	mov	r0, r3
 8006e92:	3710      	adds	r7, #16
 8006e94:	46bd      	mov	sp, r7
 8006e96:	bd80      	pop	{r7, pc}

08006e98 <SPI_EndRxTxTransaction>:
  * @param  Timeout Timeout duration
  * @param  Tickstart tick start value
  * @retval HAL status
  */
static HAL_StatusTypeDef SPI_EndRxTxTransaction(SPI_HandleTypeDef *hspi, uint32_t Timeout, uint32_t Tickstart)
{
 8006e98:	b580      	push	{r7, lr}
 8006e9a:	b086      	sub	sp, #24
 8006e9c:	af02      	add	r7, sp, #8
 8006e9e:	60f8      	str	r0, [r7, #12]
 8006ea0:	60b9      	str	r1, [r7, #8]
 8006ea2:	607a      	str	r2, [r7, #4]
  /* Control if the TX fifo is empty */
  if (SPI_WaitFifoStateUntilTimeout(hspi, SPI_FLAG_FTLVL, SPI_FTLVL_EMPTY, Timeout, Tickstart) != HAL_OK)
 8006ea4:	687b      	ldr	r3, [r7, #4]
 8006ea6:	9300      	str	r3, [sp, #0]
 8006ea8:	68bb      	ldr	r3, [r7, #8]
 8006eaa:	2200      	movs	r2, #0
 8006eac:	f44f 51c0 	mov.w	r1, #6144	; 0x1800
 8006eb0:	68f8      	ldr	r0, [r7, #12]
 8006eb2:	f7ff ff03 	bl	8006cbc <SPI_WaitFifoStateUntilTimeout>
 8006eb6:	4603      	mov	r3, r0
 8006eb8:	2b00      	cmp	r3, #0
 8006eba:	d007      	beq.n	8006ecc <SPI_EndRxTxTransaction+0x34>
  {
    SET_BIT(hspi->ErrorCode, HAL_SPI_ERROR_FLAG);
 8006ebc:	68fb      	ldr	r3, [r7, #12]
 8006ebe:	6e1b      	ldr	r3, [r3, #96]	; 0x60
 8006ec0:	f043 0220 	orr.w	r2, r3, #32
 8006ec4:	68fb      	ldr	r3, [r7, #12]
 8006ec6:	661a      	str	r2, [r3, #96]	; 0x60
    return HAL_TIMEOUT;
 8006ec8:	2303      	movs	r3, #3
 8006eca:	e027      	b.n	8006f1c <SPI_EndRxTxTransaction+0x84>
  }

  /* Control the BSY flag */
  if (SPI_WaitFlagStateUntilTimeout(hspi, SPI_FLAG_BSY, RESET, Timeout, Tickstart) != HAL_OK)
 8006ecc:	687b      	ldr	r3, [r7, #4]
 8006ece:	9300      	str	r3, [sp, #0]
 8006ed0:	68bb      	ldr	r3, [r7, #8]
 8006ed2:	2200      	movs	r2, #0
 8006ed4:	2180      	movs	r1, #128	; 0x80
 8006ed6:	68f8      	ldr	r0, [r7, #12]
 8006ed8:	f7ff fe68 	bl	8006bac <SPI_WaitFlagStateUntilTimeout>
 8006edc:	4603      	mov	r3, r0
 8006ede:	2b00      	cmp	r3, #0
 8006ee0:	d007      	beq.n	8006ef2 <SPI_EndRxTxTransaction+0x5a>
  {
    SET_BIT(hspi->ErrorCode, HAL_SPI_ERROR_FLAG);
 8006ee2:	68fb      	ldr	r3, [r7, #12]
 8006ee4:	6e1b      	ldr	r3, [r3, #96]	; 0x60
 8006ee6:	f043 0220 	orr.w	r2, r3, #32
 8006eea:	68fb      	ldr	r3, [r7, #12]
 8006eec:	661a      	str	r2, [r3, #96]	; 0x60
    return HAL_TIMEOUT;
 8006eee:	2303      	movs	r3, #3
 8006ef0:	e014      	b.n	8006f1c <SPI_EndRxTxTransaction+0x84>
  }

  /* Control if the RX fifo is empty */
  if (SPI_WaitFifoStateUntilTimeout(hspi, SPI_FLAG_FRLVL, SPI_FRLVL_EMPTY, Timeout, Tickstart) != HAL_OK)
 8006ef2:	687b      	ldr	r3, [r7, #4]
 8006ef4:	9300      	str	r3, [sp, #0]
 8006ef6:	68bb      	ldr	r3, [r7, #8]
 8006ef8:	2200      	movs	r2, #0
 8006efa:	f44f 61c0 	mov.w	r1, #1536	; 0x600
 8006efe:	68f8      	ldr	r0, [r7, #12]
 8006f00:	f7ff fedc 	bl	8006cbc <SPI_WaitFifoStateUntilTimeout>
 8006f04:	4603      	mov	r3, r0
 8006f06:	2b00      	cmp	r3, #0
 8006f08:	d007      	beq.n	8006f1a <SPI_EndRxTxTransaction+0x82>
  {
    SET_BIT(hspi->ErrorCode, HAL_SPI_ERROR_FLAG);
 8006f0a:	68fb      	ldr	r3, [r7, #12]
 8006f0c:	6e1b      	ldr	r3, [r3, #96]	; 0x60
 8006f0e:	f043 0220 	orr.w	r2, r3, #32
 8006f12:	68fb      	ldr	r3, [r7, #12]
 8006f14:	661a      	str	r2, [r3, #96]	; 0x60
    return HAL_TIMEOUT;
 8006f16:	2303      	movs	r3, #3
 8006f18:	e000      	b.n	8006f1c <SPI_EndRxTxTransaction+0x84>
  }

  return HAL_OK;
 8006f1a:	2300      	movs	r3, #0
}
 8006f1c:	4618      	mov	r0, r3
 8006f1e:	3710      	adds	r7, #16
 8006f20:	46bd      	mov	sp, r7
 8006f22:	bd80      	pop	{r7, pc}

08006f24 <HAL_TIM_Base_Init>:
  *         Ex: call @ref HAL_TIM_Base_DeInit() before HAL_TIM_Base_Init()
  * @param  htim TIM Base handle
  * @retval HAL status
  */
HAL_StatusTypeDef HAL_TIM_Base_Init(TIM_HandleTypeDef *htim)
{
 8006f24:	b580      	push	{r7, lr}
 8006f26:	b082      	sub	sp, #8
 8006f28:	af00      	add	r7, sp, #0
 8006f2a:	6078      	str	r0, [r7, #4]
  /* Check the TIM handle allocation */
  if (htim == NULL)
 8006f2c:	687b      	ldr	r3, [r7, #4]
 8006f2e:	2b00      	cmp	r3, #0
 8006f30:	d101      	bne.n	8006f36 <HAL_TIM_Base_Init+0x12>
  {
    return HAL_ERROR;
 8006f32:	2301      	movs	r3, #1
 8006f34:	e049      	b.n	8006fca <HAL_TIM_Base_Init+0xa6>
  assert_param(IS_TIM_INSTANCE(htim->Instance));
  assert_param(IS_TIM_COUNTER_MODE(htim->Init.CounterMode));
  assert_param(IS_TIM_CLOCKDIVISION_DIV(htim->Init.ClockDivision));
  assert_param(IS_TIM_AUTORELOAD_PRELOAD(htim->Init.AutoReloadPreload));

  if (htim->State == HAL_TIM_STATE_RESET)
 8006f36:	687b      	ldr	r3, [r7, #4]
 8006f38:	f893 303d 	ldrb.w	r3, [r3, #61]	; 0x3d
 8006f3c:	b2db      	uxtb	r3, r3
 8006f3e:	2b00      	cmp	r3, #0
 8006f40:	d106      	bne.n	8006f50 <HAL_TIM_Base_Init+0x2c>
  {
    /* Allocate lock resource and initialize it */
    htim->Lock = HAL_UNLOCKED;
 8006f42:	687b      	ldr	r3, [r7, #4]
 8006f44:	2200      	movs	r2, #0
 8006f46:	f883 203c 	strb.w	r2, [r3, #60]	; 0x3c
    }
    /* Init the low level hardware : GPIO, CLOCK, NVIC */
    htim->Base_MspInitCallback(htim);
#else
    /* Init the low level hardware : GPIO, CLOCK, NVIC */
    HAL_TIM_Base_MspInit(htim);
 8006f4a:	6878      	ldr	r0, [r7, #4]
 8006f4c:	f7fb fbe8 	bl	8002720 <HAL_TIM_Base_MspInit>
#endif /* USE_HAL_TIM_REGISTER_CALLBACKS */
  }

  /* Set the TIM state */
  htim->State = HAL_TIM_STATE_BUSY;
 8006f50:	687b      	ldr	r3, [r7, #4]
 8006f52:	2202      	movs	r2, #2
 8006f54:	f883 203d 	strb.w	r2, [r3, #61]	; 0x3d

  /* Set the Time Base configuration */
  TIM_Base_SetConfig(htim->Instance, &htim->Init);
 8006f58:	687b      	ldr	r3, [r7, #4]
 8006f5a:	681a      	ldr	r2, [r3, #0]
 8006f5c:	687b      	ldr	r3, [r7, #4]
 8006f5e:	3304      	adds	r3, #4
 8006f60:	4619      	mov	r1, r3
 8006f62:	4610      	mov	r0, r2
 8006f64:	f000 fba4 	bl	80076b0 <TIM_Base_SetConfig>

  /* Initialize the DMA burst operation state */
  htim->DMABurstState = HAL_DMA_BURST_STATE_READY;
 8006f68:	687b      	ldr	r3, [r7, #4]
 8006f6a:	2201      	movs	r2, #1
 8006f6c:	f883 2048 	strb.w	r2, [r3, #72]	; 0x48

  /* Initialize the TIM channels state */
  TIM_CHANNEL_STATE_SET_ALL(htim, HAL_TIM_CHANNEL_STATE_READY);
 8006f70:	687b      	ldr	r3, [r7, #4]
 8006f72:	2201      	movs	r2, #1
 8006f74:	f883 203e 	strb.w	r2, [r3, #62]	; 0x3e
 8006f78:	687b      	ldr	r3, [r7, #4]
 8006f7a:	2201      	movs	r2, #1
 8006f7c:	f883 203f 	strb.w	r2, [r3, #63]	; 0x3f
 8006f80:	687b      	ldr	r3, [r7, #4]
 8006f82:	2201      	movs	r2, #1
 8006f84:	f883 2040 	strb.w	r2, [r3, #64]	; 0x40
 8006f88:	687b      	ldr	r3, [r7, #4]
 8006f8a:	2201      	movs	r2, #1
 8006f8c:	f883 2041 	strb.w	r2, [r3, #65]	; 0x41
 8006f90:	687b      	ldr	r3, [r7, #4]
 8006f92:	2201      	movs	r2, #1
 8006f94:	f883 2042 	strb.w	r2, [r3, #66]	; 0x42
 8006f98:	687b      	ldr	r3, [r7, #4]
 8006f9a:	2201      	movs	r2, #1
 8006f9c:	f883 2043 	strb.w	r2, [r3, #67]	; 0x43
  TIM_CHANNEL_N_STATE_SET_ALL(htim, HAL_TIM_CHANNEL_STATE_READY);
 8006fa0:	687b      	ldr	r3, [r7, #4]
 8006fa2:	2201      	movs	r2, #1
 8006fa4:	f883 2044 	strb.w	r2, [r3, #68]	; 0x44
 8006fa8:	687b      	ldr	r3, [r7, #4]
 8006faa:	2201      	movs	r2, #1
 8006fac:	f883 2045 	strb.w	r2, [r3, #69]	; 0x45
 8006fb0:	687b      	ldr	r3, [r7, #4]
 8006fb2:	2201      	movs	r2, #1
 8006fb4:	f883 2046 	strb.w	r2, [r3, #70]	; 0x46
 8006fb8:	687b      	ldr	r3, [r7, #4]
 8006fba:	2201      	movs	r2, #1
 8006fbc:	f883 2047 	strb.w	r2, [r3, #71]	; 0x47

  /* Initialize the TIM state*/
  htim->State = HAL_TIM_STATE_READY;
 8006fc0:	687b      	ldr	r3, [r7, #4]
 8006fc2:	2201      	movs	r2, #1
 8006fc4:	f883 203d 	strb.w	r2, [r3, #61]	; 0x3d

  return HAL_OK;
 8006fc8:	2300      	movs	r3, #0
}
 8006fca:	4618      	mov	r0, r3
 8006fcc:	3708      	adds	r7, #8
 8006fce:	46bd      	mov	sp, r7
 8006fd0:	bd80      	pop	{r7, pc}

08006fd2 <HAL_TIM_Base_DeInit>:
  * @brief  DeInitializes the TIM Base peripheral
  * @param  htim TIM Base handle
  * @retval HAL status
  */
HAL_StatusTypeDef HAL_TIM_Base_DeInit(TIM_HandleTypeDef *htim)
{
 8006fd2:	b580      	push	{r7, lr}
 8006fd4:	b082      	sub	sp, #8
 8006fd6:	af00      	add	r7, sp, #0
 8006fd8:	6078      	str	r0, [r7, #4]
  /* Check the parameters */
  assert_param(IS_TIM_INSTANCE(htim->Instance));

  htim->State = HAL_TIM_STATE_BUSY;
 8006fda:	687b      	ldr	r3, [r7, #4]
 8006fdc:	2202      	movs	r2, #2
 8006fde:	f883 203d 	strb.w	r2, [r3, #61]	; 0x3d

  /* Disable the TIM Peripheral Clock */
  __HAL_TIM_DISABLE(htim);
 8006fe2:	687b      	ldr	r3, [r7, #4]
 8006fe4:	681b      	ldr	r3, [r3, #0]
 8006fe6:	6a1a      	ldr	r2, [r3, #32]
 8006fe8:	f241 1311 	movw	r3, #4369	; 0x1111
 8006fec:	4013      	ands	r3, r2
 8006fee:	2b00      	cmp	r3, #0
 8006ff0:	d10f      	bne.n	8007012 <HAL_TIM_Base_DeInit+0x40>
 8006ff2:	687b      	ldr	r3, [r7, #4]
 8006ff4:	681b      	ldr	r3, [r3, #0]
 8006ff6:	6a1a      	ldr	r2, [r3, #32]
 8006ff8:	f240 4344 	movw	r3, #1092	; 0x444
 8006ffc:	4013      	ands	r3, r2
 8006ffe:	2b00      	cmp	r3, #0
 8007000:	d107      	bne.n	8007012 <HAL_TIM_Base_DeInit+0x40>
 8007002:	687b      	ldr	r3, [r7, #4]
 8007004:	681b      	ldr	r3, [r3, #0]
 8007006:	681a      	ldr	r2, [r3, #0]
 8007008:	687b      	ldr	r3, [r7, #4]
 800700a:	681b      	ldr	r3, [r3, #0]
 800700c:	f022 0201 	bic.w	r2, r2, #1
 8007010:	601a      	str	r2, [r3, #0]
  }
  /* DeInit the low level hardware */
  htim->Base_MspDeInitCallback(htim);
#else
  /* DeInit the low level hardware: GPIO, CLOCK, NVIC */
  HAL_TIM_Base_MspDeInit(htim);
 8007012:	6878      	ldr	r0, [r7, #4]
 8007014:	f7fb fbf4 	bl	8002800 <HAL_TIM_Base_MspDeInit>
#endif /* USE_HAL_TIM_REGISTER_CALLBACKS */

  /* Change the DMA burst operation state */
  htim->DMABurstState = HAL_DMA_BURST_STATE_RESET;
 8007018:	687b      	ldr	r3, [r7, #4]
 800701a:	2200      	movs	r2, #0
 800701c:	f883 2048 	strb.w	r2, [r3, #72]	; 0x48

  /* Change the TIM channels state */
  TIM_CHANNEL_STATE_SET_ALL(htim, HAL_TIM_CHANNEL_STATE_RESET);
 8007020:	687b      	ldr	r3, [r7, #4]
 8007022:	2200      	movs	r2, #0
 8007024:	f883 203e 	strb.w	r2, [r3, #62]	; 0x3e
 8007028:	687b      	ldr	r3, [r7, #4]
 800702a:	2200      	movs	r2, #0
 800702c:	f883 203f 	strb.w	r2, [r3, #63]	; 0x3f
 8007030:	687b      	ldr	r3, [r7, #4]
 8007032:	2200      	movs	r2, #0
 8007034:	f883 2040 	strb.w	r2, [r3, #64]	; 0x40
 8007038:	687b      	ldr	r3, [r7, #4]
 800703a:	2200      	movs	r2, #0
 800703c:	f883 2041 	strb.w	r2, [r3, #65]	; 0x41
 8007040:	687b      	ldr	r3, [r7, #4]
 8007042:	2200      	movs	r2, #0
 8007044:	f883 2042 	strb.w	r2, [r3, #66]	; 0x42
 8007048:	687b      	ldr	r3, [r7, #4]
 800704a:	2200      	movs	r2, #0
 800704c:	f883 2043 	strb.w	r2, [r3, #67]	; 0x43
  TIM_CHANNEL_N_STATE_SET_ALL(htim, HAL_TIM_CHANNEL_STATE_RESET);
 8007050:	687b      	ldr	r3, [r7, #4]
 8007052:	2200      	movs	r2, #0
 8007054:	f883 2044 	strb.w	r2, [r3, #68]	; 0x44
 8007058:	687b      	ldr	r3, [r7, #4]
 800705a:	2200      	movs	r2, #0
 800705c:	f883 2045 	strb.w	r2, [r3, #69]	; 0x45
 8007060:	687b      	ldr	r3, [r7, #4]
 8007062:	2200      	movs	r2, #0
 8007064:	f883 2046 	strb.w	r2, [r3, #70]	; 0x46
 8007068:	687b      	ldr	r3, [r7, #4]
 800706a:	2200      	movs	r2, #0
 800706c:	f883 2047 	strb.w	r2, [r3, #71]	; 0x47

  /* Change TIM state */
  htim->State = HAL_TIM_STATE_RESET;
 8007070:	687b      	ldr	r3, [r7, #4]
 8007072:	2200      	movs	r2, #0
 8007074:	f883 203d 	strb.w	r2, [r3, #61]	; 0x3d

  /* Release Lock */
  __HAL_UNLOCK(htim);
 8007078:	687b      	ldr	r3, [r7, #4]
 800707a:	2200      	movs	r2, #0
 800707c:	f883 203c 	strb.w	r2, [r3, #60]	; 0x3c

  return HAL_OK;
 8007080:	2300      	movs	r3, #0
}
 8007082:	4618      	mov	r0, r3
 8007084:	3708      	adds	r7, #8
 8007086:	46bd      	mov	sp, r7
 8007088:	bd80      	pop	{r7, pc}
	...

0800708c <HAL_TIM_Base_Start>:
  * @brief  Starts the TIM Base generation.
  * @param  htim TIM Base handle
  * @retval HAL status
  */
HAL_StatusTypeDef HAL_TIM_Base_Start(TIM_HandleTypeDef *htim)
{
 800708c:	b480      	push	{r7}
 800708e:	b085      	sub	sp, #20
 8007090:	af00      	add	r7, sp, #0
 8007092:	6078      	str	r0, [r7, #4]

  /* Check the parameters */
  assert_param(IS_TIM_INSTANCE(htim->Instance));

  /* Check the TIM state */
  if (htim->State != HAL_TIM_STATE_READY)
 8007094:	687b      	ldr	r3, [r7, #4]
 8007096:	f893 303d 	ldrb.w	r3, [r3, #61]	; 0x3d
 800709a:	b2db      	uxtb	r3, r3
 800709c:	2b01      	cmp	r3, #1
 800709e:	d001      	beq.n	80070a4 <HAL_TIM_Base_Start+0x18>
  {
    return HAL_ERROR;
 80070a0:	2301      	movs	r3, #1
 80070a2:	e033      	b.n	800710c <HAL_TIM_Base_Start+0x80>
  }

  /* Set the TIM state */
  htim->State = HAL_TIM_STATE_BUSY;
 80070a4:	687b      	ldr	r3, [r7, #4]
 80070a6:	2202      	movs	r2, #2
 80070a8:	f883 203d 	strb.w	r2, [r3, #61]	; 0x3d

  /* Enable the Peripheral, except in trigger mode where enable is automatically done with trigger */
  if (IS_TIM_SLAVE_INSTANCE(htim->Instance))
 80070ac:	687b      	ldr	r3, [r7, #4]
 80070ae:	681b      	ldr	r3, [r3, #0]
 80070b0:	4a19      	ldr	r2, [pc, #100]	; (8007118 <HAL_TIM_Base_Start+0x8c>)
 80070b2:	4293      	cmp	r3, r2
 80070b4:	d009      	beq.n	80070ca <HAL_TIM_Base_Start+0x3e>
 80070b6:	687b      	ldr	r3, [r7, #4]
 80070b8:	681b      	ldr	r3, [r3, #0]
 80070ba:	f1b3 4f80 	cmp.w	r3, #1073741824	; 0x40000000
 80070be:	d004      	beq.n	80070ca <HAL_TIM_Base_Start+0x3e>
 80070c0:	687b      	ldr	r3, [r7, #4]
 80070c2:	681b      	ldr	r3, [r3, #0]
 80070c4:	4a15      	ldr	r2, [pc, #84]	; (800711c <HAL_TIM_Base_Start+0x90>)
 80070c6:	4293      	cmp	r3, r2
 80070c8:	d115      	bne.n	80070f6 <HAL_TIM_Base_Start+0x6a>
  {
    tmpsmcr = htim->Instance->SMCR & TIM_SMCR_SMS;
 80070ca:	687b      	ldr	r3, [r7, #4]
 80070cc:	681b      	ldr	r3, [r3, #0]
 80070ce:	689a      	ldr	r2, [r3, #8]
 80070d0:	4b13      	ldr	r3, [pc, #76]	; (8007120 <HAL_TIM_Base_Start+0x94>)
 80070d2:	4013      	ands	r3, r2
 80070d4:	60fb      	str	r3, [r7, #12]
    if (!IS_TIM_SLAVEMODE_TRIGGER_ENABLED(tmpsmcr))
 80070d6:	68fb      	ldr	r3, [r7, #12]
 80070d8:	2b06      	cmp	r3, #6
 80070da:	d015      	beq.n	8007108 <HAL_TIM_Base_Start+0x7c>
 80070dc:	68fb      	ldr	r3, [r7, #12]
 80070de:	f5b3 3f80 	cmp.w	r3, #65536	; 0x10000
 80070e2:	d011      	beq.n	8007108 <HAL_TIM_Base_Start+0x7c>
    {
      __HAL_TIM_ENABLE(htim);
 80070e4:	687b      	ldr	r3, [r7, #4]
 80070e6:	681b      	ldr	r3, [r3, #0]
 80070e8:	681a      	ldr	r2, [r3, #0]
 80070ea:	687b      	ldr	r3, [r7, #4]
 80070ec:	681b      	ldr	r3, [r3, #0]
 80070ee:	f042 0201 	orr.w	r2, r2, #1
 80070f2:	601a      	str	r2, [r3, #0]
    if (!IS_TIM_SLAVEMODE_TRIGGER_ENABLED(tmpsmcr))
 80070f4:	e008      	b.n	8007108 <HAL_TIM_Base_Start+0x7c>
    }
  }
  else
  {
    __HAL_TIM_ENABLE(htim);
 80070f6:	687b      	ldr	r3, [r7, #4]
 80070f8:	681b      	ldr	r3, [r3, #0]
 80070fa:	681a      	ldr	r2, [r3, #0]
 80070fc:	687b      	ldr	r3, [r7, #4]
 80070fe:	681b      	ldr	r3, [r3, #0]
 8007100:	f042 0201 	orr.w	r2, r2, #1
 8007104:	601a      	str	r2, [r3, #0]
 8007106:	e000      	b.n	800710a <HAL_TIM_Base_Start+0x7e>
    if (!IS_TIM_SLAVEMODE_TRIGGER_ENABLED(tmpsmcr))
 8007108:	bf00      	nop
  }

  /* Return function status */
  return HAL_OK;
 800710a:	2300      	movs	r3, #0
}
 800710c:	4618      	mov	r0, r3
 800710e:	3714      	adds	r7, #20
 8007110:	46bd      	mov	sp, r7
 8007112:	f85d 7b04 	ldr.w	r7, [sp], #4
 8007116:	4770      	bx	lr
 8007118:	40012c00 	.word	0x40012c00
 800711c:	40014000 	.word	0x40014000
 8007120:	00010007 	.word	0x00010007

08007124 <HAL_TIM_Base_Stop>:
  * @brief  Stops the TIM Base generation.
  * @param  htim TIM Base handle
  * @retval HAL status
  */
HAL_StatusTypeDef HAL_TIM_Base_Stop(TIM_HandleTypeDef *htim)
{
 8007124:	b480      	push	{r7}
 8007126:	b083      	sub	sp, #12
 8007128:	af00      	add	r7, sp, #0
 800712a:	6078      	str	r0, [r7, #4]
  /* Check the parameters */
  assert_param(IS_TIM_INSTANCE(htim->Instance));

  /* Disable the Peripheral */
  __HAL_TIM_DISABLE(htim);
 800712c:	687b      	ldr	r3, [r7, #4]
 800712e:	681b      	ldr	r3, [r3, #0]
 8007130:	6a1a      	ldr	r2, [r3, #32]
 8007132:	f241 1311 	movw	r3, #4369	; 0x1111
 8007136:	4013      	ands	r3, r2
 8007138:	2b00      	cmp	r3, #0
 800713a:	d10f      	bne.n	800715c <HAL_TIM_Base_Stop+0x38>
 800713c:	687b      	ldr	r3, [r7, #4]
 800713e:	681b      	ldr	r3, [r3, #0]
 8007140:	6a1a      	ldr	r2, [r3, #32]
 8007142:	f240 4344 	movw	r3, #1092	; 0x444
 8007146:	4013      	ands	r3, r2
 8007148:	2b00      	cmp	r3, #0
 800714a:	d107      	bne.n	800715c <HAL_TIM_Base_Stop+0x38>
 800714c:	687b      	ldr	r3, [r7, #4]
 800714e:	681b      	ldr	r3, [r3, #0]
 8007150:	681a      	ldr	r2, [r3, #0]
 8007152:	687b      	ldr	r3, [r7, #4]
 8007154:	681b      	ldr	r3, [r3, #0]
 8007156:	f022 0201 	bic.w	r2, r2, #1
 800715a:	601a      	str	r2, [r3, #0]

  /* Set the TIM state */
  htim->State = HAL_TIM_STATE_READY;
 800715c:	687b      	ldr	r3, [r7, #4]
 800715e:	2201      	movs	r2, #1
 8007160:	f883 203d 	strb.w	r2, [r3, #61]	; 0x3d

  /* Return function status */
  return HAL_OK;
 8007164:	2300      	movs	r3, #0
}
 8007166:	4618      	mov	r0, r3
 8007168:	370c      	adds	r7, #12
 800716a:	46bd      	mov	sp, r7
 800716c:	f85d 7b04 	ldr.w	r7, [sp], #4
 8007170:	4770      	bx	lr
	...

08007174 <HAL_TIM_Base_Start_IT>:
  * @brief  Starts the TIM Base generation in interrupt mode.
  * @param  htim TIM Base handle
  * @retval HAL status
  */
HAL_StatusTypeDef HAL_TIM_Base_Start_IT(TIM_HandleTypeDef *htim)
{
 8007174:	b480      	push	{r7}
 8007176:	b085      	sub	sp, #20
 8007178:	af00      	add	r7, sp, #0
 800717a:	6078      	str	r0, [r7, #4]

  /* Check the parameters */
  assert_param(IS_TIM_INSTANCE(htim->Instance));

  /* Check the TIM state */
  if (htim->State != HAL_TIM_STATE_READY)
 800717c:	687b      	ldr	r3, [r7, #4]
 800717e:	f893 303d 	ldrb.w	r3, [r3, #61]	; 0x3d
 8007182:	b2db      	uxtb	r3, r3
 8007184:	2b01      	cmp	r3, #1
 8007186:	d001      	beq.n	800718c <HAL_TIM_Base_Start_IT+0x18>
  {
    return HAL_ERROR;
 8007188:	2301      	movs	r3, #1
 800718a:	e03b      	b.n	8007204 <HAL_TIM_Base_Start_IT+0x90>
  }

  /* Set the TIM state */
  htim->State = HAL_TIM_STATE_BUSY;
 800718c:	687b      	ldr	r3, [r7, #4]
 800718e:	2202      	movs	r2, #2
 8007190:	f883 203d 	strb.w	r2, [r3, #61]	; 0x3d

  /* Enable the TIM Update interrupt */
  __HAL_TIM_ENABLE_IT(htim, TIM_IT_UPDATE);
 8007194:	687b      	ldr	r3, [r7, #4]
 8007196:	681b      	ldr	r3, [r3, #0]
 8007198:	68da      	ldr	r2, [r3, #12]
 800719a:	687b      	ldr	r3, [r7, #4]
 800719c:	681b      	ldr	r3, [r3, #0]
 800719e:	f042 0201 	orr.w	r2, r2, #1
 80071a2:	60da      	str	r2, [r3, #12]

  /* Enable the Peripheral, except in trigger mode where enable is automatically done with trigger */
  if (IS_TIM_SLAVE_INSTANCE(htim->Instance))
 80071a4:	687b      	ldr	r3, [r7, #4]
 80071a6:	681b      	ldr	r3, [r3, #0]
 80071a8:	4a19      	ldr	r2, [pc, #100]	; (8007210 <HAL_TIM_Base_Start_IT+0x9c>)
 80071aa:	4293      	cmp	r3, r2
 80071ac:	d009      	beq.n	80071c2 <HAL_TIM_Base_Start_IT+0x4e>
 80071ae:	687b      	ldr	r3, [r7, #4]
 80071b0:	681b      	ldr	r3, [r3, #0]
 80071b2:	f1b3 4f80 	cmp.w	r3, #1073741824	; 0x40000000
 80071b6:	d004      	beq.n	80071c2 <HAL_TIM_Base_Start_IT+0x4e>
 80071b8:	687b      	ldr	r3, [r7, #4]
 80071ba:	681b      	ldr	r3, [r3, #0]
 80071bc:	4a15      	ldr	r2, [pc, #84]	; (8007214 <HAL_TIM_Base_Start_IT+0xa0>)
 80071be:	4293      	cmp	r3, r2
 80071c0:	d115      	bne.n	80071ee <HAL_TIM_Base_Start_IT+0x7a>
  {
    tmpsmcr = htim->Instance->SMCR & TIM_SMCR_SMS;
 80071c2:	687b      	ldr	r3, [r7, #4]
 80071c4:	681b      	ldr	r3, [r3, #0]
 80071c6:	689a      	ldr	r2, [r3, #8]
 80071c8:	4b13      	ldr	r3, [pc, #76]	; (8007218 <HAL_TIM_Base_Start_IT+0xa4>)
 80071ca:	4013      	ands	r3, r2
 80071cc:	60fb      	str	r3, [r7, #12]
    if (!IS_TIM_SLAVEMODE_TRIGGER_ENABLED(tmpsmcr))
 80071ce:	68fb      	ldr	r3, [r7, #12]
 80071d0:	2b06      	cmp	r3, #6
 80071d2:	d015      	beq.n	8007200 <HAL_TIM_Base_Start_IT+0x8c>
 80071d4:	68fb      	ldr	r3, [r7, #12]
 80071d6:	f5b3 3f80 	cmp.w	r3, #65536	; 0x10000
 80071da:	d011      	beq.n	8007200 <HAL_TIM_Base_Start_IT+0x8c>
    {
      __HAL_TIM_ENABLE(htim);
 80071dc:	687b      	ldr	r3, [r7, #4]
 80071de:	681b      	ldr	r3, [r3, #0]
 80071e0:	681a      	ldr	r2, [r3, #0]
 80071e2:	687b      	ldr	r3, [r7, #4]
 80071e4:	681b      	ldr	r3, [r3, #0]
 80071e6:	f042 0201 	orr.w	r2, r2, #1
 80071ea:	601a      	str	r2, [r3, #0]
    if (!IS_TIM_SLAVEMODE_TRIGGER_ENABLED(tmpsmcr))
 80071ec:	e008      	b.n	8007200 <HAL_TIM_Base_Start_IT+0x8c>
    }
  }
  else
  {
    __HAL_TIM_ENABLE(htim);
 80071ee:	687b      	ldr	r3, [r7, #4]
 80071f0:	681b      	ldr	r3, [r3, #0]
 80071f2:	681a      	ldr	r2, [r3, #0]
 80071f4:	687b      	ldr	r3, [r7, #4]
 80071f6:	681b      	ldr	r3, [r3, #0]
 80071f8:	f042 0201 	orr.w	r2, r2, #1
 80071fc:	601a      	str	r2, [r3, #0]
 80071fe:	e000      	b.n	8007202 <HAL_TIM_Base_Start_IT+0x8e>
    if (!IS_TIM_SLAVEMODE_TRIGGER_ENABLED(tmpsmcr))
 8007200:	bf00      	nop
  }

  /* Return function status */
  return HAL_OK;
 8007202:	2300      	movs	r3, #0
}
 8007204:	4618      	mov	r0, r3
 8007206:	3714      	adds	r7, #20
 8007208:	46bd      	mov	sp, r7
 800720a:	f85d 7b04 	ldr.w	r7, [sp], #4
 800720e:	4770      	bx	lr
 8007210:	40012c00 	.word	0x40012c00
 8007214:	40014000 	.word	0x40014000
 8007218:	00010007 	.word	0x00010007

0800721c <HAL_TIM_Base_Stop_IT>:
  * @brief  Stops the TIM Base generation in interrupt mode.
  * @param  htim TIM Base handle
  * @retval HAL status
  */
HAL_StatusTypeDef HAL_TIM_Base_Stop_IT(TIM_HandleTypeDef *htim)
{
 800721c:	b480      	push	{r7}
 800721e:	b083      	sub	sp, #12
 8007220:	af00      	add	r7, sp, #0
 8007222:	6078      	str	r0, [r7, #4]
  /* Check the parameters */
  assert_param(IS_TIM_INSTANCE(htim->Instance));

  /* Disable the TIM Update interrupt */
  __HAL_TIM_DISABLE_IT(htim, TIM_IT_UPDATE);
 8007224:	687b      	ldr	r3, [r7, #4]
 8007226:	681b      	ldr	r3, [r3, #0]
 8007228:	68da      	ldr	r2, [r3, #12]
 800722a:	687b      	ldr	r3, [r7, #4]
 800722c:	681b      	ldr	r3, [r3, #0]
 800722e:	f022 0201 	bic.w	r2, r2, #1
 8007232:	60da      	str	r2, [r3, #12]

  /* Disable the Peripheral */
  __HAL_TIM_DISABLE(htim);
 8007234:	687b      	ldr	r3, [r7, #4]
 8007236:	681b      	ldr	r3, [r3, #0]
 8007238:	6a1a      	ldr	r2, [r3, #32]
 800723a:	f241 1311 	movw	r3, #4369	; 0x1111
 800723e:	4013      	ands	r3, r2
 8007240:	2b00      	cmp	r3, #0
 8007242:	d10f      	bne.n	8007264 <HAL_TIM_Base_Stop_IT+0x48>
 8007244:	687b      	ldr	r3, [r7, #4]
 8007246:	681b      	ldr	r3, [r3, #0]
 8007248:	6a1a      	ldr	r2, [r3, #32]
 800724a:	f240 4344 	movw	r3, #1092	; 0x444
 800724e:	4013      	ands	r3, r2
 8007250:	2b00      	cmp	r3, #0
 8007252:	d107      	bne.n	8007264 <HAL_TIM_Base_Stop_IT+0x48>
 8007254:	687b      	ldr	r3, [r7, #4]
 8007256:	681b      	ldr	r3, [r3, #0]
 8007258:	681a      	ldr	r2, [r3, #0]
 800725a:	687b      	ldr	r3, [r7, #4]
 800725c:	681b      	ldr	r3, [r3, #0]
 800725e:	f022 0201 	bic.w	r2, r2, #1
 8007262:	601a      	str	r2, [r3, #0]

  /* Set the TIM state */
  htim->State = HAL_TIM_STATE_READY;
 8007264:	687b      	ldr	r3, [r7, #4]
 8007266:	2201      	movs	r2, #1
 8007268:	f883 203d 	strb.w	r2, [r3, #61]	; 0x3d

  /* Return function status */
  return HAL_OK;
 800726c:	2300      	movs	r3, #0
}
 800726e:	4618      	mov	r0, r3
 8007270:	370c      	adds	r7, #12
 8007272:	46bd      	mov	sp, r7
 8007274:	f85d 7b04 	ldr.w	r7, [sp], #4
 8007278:	4770      	bx	lr

0800727a <HAL_TIM_IRQHandler>:
  * @brief  This function handles TIM interrupts requests.
  * @param  htim TIM  handle
  * @retval None
  */
void HAL_TIM_IRQHandler(TIM_HandleTypeDef *htim)
{
 800727a:	b580      	push	{r7, lr}
 800727c:	b082      	sub	sp, #8
 800727e:	af00      	add	r7, sp, #0
 8007280:	6078      	str	r0, [r7, #4]
  /* Capture compare 1 event */
  if (__HAL_TIM_GET_FLAG(htim, TIM_FLAG_CC1) != RESET)
 8007282:	687b      	ldr	r3, [r7, #4]
 8007284:	681b      	ldr	r3, [r3, #0]
 8007286:	691b      	ldr	r3, [r3, #16]
 8007288:	f003 0302 	and.w	r3, r3, #2
 800728c:	2b02      	cmp	r3, #2
 800728e:	d122      	bne.n	80072d6 <HAL_TIM_IRQHandler+0x5c>
  {
    if (__HAL_TIM_GET_IT_SOURCE(htim, TIM_IT_CC1) != RESET)
 8007290:	687b      	ldr	r3, [r7, #4]
 8007292:	681b      	ldr	r3, [r3, #0]
 8007294:	68db      	ldr	r3, [r3, #12]
 8007296:	f003 0302 	and.w	r3, r3, #2
 800729a:	2b02      	cmp	r3, #2
 800729c:	d11b      	bne.n	80072d6 <HAL_TIM_IRQHandler+0x5c>
    {
      {
        __HAL_TIM_CLEAR_IT(htim, TIM_IT_CC1);
 800729e:	687b      	ldr	r3, [r7, #4]
 80072a0:	681b      	ldr	r3, [r3, #0]
 80072a2:	f06f 0202 	mvn.w	r2, #2
 80072a6:	611a      	str	r2, [r3, #16]
        htim->Channel = HAL_TIM_ACTIVE_CHANNEL_1;
 80072a8:	687b      	ldr	r3, [r7, #4]
 80072aa:	2201      	movs	r2, #1
 80072ac:	771a      	strb	r2, [r3, #28]

        /* Input capture event */
        if ((htim->Instance->CCMR1 & TIM_CCMR1_CC1S) != 0x00U)
 80072ae:	687b      	ldr	r3, [r7, #4]
 80072b0:	681b      	ldr	r3, [r3, #0]
 80072b2:	699b      	ldr	r3, [r3, #24]
 80072b4:	f003 0303 	and.w	r3, r3, #3
 80072b8:	2b00      	cmp	r3, #0
 80072ba:	d003      	beq.n	80072c4 <HAL_TIM_IRQHandler+0x4a>
        {
#if (USE_HAL_TIM_REGISTER_CALLBACKS == 1)
          htim->IC_CaptureCallback(htim);
#else
          HAL_TIM_IC_CaptureCallback(htim);
 80072bc:	6878      	ldr	r0, [r7, #4]
 80072be:	f000 f9d8 	bl	8007672 <HAL_TIM_IC_CaptureCallback>
 80072c2:	e005      	b.n	80072d0 <HAL_TIM_IRQHandler+0x56>
        {
#if (USE_HAL_TIM_REGISTER_CALLBACKS == 1)
          htim->OC_DelayElapsedCallback(htim);
          htim->PWM_PulseFinishedCallback(htim);
#else
          HAL_TIM_OC_DelayElapsedCallback(htim);
 80072c4:	6878      	ldr	r0, [r7, #4]
 80072c6:	f000 f9ca 	bl	800765e <HAL_TIM_OC_DelayElapsedCallback>
          HAL_TIM_PWM_PulseFinishedCallback(htim);
 80072ca:	6878      	ldr	r0, [r7, #4]
 80072cc:	f000 f9db 	bl	8007686 <HAL_TIM_PWM_PulseFinishedCallback>
#endif /* USE_HAL_TIM_REGISTER_CALLBACKS */
        }
        htim->Channel = HAL_TIM_ACTIVE_CHANNEL_CLEARED;
 80072d0:	687b      	ldr	r3, [r7, #4]
 80072d2:	2200      	movs	r2, #0
 80072d4:	771a      	strb	r2, [r3, #28]
      }
    }
  }
  /* Capture compare 2 event */
  if (__HAL_TIM_GET_FLAG(htim, TIM_FLAG_CC2) != RESET)
 80072d6:	687b      	ldr	r3, [r7, #4]
 80072d8:	681b      	ldr	r3, [r3, #0]
 80072da:	691b      	ldr	r3, [r3, #16]
 80072dc:	f003 0304 	and.w	r3, r3, #4
 80072e0:	2b04      	cmp	r3, #4
 80072e2:	d122      	bne.n	800732a <HAL_TIM_IRQHandler+0xb0>
  {
    if (__HAL_TIM_GET_IT_SOURCE(htim, TIM_IT_CC2) != RESET)
 80072e4:	687b      	ldr	r3, [r7, #4]
 80072e6:	681b      	ldr	r3, [r3, #0]
 80072e8:	68db      	ldr	r3, [r3, #12]
 80072ea:	f003 0304 	and.w	r3, r3, #4
 80072ee:	2b04      	cmp	r3, #4
 80072f0:	d11b      	bne.n	800732a <HAL_TIM_IRQHandler+0xb0>
    {
      __HAL_TIM_CLEAR_IT(htim, TIM_IT_CC2);
 80072f2:	687b      	ldr	r3, [r7, #4]
 80072f4:	681b      	ldr	r3, [r3, #0]
 80072f6:	f06f 0204 	mvn.w	r2, #4
 80072fa:	611a      	str	r2, [r3, #16]
      htim->Channel = HAL_TIM_ACTIVE_CHANNEL_2;
 80072fc:	687b      	ldr	r3, [r7, #4]
 80072fe:	2202      	movs	r2, #2
 8007300:	771a      	strb	r2, [r3, #28]
      /* Input capture event */
      if ((htim->Instance->CCMR1 & TIM_CCMR1_CC2S) != 0x00U)
 8007302:	687b      	ldr	r3, [r7, #4]
 8007304:	681b      	ldr	r3, [r3, #0]
 8007306:	699b      	ldr	r3, [r3, #24]
 8007308:	f403 7340 	and.w	r3, r3, #768	; 0x300
 800730c:	2b00      	cmp	r3, #0
 800730e:	d003      	beq.n	8007318 <HAL_TIM_IRQHandler+0x9e>
      {
#if (USE_HAL_TIM_REGISTER_CALLBACKS == 1)
        htim->IC_CaptureCallback(htim);
#else
        HAL_TIM_IC_CaptureCallback(htim);
 8007310:	6878      	ldr	r0, [r7, #4]
 8007312:	f000 f9ae 	bl	8007672 <HAL_TIM_IC_CaptureCallback>
 8007316:	e005      	b.n	8007324 <HAL_TIM_IRQHandler+0xaa>
      {
#if (USE_HAL_TIM_REGISTER_CALLBACKS == 1)
        htim->OC_DelayElapsedCallback(htim);
        htim->PWM_PulseFinishedCallback(htim);
#else
        HAL_TIM_OC_DelayElapsedCallback(htim);
 8007318:	6878      	ldr	r0, [r7, #4]
 800731a:	f000 f9a0 	bl	800765e <HAL_TIM_OC_DelayElapsedCallback>
        HAL_TIM_PWM_PulseFinishedCallback(htim);
 800731e:	6878      	ldr	r0, [r7, #4]
 8007320:	f000 f9b1 	bl	8007686 <HAL_TIM_PWM_PulseFinishedCallback>
#endif /* USE_HAL_TIM_REGISTER_CALLBACKS */
      }
      htim->Channel = HAL_TIM_ACTIVE_CHANNEL_CLEARED;
 8007324:	687b      	ldr	r3, [r7, #4]
 8007326:	2200      	movs	r2, #0
 8007328:	771a      	strb	r2, [r3, #28]
    }
  }
  /* Capture compare 3 event */
  if (__HAL_TIM_GET_FLAG(htim, TIM_FLAG_CC3) != RESET)
 800732a:	687b      	ldr	r3, [r7, #4]
 800732c:	681b      	ldr	r3, [r3, #0]
 800732e:	691b      	ldr	r3, [r3, #16]
 8007330:	f003 0308 	and.w	r3, r3, #8
 8007334:	2b08      	cmp	r3, #8
 8007336:	d122      	bne.n	800737e <HAL_TIM_IRQHandler+0x104>
  {
    if (__HAL_TIM_GET_IT_SOURCE(htim, TIM_IT_CC3) != RESET)
 8007338:	687b      	ldr	r3, [r7, #4]
 800733a:	681b      	ldr	r3, [r3, #0]
 800733c:	68db      	ldr	r3, [r3, #12]
 800733e:	f003 0308 	and.w	r3, r3, #8
 8007342:	2b08      	cmp	r3, #8
 8007344:	d11b      	bne.n	800737e <HAL_TIM_IRQHandler+0x104>
    {
      __HAL_TIM_CLEAR_IT(htim, TIM_IT_CC3);
 8007346:	687b      	ldr	r3, [r7, #4]
 8007348:	681b      	ldr	r3, [r3, #0]
 800734a:	f06f 0208 	mvn.w	r2, #8
 800734e:	611a      	str	r2, [r3, #16]
      htim->Channel = HAL_TIM_ACTIVE_CHANNEL_3;
 8007350:	687b      	ldr	r3, [r7, #4]
 8007352:	2204      	movs	r2, #4
 8007354:	771a      	strb	r2, [r3, #28]
      /* Input capture event */
      if ((htim->Instance->CCMR2 & TIM_CCMR2_CC3S) != 0x00U)
 8007356:	687b      	ldr	r3, [r7, #4]
 8007358:	681b      	ldr	r3, [r3, #0]
 800735a:	69db      	ldr	r3, [r3, #28]
 800735c:	f003 0303 	and.w	r3, r3, #3
 8007360:	2b00      	cmp	r3, #0
 8007362:	d003      	beq.n	800736c <HAL_TIM_IRQHandler+0xf2>
      {
#if (USE_HAL_TIM_REGISTER_CALLBACKS == 1)
        htim->IC_CaptureCallback(htim);
#else
        HAL_TIM_IC_CaptureCallback(htim);
 8007364:	6878      	ldr	r0, [r7, #4]
 8007366:	f000 f984 	bl	8007672 <HAL_TIM_IC_CaptureCallback>
 800736a:	e005      	b.n	8007378 <HAL_TIM_IRQHandler+0xfe>
      {
#if (USE_HAL_TIM_REGISTER_CALLBACKS == 1)
        htim->OC_DelayElapsedCallback(htim);
        htim->PWM_PulseFinishedCallback(htim);
#else
        HAL_TIM_OC_DelayElapsedCallback(htim);
 800736c:	6878      	ldr	r0, [r7, #4]
 800736e:	f000 f976 	bl	800765e <HAL_TIM_OC_DelayElapsedCallback>
        HAL_TIM_PWM_PulseFinishedCallback(htim);
 8007372:	6878      	ldr	r0, [r7, #4]
 8007374:	f000 f987 	bl	8007686 <HAL_TIM_PWM_PulseFinishedCallback>
#endif /* USE_HAL_TIM_REGISTER_CALLBACKS */
      }
      htim->Channel = HAL_TIM_ACTIVE_CHANNEL_CLEARED;
 8007378:	687b      	ldr	r3, [r7, #4]
 800737a:	2200      	movs	r2, #0
 800737c:	771a      	strb	r2, [r3, #28]
    }
  }
  /* Capture compare 4 event */
  if (__HAL_TIM_GET_FLAG(htim, TIM_FLAG_CC4) != RESET)
 800737e:	687b      	ldr	r3, [r7, #4]
 8007380:	681b      	ldr	r3, [r3, #0]
 8007382:	691b      	ldr	r3, [r3, #16]
 8007384:	f003 0310 	and.w	r3, r3, #16
 8007388:	2b10      	cmp	r3, #16
 800738a:	d122      	bne.n	80073d2 <HAL_TIM_IRQHandler+0x158>
  {
    if (__HAL_TIM_GET_IT_SOURCE(htim, TIM_IT_CC4) != RESET)
 800738c:	687b      	ldr	r3, [r7, #4]
 800738e:	681b      	ldr	r3, [r3, #0]
 8007390:	68db      	ldr	r3, [r3, #12]
 8007392:	f003 0310 	and.w	r3, r3, #16
 8007396:	2b10      	cmp	r3, #16
 8007398:	d11b      	bne.n	80073d2 <HAL_TIM_IRQHandler+0x158>
    {
      __HAL_TIM_CLEAR_IT(htim, TIM_IT_CC4);
 800739a:	687b      	ldr	r3, [r7, #4]
 800739c:	681b      	ldr	r3, [r3, #0]
 800739e:	f06f 0210 	mvn.w	r2, #16
 80073a2:	611a      	str	r2, [r3, #16]
      htim->Channel = HAL_TIM_ACTIVE_CHANNEL_4;
 80073a4:	687b      	ldr	r3, [r7, #4]
 80073a6:	2208      	movs	r2, #8
 80073a8:	771a      	strb	r2, [r3, #28]
      /* Input capture event */
      if ((htim->Instance->CCMR2 & TIM_CCMR2_CC4S) != 0x00U)
 80073aa:	687b      	ldr	r3, [r7, #4]
 80073ac:	681b      	ldr	r3, [r3, #0]
 80073ae:	69db      	ldr	r3, [r3, #28]
 80073b0:	f403 7340 	and.w	r3, r3, #768	; 0x300
 80073b4:	2b00      	cmp	r3, #0
 80073b6:	d003      	beq.n	80073c0 <HAL_TIM_IRQHandler+0x146>
      {
#if (USE_HAL_TIM_REGISTER_CALLBACKS == 1)
        htim->IC_CaptureCallback(htim);
#else
        HAL_TIM_IC_CaptureCallback(htim);
 80073b8:	6878      	ldr	r0, [r7, #4]
 80073ba:	f000 f95a 	bl	8007672 <HAL_TIM_IC_CaptureCallback>
 80073be:	e005      	b.n	80073cc <HAL_TIM_IRQHandler+0x152>
      {
#if (USE_HAL_TIM_REGISTER_CALLBACKS == 1)
        htim->OC_DelayElapsedCallback(htim);
        htim->PWM_PulseFinishedCallback(htim);
#else
        HAL_TIM_OC_DelayElapsedCallback(htim);
 80073c0:	6878      	ldr	r0, [r7, #4]
 80073c2:	f000 f94c 	bl	800765e <HAL_TIM_OC_DelayElapsedCallback>
        HAL_TIM_PWM_PulseFinishedCallback(htim);
 80073c6:	6878      	ldr	r0, [r7, #4]
 80073c8:	f000 f95d 	bl	8007686 <HAL_TIM_PWM_PulseFinishedCallback>
#endif /* USE_HAL_TIM_REGISTER_CALLBACKS */
      }
      htim->Channel = HAL_TIM_ACTIVE_CHANNEL_CLEARED;
 80073cc:	687b      	ldr	r3, [r7, #4]
 80073ce:	2200      	movs	r2, #0
 80073d0:	771a      	strb	r2, [r3, #28]
    }
  }
  /* TIM Update event */
  if (__HAL_TIM_GET_FLAG(htim, TIM_FLAG_UPDATE) != RESET)
 80073d2:	687b      	ldr	r3, [r7, #4]
 80073d4:	681b      	ldr	r3, [r3, #0]
 80073d6:	691b      	ldr	r3, [r3, #16]
 80073d8:	f003 0301 	and.w	r3, r3, #1
 80073dc:	2b01      	cmp	r3, #1
 80073de:	d10e      	bne.n	80073fe <HAL_TIM_IRQHandler+0x184>
  {
    if (__HAL_TIM_GET_IT_SOURCE(htim, TIM_IT_UPDATE) != RESET)
 80073e0:	687b      	ldr	r3, [r7, #4]
 80073e2:	681b      	ldr	r3, [r3, #0]
 80073e4:	68db      	ldr	r3, [r3, #12]
 80073e6:	f003 0301 	and.w	r3, r3, #1
 80073ea:	2b01      	cmp	r3, #1
 80073ec:	d107      	bne.n	80073fe <HAL_TIM_IRQHandler+0x184>
    {
      __HAL_TIM_CLEAR_IT(htim, TIM_IT_UPDATE);
 80073ee:	687b      	ldr	r3, [r7, #4]
 80073f0:	681b      	ldr	r3, [r3, #0]
 80073f2:	f06f 0201 	mvn.w	r2, #1
 80073f6:	611a      	str	r2, [r3, #16]
#if (USE_HAL_TIM_REGISTER_CALLBACKS == 1)
      htim->PeriodElapsedCallback(htim);
#else
      HAL_TIM_PeriodElapsedCallback(htim);
 80073f8:	6878      	ldr	r0, [r7, #4]
 80073fa:	f000 f926 	bl	800764a <HAL_TIM_PeriodElapsedCallback>
#endif /* USE_HAL_TIM_REGISTER_CALLBACKS */
    }
  }
  /* TIM Break input event */
  if (__HAL_TIM_GET_FLAG(htim, TIM_FLAG_BREAK) != RESET)
 80073fe:	687b      	ldr	r3, [r7, #4]
 8007400:	681b      	ldr	r3, [r3, #0]
 8007402:	691b      	ldr	r3, [r3, #16]
 8007404:	f003 0380 	and.w	r3, r3, #128	; 0x80
 8007408:	2b80      	cmp	r3, #128	; 0x80
 800740a:	d10e      	bne.n	800742a <HAL_TIM_IRQHandler+0x1b0>
  {
    if (__HAL_TIM_GET_IT_SOURCE(htim, TIM_IT_BREAK) != RESET)
 800740c:	687b      	ldr	r3, [r7, #4]
 800740e:	681b      	ldr	r3, [r3, #0]
 8007410:	68db      	ldr	r3, [r3, #12]
 8007412:	f003 0380 	and.w	r3, r3, #128	; 0x80
 8007416:	2b80      	cmp	r3, #128	; 0x80
 8007418:	d107      	bne.n	800742a <HAL_TIM_IRQHandler+0x1b0>
    {
      __HAL_TIM_CLEAR_IT(htim, TIM_IT_BREAK);
 800741a:	687b      	ldr	r3, [r7, #4]
 800741c:	681b      	ldr	r3, [r3, #0]
 800741e:	f06f 0280 	mvn.w	r2, #128	; 0x80
 8007422:	611a      	str	r2, [r3, #16]
#if (USE_HAL_TIM_REGISTER_CALLBACKS == 1)
      htim->BreakCallback(htim);
#else
      HAL_TIMEx_BreakCallback(htim);
 8007424:	6878      	ldr	r0, [r7, #4]
 8007426:	f000 fabb 	bl	80079a0 <HAL_TIMEx_BreakCallback>
#endif /* USE_HAL_TIM_REGISTER_CALLBACKS */
    }
  }
#if defined(TIM_BDTR_BK2E)
  /* TIM Break2 input event */
  if (__HAL_TIM_GET_FLAG(htim, TIM_FLAG_BREAK2) != RESET)
 800742a:	687b      	ldr	r3, [r7, #4]
 800742c:	681b      	ldr	r3, [r3, #0]
 800742e:	691b      	ldr	r3, [r3, #16]
 8007430:	f403 7380 	and.w	r3, r3, #256	; 0x100
 8007434:	f5b3 7f80 	cmp.w	r3, #256	; 0x100
 8007438:	d10e      	bne.n	8007458 <HAL_TIM_IRQHandler+0x1de>
  {
    if (__HAL_TIM_GET_IT_SOURCE(htim, TIM_IT_BREAK) != RESET)
 800743a:	687b      	ldr	r3, [r7, #4]
 800743c:	681b      	ldr	r3, [r3, #0]
 800743e:	68db      	ldr	r3, [r3, #12]
 8007440:	f003 0380 	and.w	r3, r3, #128	; 0x80
 8007444:	2b80      	cmp	r3, #128	; 0x80
 8007446:	d107      	bne.n	8007458 <HAL_TIM_IRQHandler+0x1de>
    {
      __HAL_TIM_CLEAR_FLAG(htim, TIM_FLAG_BREAK2);
 8007448:	687b      	ldr	r3, [r7, #4]
 800744a:	681b      	ldr	r3, [r3, #0]
 800744c:	f46f 7280 	mvn.w	r2, #256	; 0x100
 8007450:	611a      	str	r2, [r3, #16]
#if (USE_HAL_TIM_REGISTER_CALLBACKS == 1)
      htim->Break2Callback(htim);
#else
      HAL_TIMEx_Break2Callback(htim);
 8007452:	6878      	ldr	r0, [r7, #4]
 8007454:	f000 faae 	bl	80079b4 <HAL_TIMEx_Break2Callback>
#endif /* USE_HAL_TIM_REGISTER_CALLBACKS */
    }
  }
#endif /* TIM_BDTR_BK2E */
  /* TIM Trigger detection event */
  if (__HAL_TIM_GET_FLAG(htim, TIM_FLAG_TRIGGER) != RESET)
 8007458:	687b      	ldr	r3, [r7, #4]
 800745a:	681b      	ldr	r3, [r3, #0]
 800745c:	691b      	ldr	r3, [r3, #16]
 800745e:	f003 0340 	and.w	r3, r3, #64	; 0x40
 8007462:	2b40      	cmp	r3, #64	; 0x40
 8007464:	d10e      	bne.n	8007484 <HAL_TIM_IRQHandler+0x20a>
  {
    if (__HAL_TIM_GET_IT_SOURCE(htim, TIM_IT_TRIGGER) != RESET)
 8007466:	687b      	ldr	r3, [r7, #4]
 8007468:	681b      	ldr	r3, [r3, #0]
 800746a:	68db      	ldr	r3, [r3, #12]
 800746c:	f003 0340 	and.w	r3, r3, #64	; 0x40
 8007470:	2b40      	cmp	r3, #64	; 0x40
 8007472:	d107      	bne.n	8007484 <HAL_TIM_IRQHandler+0x20a>
    {
      __HAL_TIM_CLEAR_IT(htim, TIM_IT_TRIGGER);
 8007474:	687b      	ldr	r3, [r7, #4]
 8007476:	681b      	ldr	r3, [r3, #0]
 8007478:	f06f 0240 	mvn.w	r2, #64	; 0x40
 800747c:	611a      	str	r2, [r3, #16]
#if (USE_HAL_TIM_REGISTER_CALLBACKS == 1)
      htim->TriggerCallback(htim);
#else
      HAL_TIM_TriggerCallback(htim);
 800747e:	6878      	ldr	r0, [r7, #4]
 8007480:	f000 f90b 	bl	800769a <HAL_TIM_TriggerCallback>
#endif /* USE_HAL_TIM_REGISTER_CALLBACKS */
    }
  }
  /* TIM commutation event */
  if (__HAL_TIM_GET_FLAG(htim, TIM_FLAG_COM) != RESET)
 8007484:	687b      	ldr	r3, [r7, #4]
 8007486:	681b      	ldr	r3, [r3, #0]
 8007488:	691b      	ldr	r3, [r3, #16]
 800748a:	f003 0320 	and.w	r3, r3, #32
 800748e:	2b20      	cmp	r3, #32
 8007490:	d10e      	bne.n	80074b0 <HAL_TIM_IRQHandler+0x236>
  {
    if (__HAL_TIM_GET_IT_SOURCE(htim, TIM_IT_COM) != RESET)
 8007492:	687b      	ldr	r3, [r7, #4]
 8007494:	681b      	ldr	r3, [r3, #0]
 8007496:	68db      	ldr	r3, [r3, #12]
 8007498:	f003 0320 	and.w	r3, r3, #32
 800749c:	2b20      	cmp	r3, #32
 800749e:	d107      	bne.n	80074b0 <HAL_TIM_IRQHandler+0x236>
    {
      __HAL_TIM_CLEAR_IT(htim, TIM_FLAG_COM);
 80074a0:	687b      	ldr	r3, [r7, #4]
 80074a2:	681b      	ldr	r3, [r3, #0]
 80074a4:	f06f 0220 	mvn.w	r2, #32
 80074a8:	611a      	str	r2, [r3, #16]
#if (USE_HAL_TIM_REGISTER_CALLBACKS == 1)
      htim->CommutationCallback(htim);
#else
      HAL_TIMEx_CommutCallback(htim);
 80074aa:	6878      	ldr	r0, [r7, #4]
 80074ac:	f000 fa6e 	bl	800798c <HAL_TIMEx_CommutCallback>
#endif /* USE_HAL_TIM_REGISTER_CALLBACKS */
    }
  }
}
 80074b0:	bf00      	nop
 80074b2:	3708      	adds	r7, #8
 80074b4:	46bd      	mov	sp, r7
 80074b6:	bd80      	pop	{r7, pc}

080074b8 <HAL_TIM_ConfigClockSource>:
  * @param  sClockSourceConfig pointer to a TIM_ClockConfigTypeDef structure that
  *         contains the clock source information for the TIM peripheral.
  * @retval HAL status
  */
HAL_StatusTypeDef HAL_TIM_ConfigClockSource(TIM_HandleTypeDef *htim, TIM_ClockConfigTypeDef *sClockSourceConfig)
{
 80074b8:	b580      	push	{r7, lr}
 80074ba:	b084      	sub	sp, #16
 80074bc:	af00      	add	r7, sp, #0
 80074be:	6078      	str	r0, [r7, #4]
 80074c0:	6039      	str	r1, [r7, #0]
  HAL_StatusTypeDef status = HAL_OK;
 80074c2:	2300      	movs	r3, #0
 80074c4:	73fb      	strb	r3, [r7, #15]
  uint32_t tmpsmcr;

  /* Process Locked */
  __HAL_LOCK(htim);
 80074c6:	687b      	ldr	r3, [r7, #4]
 80074c8:	f893 303c 	ldrb.w	r3, [r3, #60]	; 0x3c
 80074cc:	2b01      	cmp	r3, #1
 80074ce:	d101      	bne.n	80074d4 <HAL_TIM_ConfigClockSource+0x1c>
 80074d0:	2302      	movs	r3, #2
 80074d2:	e0b6      	b.n	8007642 <HAL_TIM_ConfigClockSource+0x18a>
 80074d4:	687b      	ldr	r3, [r7, #4]
 80074d6:	2201      	movs	r2, #1
 80074d8:	f883 203c 	strb.w	r2, [r3, #60]	; 0x3c

  htim->State = HAL_TIM_STATE_BUSY;
 80074dc:	687b      	ldr	r3, [r7, #4]
 80074de:	2202      	movs	r2, #2
 80074e0:	f883 203d 	strb.w	r2, [r3, #61]	; 0x3d

  /* Check the parameters */
  assert_param(IS_TIM_CLOCKSOURCE(sClockSourceConfig->ClockSource));

  /* Reset the SMS, TS, ECE, ETPS and ETRF bits */
  tmpsmcr = htim->Instance->SMCR;
 80074e4:	687b      	ldr	r3, [r7, #4]
 80074e6:	681b      	ldr	r3, [r3, #0]
 80074e8:	689b      	ldr	r3, [r3, #8]
 80074ea:	60bb      	str	r3, [r7, #8]
  tmpsmcr &= ~(TIM_SMCR_SMS | TIM_SMCR_TS);
 80074ec:	68bb      	ldr	r3, [r7, #8]
 80074ee:	f423 3380 	bic.w	r3, r3, #65536	; 0x10000
 80074f2:	f023 0377 	bic.w	r3, r3, #119	; 0x77
 80074f6:	60bb      	str	r3, [r7, #8]
  tmpsmcr &= ~(TIM_SMCR_ETF | TIM_SMCR_ETPS | TIM_SMCR_ECE | TIM_SMCR_ETP);
 80074f8:	68bb      	ldr	r3, [r7, #8]
 80074fa:	f423 437f 	bic.w	r3, r3, #65280	; 0xff00
 80074fe:	60bb      	str	r3, [r7, #8]
  htim->Instance->SMCR = tmpsmcr;
 8007500:	687b      	ldr	r3, [r7, #4]
 8007502:	681b      	ldr	r3, [r3, #0]
 8007504:	68ba      	ldr	r2, [r7, #8]
 8007506:	609a      	str	r2, [r3, #8]

  switch (sClockSourceConfig->ClockSource)
 8007508:	683b      	ldr	r3, [r7, #0]
 800750a:	681b      	ldr	r3, [r3, #0]
 800750c:	f5b3 5f00 	cmp.w	r3, #8192	; 0x2000
 8007510:	d03e      	beq.n	8007590 <HAL_TIM_ConfigClockSource+0xd8>
 8007512:	f5b3 5f00 	cmp.w	r3, #8192	; 0x2000
 8007516:	f200 8087 	bhi.w	8007628 <HAL_TIM_ConfigClockSource+0x170>
 800751a:	f5b3 5f80 	cmp.w	r3, #4096	; 0x1000
 800751e:	f000 8086 	beq.w	800762e <HAL_TIM_ConfigClockSource+0x176>
 8007522:	f5b3 5f80 	cmp.w	r3, #4096	; 0x1000
 8007526:	d87f      	bhi.n	8007628 <HAL_TIM_ConfigClockSource+0x170>
 8007528:	2b70      	cmp	r3, #112	; 0x70
 800752a:	d01a      	beq.n	8007562 <HAL_TIM_ConfigClockSource+0xaa>
 800752c:	2b70      	cmp	r3, #112	; 0x70
 800752e:	d87b      	bhi.n	8007628 <HAL_TIM_ConfigClockSource+0x170>
 8007530:	2b60      	cmp	r3, #96	; 0x60
 8007532:	d050      	beq.n	80075d6 <HAL_TIM_ConfigClockSource+0x11e>
 8007534:	2b60      	cmp	r3, #96	; 0x60
 8007536:	d877      	bhi.n	8007628 <HAL_TIM_ConfigClockSource+0x170>
 8007538:	2b50      	cmp	r3, #80	; 0x50
 800753a:	d03c      	beq.n	80075b6 <HAL_TIM_ConfigClockSource+0xfe>
 800753c:	2b50      	cmp	r3, #80	; 0x50
 800753e:	d873      	bhi.n	8007628 <HAL_TIM_ConfigClockSource+0x170>
 8007540:	2b40      	cmp	r3, #64	; 0x40
 8007542:	d058      	beq.n	80075f6 <HAL_TIM_ConfigClockSource+0x13e>
 8007544:	2b40      	cmp	r3, #64	; 0x40
 8007546:	d86f      	bhi.n	8007628 <HAL_TIM_ConfigClockSource+0x170>
 8007548:	2b30      	cmp	r3, #48	; 0x30
 800754a:	d064      	beq.n	8007616 <HAL_TIM_ConfigClockSource+0x15e>
 800754c:	2b30      	cmp	r3, #48	; 0x30
 800754e:	d86b      	bhi.n	8007628 <HAL_TIM_ConfigClockSource+0x170>
 8007550:	2b20      	cmp	r3, #32
 8007552:	d060      	beq.n	8007616 <HAL_TIM_ConfigClockSource+0x15e>
 8007554:	2b20      	cmp	r3, #32
 8007556:	d867      	bhi.n	8007628 <HAL_TIM_ConfigClockSource+0x170>
 8007558:	2b00      	cmp	r3, #0
 800755a:	d05c      	beq.n	8007616 <HAL_TIM_ConfigClockSource+0x15e>
 800755c:	2b10      	cmp	r3, #16
 800755e:	d05a      	beq.n	8007616 <HAL_TIM_ConfigClockSource+0x15e>
 8007560:	e062      	b.n	8007628 <HAL_TIM_ConfigClockSource+0x170>
      assert_param(IS_TIM_CLOCKPRESCALER(sClockSourceConfig->ClockPrescaler));
      assert_param(IS_TIM_CLOCKPOLARITY(sClockSourceConfig->ClockPolarity));
      assert_param(IS_TIM_CLOCKFILTER(sClockSourceConfig->ClockFilter));

      /* Configure the ETR Clock source */
      TIM_ETR_SetConfig(htim->Instance,
 8007562:	687b      	ldr	r3, [r7, #4]
 8007564:	6818      	ldr	r0, [r3, #0]
 8007566:	683b      	ldr	r3, [r7, #0]
 8007568:	6899      	ldr	r1, [r3, #8]
 800756a:	683b      	ldr	r3, [r7, #0]
 800756c:	685a      	ldr	r2, [r3, #4]
 800756e:	683b      	ldr	r3, [r7, #0]
 8007570:	68db      	ldr	r3, [r3, #12]
 8007572:	f000 f985 	bl	8007880 <TIM_ETR_SetConfig>
                        sClockSourceConfig->ClockPrescaler,
                        sClockSourceConfig->ClockPolarity,
                        sClockSourceConfig->ClockFilter);

      /* Select the External clock mode1 and the ETRF trigger */
      tmpsmcr = htim->Instance->SMCR;
 8007576:	687b      	ldr	r3, [r7, #4]
 8007578:	681b      	ldr	r3, [r3, #0]
 800757a:	689b      	ldr	r3, [r3, #8]
 800757c:	60bb      	str	r3, [r7, #8]
      tmpsmcr |= (TIM_SLAVEMODE_EXTERNAL1 | TIM_CLOCKSOURCE_ETRMODE1);
 800757e:	68bb      	ldr	r3, [r7, #8]
 8007580:	f043 0377 	orr.w	r3, r3, #119	; 0x77
 8007584:	60bb      	str	r3, [r7, #8]
      /* Write to TIMx SMCR */
      htim->Instance->SMCR = tmpsmcr;
 8007586:	687b      	ldr	r3, [r7, #4]
 8007588:	681b      	ldr	r3, [r3, #0]
 800758a:	68ba      	ldr	r2, [r7, #8]
 800758c:	609a      	str	r2, [r3, #8]
      break;
 800758e:	e04f      	b.n	8007630 <HAL_TIM_ConfigClockSource+0x178>
      assert_param(IS_TIM_CLOCKPRESCALER(sClockSourceConfig->ClockPrescaler));
      assert_param(IS_TIM_CLOCKPOLARITY(sClockSourceConfig->ClockPolarity));
      assert_param(IS_TIM_CLOCKFILTER(sClockSourceConfig->ClockFilter));

      /* Configure the ETR Clock source */
      TIM_ETR_SetConfig(htim->Instance,
 8007590:	687b      	ldr	r3, [r7, #4]
 8007592:	6818      	ldr	r0, [r3, #0]
 8007594:	683b      	ldr	r3, [r7, #0]
 8007596:	6899      	ldr	r1, [r3, #8]
 8007598:	683b      	ldr	r3, [r7, #0]
 800759a:	685a      	ldr	r2, [r3, #4]
 800759c:	683b      	ldr	r3, [r7, #0]
 800759e:	68db      	ldr	r3, [r3, #12]
 80075a0:	f000 f96e 	bl	8007880 <TIM_ETR_SetConfig>
                        sClockSourceConfig->ClockPrescaler,
                        sClockSourceConfig->ClockPolarity,
                        sClockSourceConfig->ClockFilter);
      /* Enable the External clock mode2 */
      htim->Instance->SMCR |= TIM_SMCR_ECE;
 80075a4:	687b      	ldr	r3, [r7, #4]
 80075a6:	681b      	ldr	r3, [r3, #0]
 80075a8:	689a      	ldr	r2, [r3, #8]
 80075aa:	687b      	ldr	r3, [r7, #4]
 80075ac:	681b      	ldr	r3, [r3, #0]
 80075ae:	f442 4280 	orr.w	r2, r2, #16384	; 0x4000
 80075b2:	609a      	str	r2, [r3, #8]
      break;
 80075b4:	e03c      	b.n	8007630 <HAL_TIM_ConfigClockSource+0x178>

      /* Check TI1 input conditioning related parameters */
      assert_param(IS_TIM_CLOCKPOLARITY(sClockSourceConfig->ClockPolarity));
      assert_param(IS_TIM_CLOCKFILTER(sClockSourceConfig->ClockFilter));

      TIM_TI1_ConfigInputStage(htim->Instance,
 80075b6:	687b      	ldr	r3, [r7, #4]
 80075b8:	6818      	ldr	r0, [r3, #0]
 80075ba:	683b      	ldr	r3, [r7, #0]
 80075bc:	6859      	ldr	r1, [r3, #4]
 80075be:	683b      	ldr	r3, [r7, #0]
 80075c0:	68db      	ldr	r3, [r3, #12]
 80075c2:	461a      	mov	r2, r3
 80075c4:	f000 f8e2 	bl	800778c <TIM_TI1_ConfigInputStage>
                               sClockSourceConfig->ClockPolarity,
                               sClockSourceConfig->ClockFilter);
      TIM_ITRx_SetConfig(htim->Instance, TIM_CLOCKSOURCE_TI1);
 80075c8:	687b      	ldr	r3, [r7, #4]
 80075ca:	681b      	ldr	r3, [r3, #0]
 80075cc:	2150      	movs	r1, #80	; 0x50
 80075ce:	4618      	mov	r0, r3
 80075d0:	f000 f93b 	bl	800784a <TIM_ITRx_SetConfig>
      break;
 80075d4:	e02c      	b.n	8007630 <HAL_TIM_ConfigClockSource+0x178>

      /* Check TI2 input conditioning related parameters */
      assert_param(IS_TIM_CLOCKPOLARITY(sClockSourceConfig->ClockPolarity));
      assert_param(IS_TIM_CLOCKFILTER(sClockSourceConfig->ClockFilter));

      TIM_TI2_ConfigInputStage(htim->Instance,
 80075d6:	687b      	ldr	r3, [r7, #4]
 80075d8:	6818      	ldr	r0, [r3, #0]
 80075da:	683b      	ldr	r3, [r7, #0]
 80075dc:	6859      	ldr	r1, [r3, #4]
 80075de:	683b      	ldr	r3, [r7, #0]
 80075e0:	68db      	ldr	r3, [r3, #12]
 80075e2:	461a      	mov	r2, r3
 80075e4:	f000 f901 	bl	80077ea <TIM_TI2_ConfigInputStage>
                               sClockSourceConfig->ClockPolarity,
                               sClockSourceConfig->ClockFilter);
      TIM_ITRx_SetConfig(htim->Instance, TIM_CLOCKSOURCE_TI2);
 80075e8:	687b      	ldr	r3, [r7, #4]
 80075ea:	681b      	ldr	r3, [r3, #0]
 80075ec:	2160      	movs	r1, #96	; 0x60
 80075ee:	4618      	mov	r0, r3
 80075f0:	f000 f92b 	bl	800784a <TIM_ITRx_SetConfig>
      break;
 80075f4:	e01c      	b.n	8007630 <HAL_TIM_ConfigClockSource+0x178>

      /* Check TI1 input conditioning related parameters */
      assert_param(IS_TIM_CLOCKPOLARITY(sClockSourceConfig->ClockPolarity));
      assert_param(IS_TIM_CLOCKFILTER(sClockSourceConfig->ClockFilter));

      TIM_TI1_ConfigInputStage(htim->Instance,
 80075f6:	687b      	ldr	r3, [r7, #4]
 80075f8:	6818      	ldr	r0, [r3, #0]
 80075fa:	683b      	ldr	r3, [r7, #0]
 80075fc:	6859      	ldr	r1, [r3, #4]
 80075fe:	683b      	ldr	r3, [r7, #0]
 8007600:	68db      	ldr	r3, [r3, #12]
 8007602:	461a      	mov	r2, r3
 8007604:	f000 f8c2 	bl	800778c <TIM_TI1_ConfigInputStage>
                               sClockSourceConfig->ClockPolarity,
                               sClockSourceConfig->ClockFilter);
      TIM_ITRx_SetConfig(htim->Instance, TIM_CLOCKSOURCE_TI1ED);
 8007608:	687b      	ldr	r3, [r7, #4]
 800760a:	681b      	ldr	r3, [r3, #0]
 800760c:	2140      	movs	r1, #64	; 0x40
 800760e:	4618      	mov	r0, r3
 8007610:	f000 f91b 	bl	800784a <TIM_ITRx_SetConfig>
      break;
 8007614:	e00c      	b.n	8007630 <HAL_TIM_ConfigClockSource+0x178>
    case TIM_CLOCKSOURCE_ITR3:
    {
      /* Check whether or not the timer instance supports internal trigger input */
      assert_param(IS_TIM_CLOCKSOURCE_ITRX_INSTANCE(htim->Instance));

      TIM_ITRx_SetConfig(htim->Instance, sClockSourceConfig->ClockSource);
 8007616:	687b      	ldr	r3, [r7, #4]
 8007618:	681a      	ldr	r2, [r3, #0]
 800761a:	683b      	ldr	r3, [r7, #0]
 800761c:	681b      	ldr	r3, [r3, #0]
 800761e:	4619      	mov	r1, r3
 8007620:	4610      	mov	r0, r2
 8007622:	f000 f912 	bl	800784a <TIM_ITRx_SetConfig>
      break;
 8007626:	e003      	b.n	8007630 <HAL_TIM_ConfigClockSource+0x178>
    }

    default:
      status = HAL_ERROR;
 8007628:	2301      	movs	r3, #1
 800762a:	73fb      	strb	r3, [r7, #15]
      break;
 800762c:	e000      	b.n	8007630 <HAL_TIM_ConfigClockSource+0x178>
      break;
 800762e:	bf00      	nop
  }
  htim->State = HAL_TIM_STATE_READY;
 8007630:	687b      	ldr	r3, [r7, #4]
 8007632:	2201      	movs	r2, #1
 8007634:	f883 203d 	strb.w	r2, [r3, #61]	; 0x3d

  __HAL_UNLOCK(htim);
 8007638:	687b      	ldr	r3, [r7, #4]
 800763a:	2200      	movs	r2, #0
 800763c:	f883 203c 	strb.w	r2, [r3, #60]	; 0x3c

  return status;
 8007640:	7bfb      	ldrb	r3, [r7, #15]
}
 8007642:	4618      	mov	r0, r3
 8007644:	3710      	adds	r7, #16
 8007646:	46bd      	mov	sp, r7
 8007648:	bd80      	pop	{r7, pc}

0800764a <HAL_TIM_PeriodElapsedCallback>:
  * @brief  Period elapsed callback in non-blocking mode
  * @param  htim TIM handle
  * @retval None
  */
__weak void HAL_TIM_PeriodElapsedCallback(TIM_HandleTypeDef *htim)
{
 800764a:	b480      	push	{r7}
 800764c:	b083      	sub	sp, #12
 800764e:	af00      	add	r7, sp, #0
 8007650:	6078      	str	r0, [r7, #4]
  UNUSED(htim);

  /* NOTE : This function should not be modified, when the callback is needed,
            the HAL_TIM_PeriodElapsedCallback could be implemented in the user file
   */
}
 8007652:	bf00      	nop
 8007654:	370c      	adds	r7, #12
 8007656:	46bd      	mov	sp, r7
 8007658:	f85d 7b04 	ldr.w	r7, [sp], #4
 800765c:	4770      	bx	lr

0800765e <HAL_TIM_OC_DelayElapsedCallback>:
  * @brief  Output Compare callback in non-blocking mode
  * @param  htim TIM OC handle
  * @retval None
  */
__weak void HAL_TIM_OC_DelayElapsedCallback(TIM_HandleTypeDef *htim)
{
 800765e:	b480      	push	{r7}
 8007660:	b083      	sub	sp, #12
 8007662:	af00      	add	r7, sp, #0
 8007664:	6078      	str	r0, [r7, #4]
  UNUSED(htim);

  /* NOTE : This function should not be modified, when the callback is needed,
            the HAL_TIM_OC_DelayElapsedCallback could be implemented in the user file
   */
}
 8007666:	bf00      	nop
 8007668:	370c      	adds	r7, #12
 800766a:	46bd      	mov	sp, r7
 800766c:	f85d 7b04 	ldr.w	r7, [sp], #4
 8007670:	4770      	bx	lr

08007672 <HAL_TIM_IC_CaptureCallback>:
  * @brief  Input Capture callback in non-blocking mode
  * @param  htim TIM IC handle
  * @retval None
  */
__weak void HAL_TIM_IC_CaptureCallback(TIM_HandleTypeDef *htim)
{
 8007672:	b480      	push	{r7}
 8007674:	b083      	sub	sp, #12
 8007676:	af00      	add	r7, sp, #0
 8007678:	6078      	str	r0, [r7, #4]
  UNUSED(htim);

  /* NOTE : This function should not be modified, when the callback is needed,
            the HAL_TIM_IC_CaptureCallback could be implemented in the user file
   */
}
 800767a:	bf00      	nop
 800767c:	370c      	adds	r7, #12
 800767e:	46bd      	mov	sp, r7
 8007680:	f85d 7b04 	ldr.w	r7, [sp], #4
 8007684:	4770      	bx	lr

08007686 <HAL_TIM_PWM_PulseFinishedCallback>:
  * @brief  PWM Pulse finished callback in non-blocking mode
  * @param  htim TIM handle
  * @retval None
  */
__weak void HAL_TIM_PWM_PulseFinishedCallback(TIM_HandleTypeDef *htim)
{
 8007686:	b480      	push	{r7}
 8007688:	b083      	sub	sp, #12
 800768a:	af00      	add	r7, sp, #0
 800768c:	6078      	str	r0, [r7, #4]
  UNUSED(htim);

  /* NOTE : This function should not be modified, when the callback is needed,
            the HAL_TIM_PWM_PulseFinishedCallback could be implemented in the user file
   */
}
 800768e:	bf00      	nop
 8007690:	370c      	adds	r7, #12
 8007692:	46bd      	mov	sp, r7
 8007694:	f85d 7b04 	ldr.w	r7, [sp], #4
 8007698:	4770      	bx	lr

0800769a <HAL_TIM_TriggerCallback>:
  * @brief  Hall Trigger detection callback in non-blocking mode
  * @param  htim TIM handle
  * @retval None
  */
__weak void HAL_TIM_TriggerCallback(TIM_HandleTypeDef *htim)
{
 800769a:	b480      	push	{r7}
 800769c:	b083      	sub	sp, #12
 800769e:	af00      	add	r7, sp, #0
 80076a0:	6078      	str	r0, [r7, #4]
  UNUSED(htim);

  /* NOTE : This function should not be modified, when the callback is needed,
            the HAL_TIM_TriggerCallback could be implemented in the user file
   */
}
 80076a2:	bf00      	nop
 80076a4:	370c      	adds	r7, #12
 80076a6:	46bd      	mov	sp, r7
 80076a8:	f85d 7b04 	ldr.w	r7, [sp], #4
 80076ac:	4770      	bx	lr
	...

080076b0 <TIM_Base_SetConfig>:
  * @param  TIMx TIM peripheral
  * @param  Structure TIM Base configuration structure
  * @retval None
  */
void TIM_Base_SetConfig(TIM_TypeDef *TIMx, TIM_Base_InitTypeDef *Structure)
{
 80076b0:	b480      	push	{r7}
 80076b2:	b085      	sub	sp, #20
 80076b4:	af00      	add	r7, sp, #0
 80076b6:	6078      	str	r0, [r7, #4]
 80076b8:	6039      	str	r1, [r7, #0]
  uint32_t tmpcr1;
  tmpcr1 = TIMx->CR1;
 80076ba:	687b      	ldr	r3, [r7, #4]
 80076bc:	681b      	ldr	r3, [r3, #0]
 80076be:	60fb      	str	r3, [r7, #12]

  /* Set TIM Time Base Unit parameters ---------------------------------------*/
  if (IS_TIM_COUNTER_MODE_SELECT_INSTANCE(TIMx))
 80076c0:	687b      	ldr	r3, [r7, #4]
 80076c2:	4a2e      	ldr	r2, [pc, #184]	; (800777c <TIM_Base_SetConfig+0xcc>)
 80076c4:	4293      	cmp	r3, r2
 80076c6:	d003      	beq.n	80076d0 <TIM_Base_SetConfig+0x20>
 80076c8:	687b      	ldr	r3, [r7, #4]
 80076ca:	f1b3 4f80 	cmp.w	r3, #1073741824	; 0x40000000
 80076ce:	d108      	bne.n	80076e2 <TIM_Base_SetConfig+0x32>
  {
    /* Select the Counter Mode */
    tmpcr1 &= ~(TIM_CR1_DIR | TIM_CR1_CMS);
 80076d0:	68fb      	ldr	r3, [r7, #12]
 80076d2:	f023 0370 	bic.w	r3, r3, #112	; 0x70
 80076d6:	60fb      	str	r3, [r7, #12]
    tmpcr1 |= Structure->CounterMode;
 80076d8:	683b      	ldr	r3, [r7, #0]
 80076da:	685b      	ldr	r3, [r3, #4]
 80076dc:	68fa      	ldr	r2, [r7, #12]
 80076de:	4313      	orrs	r3, r2
 80076e0:	60fb      	str	r3, [r7, #12]
  }

  if (IS_TIM_CLOCK_DIVISION_INSTANCE(TIMx))
 80076e2:	687b      	ldr	r3, [r7, #4]
 80076e4:	4a25      	ldr	r2, [pc, #148]	; (800777c <TIM_Base_SetConfig+0xcc>)
 80076e6:	4293      	cmp	r3, r2
 80076e8:	d00f      	beq.n	800770a <TIM_Base_SetConfig+0x5a>
 80076ea:	687b      	ldr	r3, [r7, #4]
 80076ec:	f1b3 4f80 	cmp.w	r3, #1073741824	; 0x40000000
 80076f0:	d00b      	beq.n	800770a <TIM_Base_SetConfig+0x5a>
 80076f2:	687b      	ldr	r3, [r7, #4]
 80076f4:	4a22      	ldr	r2, [pc, #136]	; (8007780 <TIM_Base_SetConfig+0xd0>)
 80076f6:	4293      	cmp	r3, r2
 80076f8:	d007      	beq.n	800770a <TIM_Base_SetConfig+0x5a>
 80076fa:	687b      	ldr	r3, [r7, #4]
 80076fc:	4a21      	ldr	r2, [pc, #132]	; (8007784 <TIM_Base_SetConfig+0xd4>)
 80076fe:	4293      	cmp	r3, r2
 8007700:	d003      	beq.n	800770a <TIM_Base_SetConfig+0x5a>
 8007702:	687b      	ldr	r3, [r7, #4]
 8007704:	4a20      	ldr	r2, [pc, #128]	; (8007788 <TIM_Base_SetConfig+0xd8>)
 8007706:	4293      	cmp	r3, r2
 8007708:	d108      	bne.n	800771c <TIM_Base_SetConfig+0x6c>
  {
    /* Set the clock division */
    tmpcr1 &= ~TIM_CR1_CKD;
 800770a:	68fb      	ldr	r3, [r7, #12]
 800770c:	f423 7340 	bic.w	r3, r3, #768	; 0x300
 8007710:	60fb      	str	r3, [r7, #12]
    tmpcr1 |= (uint32_t)Structure->ClockDivision;
 8007712:	683b      	ldr	r3, [r7, #0]
 8007714:	68db      	ldr	r3, [r3, #12]
 8007716:	68fa      	ldr	r2, [r7, #12]
 8007718:	4313      	orrs	r3, r2
 800771a:	60fb      	str	r3, [r7, #12]
  }

  /* Set the auto-reload preload */
  MODIFY_REG(tmpcr1, TIM_CR1_ARPE, Structure->AutoReloadPreload);
 800771c:	68fb      	ldr	r3, [r7, #12]
 800771e:	f023 0280 	bic.w	r2, r3, #128	; 0x80
 8007722:	683b      	ldr	r3, [r7, #0]
 8007724:	695b      	ldr	r3, [r3, #20]
 8007726:	4313      	orrs	r3, r2
 8007728:	60fb      	str	r3, [r7, #12]

  TIMx->CR1 = tmpcr1;
 800772a:	687b      	ldr	r3, [r7, #4]
 800772c:	68fa      	ldr	r2, [r7, #12]
 800772e:	601a      	str	r2, [r3, #0]

  /* Set the Autoreload value */
  TIMx->ARR = (uint32_t)Structure->Period ;
 8007730:	683b      	ldr	r3, [r7, #0]
 8007732:	689a      	ldr	r2, [r3, #8]
 8007734:	687b      	ldr	r3, [r7, #4]
 8007736:	62da      	str	r2, [r3, #44]	; 0x2c

  /* Set the Prescaler value */
  TIMx->PSC = Structure->Prescaler;
 8007738:	683b      	ldr	r3, [r7, #0]
 800773a:	681a      	ldr	r2, [r3, #0]
 800773c:	687b      	ldr	r3, [r7, #4]
 800773e:	629a      	str	r2, [r3, #40]	; 0x28

  if (IS_TIM_REPETITION_COUNTER_INSTANCE(TIMx))
 8007740:	687b      	ldr	r3, [r7, #4]
 8007742:	4a0e      	ldr	r2, [pc, #56]	; (800777c <TIM_Base_SetConfig+0xcc>)
 8007744:	4293      	cmp	r3, r2
 8007746:	d00b      	beq.n	8007760 <TIM_Base_SetConfig+0xb0>
 8007748:	687b      	ldr	r3, [r7, #4]
 800774a:	4a0d      	ldr	r2, [pc, #52]	; (8007780 <TIM_Base_SetConfig+0xd0>)
 800774c:	4293      	cmp	r3, r2
 800774e:	d007      	beq.n	8007760 <TIM_Base_SetConfig+0xb0>
 8007750:	687b      	ldr	r3, [r7, #4]
 8007752:	4a0c      	ldr	r2, [pc, #48]	; (8007784 <TIM_Base_SetConfig+0xd4>)
 8007754:	4293      	cmp	r3, r2
 8007756:	d003      	beq.n	8007760 <TIM_Base_SetConfig+0xb0>
 8007758:	687b      	ldr	r3, [r7, #4]
 800775a:	4a0b      	ldr	r2, [pc, #44]	; (8007788 <TIM_Base_SetConfig+0xd8>)
 800775c:	4293      	cmp	r3, r2
 800775e:	d103      	bne.n	8007768 <TIM_Base_SetConfig+0xb8>
  {
    /* Set the Repetition Counter value */
    TIMx->RCR = Structure->RepetitionCounter;
 8007760:	683b      	ldr	r3, [r7, #0]
 8007762:	691a      	ldr	r2, [r3, #16]
 8007764:	687b      	ldr	r3, [r7, #4]
 8007766:	631a      	str	r2, [r3, #48]	; 0x30
  }

  /* Generate an update event to reload the Prescaler
     and the repetition counter (only for advanced timer) value immediately */
  TIMx->EGR = TIM_EGR_UG;
 8007768:	687b      	ldr	r3, [r7, #4]
 800776a:	2201      	movs	r2, #1
 800776c:	615a      	str	r2, [r3, #20]
}
 800776e:	bf00      	nop
 8007770:	3714      	adds	r7, #20
 8007772:	46bd      	mov	sp, r7
 8007774:	f85d 7b04 	ldr.w	r7, [sp], #4
 8007778:	4770      	bx	lr
 800777a:	bf00      	nop
 800777c:	40012c00 	.word	0x40012c00
 8007780:	40014000 	.word	0x40014000
 8007784:	40014400 	.word	0x40014400
 8007788:	40014800 	.word	0x40014800

0800778c <TIM_TI1_ConfigInputStage>:
  * @param  TIM_ICFilter Specifies the Input Capture Filter.
  *          This parameter must be a value between 0x00 and 0x0F.
  * @retval None
  */
static void TIM_TI1_ConfigInputStage(TIM_TypeDef *TIMx, uint32_t TIM_ICPolarity, uint32_t TIM_ICFilter)
{
 800778c:	b480      	push	{r7}
 800778e:	b087      	sub	sp, #28
 8007790:	af00      	add	r7, sp, #0
 8007792:	60f8      	str	r0, [r7, #12]
 8007794:	60b9      	str	r1, [r7, #8]
 8007796:	607a      	str	r2, [r7, #4]
  uint32_t tmpccmr1;
  uint32_t tmpccer;

  /* Disable the Channel 1: Reset the CC1E Bit */
  tmpccer = TIMx->CCER;
 8007798:	68fb      	ldr	r3, [r7, #12]
 800779a:	6a1b      	ldr	r3, [r3, #32]
 800779c:	617b      	str	r3, [r7, #20]
  TIMx->CCER &= ~TIM_CCER_CC1E;
 800779e:	68fb      	ldr	r3, [r7, #12]
 80077a0:	6a1b      	ldr	r3, [r3, #32]
 80077a2:	f023 0201 	bic.w	r2, r3, #1
 80077a6:	68fb      	ldr	r3, [r7, #12]
 80077a8:	621a      	str	r2, [r3, #32]
  tmpccmr1 = TIMx->CCMR1;
 80077aa:	68fb      	ldr	r3, [r7, #12]
 80077ac:	699b      	ldr	r3, [r3, #24]
 80077ae:	613b      	str	r3, [r7, #16]

  /* Set the filter */
  tmpccmr1 &= ~TIM_CCMR1_IC1F;
 80077b0:	693b      	ldr	r3, [r7, #16]
 80077b2:	f023 03f0 	bic.w	r3, r3, #240	; 0xf0
 80077b6:	613b      	str	r3, [r7, #16]
  tmpccmr1 |= (TIM_ICFilter << 4U);
 80077b8:	687b      	ldr	r3, [r7, #4]
 80077ba:	011b      	lsls	r3, r3, #4
 80077bc:	693a      	ldr	r2, [r7, #16]
 80077be:	4313      	orrs	r3, r2
 80077c0:	613b      	str	r3, [r7, #16]

  /* Select the Polarity and set the CC1E Bit */
  tmpccer &= ~(TIM_CCER_CC1P | TIM_CCER_CC1NP);
 80077c2:	697b      	ldr	r3, [r7, #20]
 80077c4:	f023 030a 	bic.w	r3, r3, #10
 80077c8:	617b      	str	r3, [r7, #20]
  tmpccer |= TIM_ICPolarity;
 80077ca:	697a      	ldr	r2, [r7, #20]
 80077cc:	68bb      	ldr	r3, [r7, #8]
 80077ce:	4313      	orrs	r3, r2
 80077d0:	617b      	str	r3, [r7, #20]

  /* Write to TIMx CCMR1 and CCER registers */
  TIMx->CCMR1 = tmpccmr1;
 80077d2:	68fb      	ldr	r3, [r7, #12]
 80077d4:	693a      	ldr	r2, [r7, #16]
 80077d6:	619a      	str	r2, [r3, #24]
  TIMx->CCER = tmpccer;
 80077d8:	68fb      	ldr	r3, [r7, #12]
 80077da:	697a      	ldr	r2, [r7, #20]
 80077dc:	621a      	str	r2, [r3, #32]
}
 80077de:	bf00      	nop
 80077e0:	371c      	adds	r7, #28
 80077e2:	46bd      	mov	sp, r7
 80077e4:	f85d 7b04 	ldr.w	r7, [sp], #4
 80077e8:	4770      	bx	lr

080077ea <TIM_TI2_ConfigInputStage>:
  * @param  TIM_ICFilter Specifies the Input Capture Filter.
  *          This parameter must be a value between 0x00 and 0x0F.
  * @retval None
  */
static void TIM_TI2_ConfigInputStage(TIM_TypeDef *TIMx, uint32_t TIM_ICPolarity, uint32_t TIM_ICFilter)
{
 80077ea:	b480      	push	{r7}
 80077ec:	b087      	sub	sp, #28
 80077ee:	af00      	add	r7, sp, #0
 80077f0:	60f8      	str	r0, [r7, #12]
 80077f2:	60b9      	str	r1, [r7, #8]
 80077f4:	607a      	str	r2, [r7, #4]
  uint32_t tmpccmr1;
  uint32_t tmpccer;

  /* Disable the Channel 2: Reset the CC2E Bit */
  TIMx->CCER &= ~TIM_CCER_CC2E;
 80077f6:	68fb      	ldr	r3, [r7, #12]
 80077f8:	6a1b      	ldr	r3, [r3, #32]
 80077fa:	f023 0210 	bic.w	r2, r3, #16
 80077fe:	68fb      	ldr	r3, [r7, #12]
 8007800:	621a      	str	r2, [r3, #32]
  tmpccmr1 = TIMx->CCMR1;
 8007802:	68fb      	ldr	r3, [r7, #12]
 8007804:	699b      	ldr	r3, [r3, #24]
 8007806:	617b      	str	r3, [r7, #20]
  tmpccer = TIMx->CCER;
 8007808:	68fb      	ldr	r3, [r7, #12]
 800780a:	6a1b      	ldr	r3, [r3, #32]
 800780c:	613b      	str	r3, [r7, #16]

  /* Set the filter */
  tmpccmr1 &= ~TIM_CCMR1_IC2F;
 800780e:	697b      	ldr	r3, [r7, #20]
 8007810:	f423 4370 	bic.w	r3, r3, #61440	; 0xf000
 8007814:	617b      	str	r3, [r7, #20]
  tmpccmr1 |= (TIM_ICFilter << 12U);
 8007816:	687b      	ldr	r3, [r7, #4]
 8007818:	031b      	lsls	r3, r3, #12
 800781a:	697a      	ldr	r2, [r7, #20]
 800781c:	4313      	orrs	r3, r2
 800781e:	617b      	str	r3, [r7, #20]

  /* Select the Polarity and set the CC2E Bit */
  tmpccer &= ~(TIM_CCER_CC2P | TIM_CCER_CC2NP);
 8007820:	693b      	ldr	r3, [r7, #16]
 8007822:	f023 03a0 	bic.w	r3, r3, #160	; 0xa0
 8007826:	613b      	str	r3, [r7, #16]
  tmpccer |= (TIM_ICPolarity << 4U);
 8007828:	68bb      	ldr	r3, [r7, #8]
 800782a:	011b      	lsls	r3, r3, #4
 800782c:	693a      	ldr	r2, [r7, #16]
 800782e:	4313      	orrs	r3, r2
 8007830:	613b      	str	r3, [r7, #16]

  /* Write to TIMx CCMR1 and CCER registers */
  TIMx->CCMR1 = tmpccmr1 ;
 8007832:	68fb      	ldr	r3, [r7, #12]
 8007834:	697a      	ldr	r2, [r7, #20]
 8007836:	619a      	str	r2, [r3, #24]
  TIMx->CCER = tmpccer;
 8007838:	68fb      	ldr	r3, [r7, #12]
 800783a:	693a      	ldr	r2, [r7, #16]
 800783c:	621a      	str	r2, [r3, #32]
}
 800783e:	bf00      	nop
 8007840:	371c      	adds	r7, #28
 8007842:	46bd      	mov	sp, r7
 8007844:	f85d 7b04 	ldr.w	r7, [sp], #4
 8007848:	4770      	bx	lr

0800784a <TIM_ITRx_SetConfig>:
  *            @arg TIM_TS_TI2FP2: Filtered Timer Input 2
  *            @arg TIM_TS_ETRF: External Trigger input
  * @retval None
  */
static void TIM_ITRx_SetConfig(TIM_TypeDef *TIMx, uint32_t InputTriggerSource)
{
 800784a:	b480      	push	{r7}
 800784c:	b085      	sub	sp, #20
 800784e:	af00      	add	r7, sp, #0
 8007850:	6078      	str	r0, [r7, #4]
 8007852:	6039      	str	r1, [r7, #0]
  uint32_t tmpsmcr;

  /* Get the TIMx SMCR register value */
  tmpsmcr = TIMx->SMCR;
 8007854:	687b      	ldr	r3, [r7, #4]
 8007856:	689b      	ldr	r3, [r3, #8]
 8007858:	60fb      	str	r3, [r7, #12]
  /* Reset the TS Bits */
  tmpsmcr &= ~TIM_SMCR_TS;
 800785a:	68fb      	ldr	r3, [r7, #12]
 800785c:	f023 0370 	bic.w	r3, r3, #112	; 0x70
 8007860:	60fb      	str	r3, [r7, #12]
  /* Set the Input Trigger source and the slave mode*/
  tmpsmcr |= (InputTriggerSource | TIM_SLAVEMODE_EXTERNAL1);
 8007862:	683a      	ldr	r2, [r7, #0]
 8007864:	68fb      	ldr	r3, [r7, #12]
 8007866:	4313      	orrs	r3, r2
 8007868:	f043 0307 	orr.w	r3, r3, #7
 800786c:	60fb      	str	r3, [r7, #12]
  /* Write to TIMx SMCR */
  TIMx->SMCR = tmpsmcr;
 800786e:	687b      	ldr	r3, [r7, #4]
 8007870:	68fa      	ldr	r2, [r7, #12]
 8007872:	609a      	str	r2, [r3, #8]
}
 8007874:	bf00      	nop
 8007876:	3714      	adds	r7, #20
 8007878:	46bd      	mov	sp, r7
 800787a:	f85d 7b04 	ldr.w	r7, [sp], #4
 800787e:	4770      	bx	lr

08007880 <TIM_ETR_SetConfig>:
  *          This parameter must be a value between 0x00 and 0x0F
  * @retval None
  */
void TIM_ETR_SetConfig(TIM_TypeDef *TIMx, uint32_t TIM_ExtTRGPrescaler,
                       uint32_t TIM_ExtTRGPolarity, uint32_t ExtTRGFilter)
{
 8007880:	b480      	push	{r7}
 8007882:	b087      	sub	sp, #28
 8007884:	af00      	add	r7, sp, #0
 8007886:	60f8      	str	r0, [r7, #12]
 8007888:	60b9      	str	r1, [r7, #8]
 800788a:	607a      	str	r2, [r7, #4]
 800788c:	603b      	str	r3, [r7, #0]
  uint32_t tmpsmcr;

  tmpsmcr = TIMx->SMCR;
 800788e:	68fb      	ldr	r3, [r7, #12]
 8007890:	689b      	ldr	r3, [r3, #8]
 8007892:	617b      	str	r3, [r7, #20]

  /* Reset the ETR Bits */
  tmpsmcr &= ~(TIM_SMCR_ETF | TIM_SMCR_ETPS | TIM_SMCR_ECE | TIM_SMCR_ETP);
 8007894:	697b      	ldr	r3, [r7, #20]
 8007896:	f423 437f 	bic.w	r3, r3, #65280	; 0xff00
 800789a:	617b      	str	r3, [r7, #20]

  /* Set the Prescaler, the Filter value and the Polarity */
  tmpsmcr |= (uint32_t)(TIM_ExtTRGPrescaler | (TIM_ExtTRGPolarity | (ExtTRGFilter << 8U)));
 800789c:	683b      	ldr	r3, [r7, #0]
 800789e:	021a      	lsls	r2, r3, #8
 80078a0:	687b      	ldr	r3, [r7, #4]
 80078a2:	431a      	orrs	r2, r3
 80078a4:	68bb      	ldr	r3, [r7, #8]
 80078a6:	4313      	orrs	r3, r2
 80078a8:	697a      	ldr	r2, [r7, #20]
 80078aa:	4313      	orrs	r3, r2
 80078ac:	617b      	str	r3, [r7, #20]

  /* Write to TIMx SMCR */
  TIMx->SMCR = tmpsmcr;
 80078ae:	68fb      	ldr	r3, [r7, #12]
 80078b0:	697a      	ldr	r2, [r7, #20]
 80078b2:	609a      	str	r2, [r3, #8]
}
 80078b4:	bf00      	nop
 80078b6:	371c      	adds	r7, #28
 80078b8:	46bd      	mov	sp, r7
 80078ba:	f85d 7b04 	ldr.w	r7, [sp], #4
 80078be:	4770      	bx	lr

080078c0 <HAL_TIMEx_MasterConfigSynchronization>:
  *         mode.
  * @retval HAL status
  */
HAL_StatusTypeDef HAL_TIMEx_MasterConfigSynchronization(TIM_HandleTypeDef *htim,
                                                        TIM_MasterConfigTypeDef *sMasterConfig)
{
 80078c0:	b480      	push	{r7}
 80078c2:	b085      	sub	sp, #20
 80078c4:	af00      	add	r7, sp, #0
 80078c6:	6078      	str	r0, [r7, #4]
 80078c8:	6039      	str	r1, [r7, #0]
  assert_param(IS_TIM_MASTER_INSTANCE(htim->Instance));
  assert_param(IS_TIM_TRGO_SOURCE(sMasterConfig->MasterOutputTrigger));
  assert_param(IS_TIM_MSM_STATE(sMasterConfig->MasterSlaveMode));

  /* Check input state */
  __HAL_LOCK(htim);
 80078ca:	687b      	ldr	r3, [r7, #4]
 80078cc:	f893 303c 	ldrb.w	r3, [r3, #60]	; 0x3c
 80078d0:	2b01      	cmp	r3, #1
 80078d2:	d101      	bne.n	80078d8 <HAL_TIMEx_MasterConfigSynchronization+0x18>
 80078d4:	2302      	movs	r3, #2
 80078d6:	e04f      	b.n	8007978 <HAL_TIMEx_MasterConfigSynchronization+0xb8>
 80078d8:	687b      	ldr	r3, [r7, #4]
 80078da:	2201      	movs	r2, #1
 80078dc:	f883 203c 	strb.w	r2, [r3, #60]	; 0x3c

  /* Change the handler state */
  htim->State = HAL_TIM_STATE_BUSY;
 80078e0:	687b      	ldr	r3, [r7, #4]
 80078e2:	2202      	movs	r2, #2
 80078e4:	f883 203d 	strb.w	r2, [r3, #61]	; 0x3d

  /* Get the TIMx CR2 register value */
  tmpcr2 = htim->Instance->CR2;
 80078e8:	687b      	ldr	r3, [r7, #4]
 80078ea:	681b      	ldr	r3, [r3, #0]
 80078ec:	685b      	ldr	r3, [r3, #4]
 80078ee:	60fb      	str	r3, [r7, #12]

  /* Get the TIMx SMCR register value */
  tmpsmcr = htim->Instance->SMCR;
 80078f0:	687b      	ldr	r3, [r7, #4]
 80078f2:	681b      	ldr	r3, [r3, #0]
 80078f4:	689b      	ldr	r3, [r3, #8]
 80078f6:	60bb      	str	r3, [r7, #8]

#if defined(TIM_CR2_MMS2)
  /* If the timer supports ADC synchronization through TRGO2, set the master mode selection 2 */
  if (IS_TIM_TRGO2_INSTANCE(htim->Instance))
 80078f8:	687b      	ldr	r3, [r7, #4]
 80078fa:	681b      	ldr	r3, [r3, #0]
 80078fc:	4a21      	ldr	r2, [pc, #132]	; (8007984 <HAL_TIMEx_MasterConfigSynchronization+0xc4>)
 80078fe:	4293      	cmp	r3, r2
 8007900:	d108      	bne.n	8007914 <HAL_TIMEx_MasterConfigSynchronization+0x54>
  {
    /* Check the parameters */
    assert_param(IS_TIM_TRGO2_SOURCE(sMasterConfig->MasterOutputTrigger2));

    /* Clear the MMS2 bits */
    tmpcr2 &= ~TIM_CR2_MMS2;
 8007902:	68fb      	ldr	r3, [r7, #12]
 8007904:	f423 0370 	bic.w	r3, r3, #15728640	; 0xf00000
 8007908:	60fb      	str	r3, [r7, #12]
    /* Select the TRGO2 source*/
    tmpcr2 |= sMasterConfig->MasterOutputTrigger2;
 800790a:	683b      	ldr	r3, [r7, #0]
 800790c:	685b      	ldr	r3, [r3, #4]
 800790e:	68fa      	ldr	r2, [r7, #12]
 8007910:	4313      	orrs	r3, r2
 8007912:	60fb      	str	r3, [r7, #12]
  }
#endif /* TIM_CR2_MMS2 */

  /* Reset the MMS Bits */
  tmpcr2 &= ~TIM_CR2_MMS;
 8007914:	68fb      	ldr	r3, [r7, #12]
 8007916:	f023 0370 	bic.w	r3, r3, #112	; 0x70
 800791a:	60fb      	str	r3, [r7, #12]
  /* Select the TRGO source */
  tmpcr2 |=  sMasterConfig->MasterOutputTrigger;
 800791c:	683b      	ldr	r3, [r7, #0]
 800791e:	681b      	ldr	r3, [r3, #0]
 8007920:	68fa      	ldr	r2, [r7, #12]
 8007922:	4313      	orrs	r3, r2
 8007924:	60fb      	str	r3, [r7, #12]

  /* Update TIMx CR2 */
  htim->Instance->CR2 = tmpcr2;
 8007926:	687b      	ldr	r3, [r7, #4]
 8007928:	681b      	ldr	r3, [r3, #0]
 800792a:	68fa      	ldr	r2, [r7, #12]
 800792c:	605a      	str	r2, [r3, #4]

  if (IS_TIM_SLAVE_INSTANCE(htim->Instance))
 800792e:	687b      	ldr	r3, [r7, #4]
 8007930:	681b      	ldr	r3, [r3, #0]
 8007932:	4a14      	ldr	r2, [pc, #80]	; (8007984 <HAL_TIMEx_MasterConfigSynchronization+0xc4>)
 8007934:	4293      	cmp	r3, r2
 8007936:	d009      	beq.n	800794c <HAL_TIMEx_MasterConfigSynchronization+0x8c>
 8007938:	687b      	ldr	r3, [r7, #4]
 800793a:	681b      	ldr	r3, [r3, #0]
 800793c:	f1b3 4f80 	cmp.w	r3, #1073741824	; 0x40000000
 8007940:	d004      	beq.n	800794c <HAL_TIMEx_MasterConfigSynchronization+0x8c>
 8007942:	687b      	ldr	r3, [r7, #4]
 8007944:	681b      	ldr	r3, [r3, #0]
 8007946:	4a10      	ldr	r2, [pc, #64]	; (8007988 <HAL_TIMEx_MasterConfigSynchronization+0xc8>)
 8007948:	4293      	cmp	r3, r2
 800794a:	d10c      	bne.n	8007966 <HAL_TIMEx_MasterConfigSynchronization+0xa6>
  {
    /* Reset the MSM Bit */
    tmpsmcr &= ~TIM_SMCR_MSM;
 800794c:	68bb      	ldr	r3, [r7, #8]
 800794e:	f023 0380 	bic.w	r3, r3, #128	; 0x80
 8007952:	60bb      	str	r3, [r7, #8]
    /* Set master mode */
    tmpsmcr |= sMasterConfig->MasterSlaveMode;
 8007954:	683b      	ldr	r3, [r7, #0]
 8007956:	689b      	ldr	r3, [r3, #8]
 8007958:	68ba      	ldr	r2, [r7, #8]
 800795a:	4313      	orrs	r3, r2
 800795c:	60bb      	str	r3, [r7, #8]

    /* Update TIMx SMCR */
    htim->Instance->SMCR = tmpsmcr;
 800795e:	687b      	ldr	r3, [r7, #4]
 8007960:	681b      	ldr	r3, [r3, #0]
 8007962:	68ba      	ldr	r2, [r7, #8]
 8007964:	609a      	str	r2, [r3, #8]
  }

  /* Change the htim state */
  htim->State = HAL_TIM_STATE_READY;
 8007966:	687b      	ldr	r3, [r7, #4]
 8007968:	2201      	movs	r2, #1
 800796a:	f883 203d 	strb.w	r2, [r3, #61]	; 0x3d

  __HAL_UNLOCK(htim);
 800796e:	687b      	ldr	r3, [r7, #4]
 8007970:	2200      	movs	r2, #0
 8007972:	f883 203c 	strb.w	r2, [r3, #60]	; 0x3c

  return HAL_OK;
 8007976:	2300      	movs	r3, #0
}
 8007978:	4618      	mov	r0, r3
 800797a:	3714      	adds	r7, #20
 800797c:	46bd      	mov	sp, r7
 800797e:	f85d 7b04 	ldr.w	r7, [sp], #4
 8007982:	4770      	bx	lr
 8007984:	40012c00 	.word	0x40012c00
 8007988:	40014000 	.word	0x40014000

0800798c <HAL_TIMEx_CommutCallback>:
  * @brief  Hall commutation changed callback in non-blocking mode
  * @param  htim TIM handle
  * @retval None
  */
__weak void HAL_TIMEx_CommutCallback(TIM_HandleTypeDef *htim)
{
 800798c:	b480      	push	{r7}
 800798e:	b083      	sub	sp, #12
 8007990:	af00      	add	r7, sp, #0
 8007992:	6078      	str	r0, [r7, #4]
  UNUSED(htim);

  /* NOTE : This function should not be modified, when the callback is needed,
            the HAL_TIMEx_CommutCallback could be implemented in the user file
   */
}
 8007994:	bf00      	nop
 8007996:	370c      	adds	r7, #12
 8007998:	46bd      	mov	sp, r7
 800799a:	f85d 7b04 	ldr.w	r7, [sp], #4
 800799e:	4770      	bx	lr

080079a0 <HAL_TIMEx_BreakCallback>:
  * @brief  Hall Break detection callback in non-blocking mode
  * @param  htim TIM handle
  * @retval None
  */
__weak void HAL_TIMEx_BreakCallback(TIM_HandleTypeDef *htim)
{
 80079a0:	b480      	push	{r7}
 80079a2:	b083      	sub	sp, #12
 80079a4:	af00      	add	r7, sp, #0
 80079a6:	6078      	str	r0, [r7, #4]
  UNUSED(htim);

  /* NOTE : This function should not be modified, when the callback is needed,
            the HAL_TIMEx_BreakCallback could be implemented in the user file
   */
}
 80079a8:	bf00      	nop
 80079aa:	370c      	adds	r7, #12
 80079ac:	46bd      	mov	sp, r7
 80079ae:	f85d 7b04 	ldr.w	r7, [sp], #4
 80079b2:	4770      	bx	lr

080079b4 <HAL_TIMEx_Break2Callback>:
  * @brief  Hall Break2 detection callback in non blocking mode
  * @param  htim: TIM handle
  * @retval None
  */
__weak void HAL_TIMEx_Break2Callback(TIM_HandleTypeDef *htim)
{
 80079b4:	b480      	push	{r7}
 80079b6:	b083      	sub	sp, #12
 80079b8:	af00      	add	r7, sp, #0
 80079ba:	6078      	str	r0, [r7, #4]
  UNUSED(htim);

  /* NOTE : This function Should not be modified, when the callback is needed,
            the HAL_TIMEx_Break2Callback could be implemented in the user file
   */
}
 80079bc:	bf00      	nop
 80079be:	370c      	adds	r7, #12
 80079c0:	46bd      	mov	sp, r7
 80079c2:	f85d 7b04 	ldr.w	r7, [sp], #4
 80079c6:	4770      	bx	lr

080079c8 <HAL_UART_Init>:
  *        parameters in the UART_InitTypeDef and initialize the associated handle.
  * @param huart UART handle.
  * @retval HAL status
  */
HAL_StatusTypeDef HAL_UART_Init(UART_HandleTypeDef *huart)
{
 80079c8:	b580      	push	{r7, lr}
 80079ca:	b082      	sub	sp, #8
 80079cc:	af00      	add	r7, sp, #0
 80079ce:	6078      	str	r0, [r7, #4]
  /* Check the UART handle allocation */
  if (huart == NULL)
 80079d0:	687b      	ldr	r3, [r7, #4]
 80079d2:	2b00      	cmp	r3, #0
 80079d4:	d101      	bne.n	80079da <HAL_UART_Init+0x12>
  {
    return HAL_ERROR;
 80079d6:	2301      	movs	r3, #1
 80079d8:	e040      	b.n	8007a5c <HAL_UART_Init+0x94>
  {
    /* Check the parameters */
    assert_param(IS_UART_INSTANCE(huart->Instance));
  }

  if (huart->gState == HAL_UART_STATE_RESET)
 80079da:	687b      	ldr	r3, [r7, #4]
 80079dc:	6f9b      	ldr	r3, [r3, #120]	; 0x78
 80079de:	2b00      	cmp	r3, #0
 80079e0:	d106      	bne.n	80079f0 <HAL_UART_Init+0x28>
  {
    /* Allocate lock resource and initialize it */
    huart->Lock = HAL_UNLOCKED;
 80079e2:	687b      	ldr	r3, [r7, #4]
 80079e4:	2200      	movs	r2, #0
 80079e6:	f883 2074 	strb.w	r2, [r3, #116]	; 0x74

    /* Init the low level hardware */
    huart->MspInitCallback(huart);
#else
    /* Init the low level hardware : GPIO, CLOCK */
    HAL_UART_MspInit(huart);
 80079ea:	6878      	ldr	r0, [r7, #4]
 80079ec:	f7fa ff50 	bl	8002890 <HAL_UART_MspInit>
#endif /* (USE_HAL_UART_REGISTER_CALLBACKS) */
  }

  huart->gState = HAL_UART_STATE_BUSY;
 80079f0:	687b      	ldr	r3, [r7, #4]
 80079f2:	2224      	movs	r2, #36	; 0x24
 80079f4:	679a      	str	r2, [r3, #120]	; 0x78

  __HAL_UART_DISABLE(huart);
 80079f6:	687b      	ldr	r3, [r7, #4]
 80079f8:	681b      	ldr	r3, [r3, #0]
 80079fa:	681a      	ldr	r2, [r3, #0]
 80079fc:	687b      	ldr	r3, [r7, #4]
 80079fe:	681b      	ldr	r3, [r3, #0]
 8007a00:	f022 0201 	bic.w	r2, r2, #1
 8007a04:	601a      	str	r2, [r3, #0]

  /* Set the UART Communication parameters */
  if (UART_SetConfig(huart) == HAL_ERROR)
 8007a06:	6878      	ldr	r0, [r7, #4]
 8007a08:	f000 f82c 	bl	8007a64 <UART_SetConfig>
 8007a0c:	4603      	mov	r3, r0
 8007a0e:	2b01      	cmp	r3, #1
 8007a10:	d101      	bne.n	8007a16 <HAL_UART_Init+0x4e>
  {
    return HAL_ERROR;
 8007a12:	2301      	movs	r3, #1
 8007a14:	e022      	b.n	8007a5c <HAL_UART_Init+0x94>
  }

  if (huart->AdvancedInit.AdvFeatureInit != UART_ADVFEATURE_NO_INIT)
 8007a16:	687b      	ldr	r3, [r7, #4]
 8007a18:	6a5b      	ldr	r3, [r3, #36]	; 0x24
 8007a1a:	2b00      	cmp	r3, #0
 8007a1c:	d002      	beq.n	8007a24 <HAL_UART_Init+0x5c>
  {
    UART_AdvFeatureConfig(huart);
 8007a1e:	6878      	ldr	r0, [r7, #4]
 8007a20:	f000 f956 	bl	8007cd0 <UART_AdvFeatureConfig>
  }

  /* In asynchronous mode, the following bits must be kept cleared:
  - LINEN and CLKEN bits in the USART_CR2 register,
  - SCEN, HDSEL and IREN  bits in the USART_CR3 register.*/
  CLEAR_BIT(huart->Instance->CR2, (USART_CR2_LINEN | USART_CR2_CLKEN));
 8007a24:	687b      	ldr	r3, [r7, #4]
 8007a26:	681b      	ldr	r3, [r3, #0]
 8007a28:	685a      	ldr	r2, [r3, #4]
 8007a2a:	687b      	ldr	r3, [r7, #4]
 8007a2c:	681b      	ldr	r3, [r3, #0]
 8007a2e:	f422 4290 	bic.w	r2, r2, #18432	; 0x4800
 8007a32:	605a      	str	r2, [r3, #4]
  CLEAR_BIT(huart->Instance->CR3, (USART_CR3_SCEN | USART_CR3_HDSEL | USART_CR3_IREN));
 8007a34:	687b      	ldr	r3, [r7, #4]
 8007a36:	681b      	ldr	r3, [r3, #0]
 8007a38:	689a      	ldr	r2, [r3, #8]
 8007a3a:	687b      	ldr	r3, [r7, #4]
 8007a3c:	681b      	ldr	r3, [r3, #0]
 8007a3e:	f022 022a 	bic.w	r2, r2, #42	; 0x2a
 8007a42:	609a      	str	r2, [r3, #8]

  __HAL_UART_ENABLE(huart);
 8007a44:	687b      	ldr	r3, [r7, #4]
 8007a46:	681b      	ldr	r3, [r3, #0]
 8007a48:	681a      	ldr	r2, [r3, #0]
 8007a4a:	687b      	ldr	r3, [r7, #4]
 8007a4c:	681b      	ldr	r3, [r3, #0]
 8007a4e:	f042 0201 	orr.w	r2, r2, #1
 8007a52:	601a      	str	r2, [r3, #0]

  /* TEACK and/or REACK to check before moving huart->gState and huart->RxState to Ready */
  return (UART_CheckIdleState(huart));
 8007a54:	6878      	ldr	r0, [r7, #4]
 8007a56:	f000 f9dd 	bl	8007e14 <UART_CheckIdleState>
 8007a5a:	4603      	mov	r3, r0
}
 8007a5c:	4618      	mov	r0, r3
 8007a5e:	3708      	adds	r7, #8
 8007a60:	46bd      	mov	sp, r7
 8007a62:	bd80      	pop	{r7, pc}

08007a64 <UART_SetConfig>:
  * @brief Configure the UART peripheral.
  * @param huart UART handle.
  * @retval HAL status
  */
HAL_StatusTypeDef UART_SetConfig(UART_HandleTypeDef *huart)
{
 8007a64:	b580      	push	{r7, lr}
 8007a66:	b088      	sub	sp, #32
 8007a68:	af00      	add	r7, sp, #0
 8007a6a:	6078      	str	r0, [r7, #4]
  uint32_t tmpreg;
  uint16_t brrtemp;
  UART_ClockSourceTypeDef clocksource;
  uint32_t usartdiv;
  HAL_StatusTypeDef ret               = HAL_OK;
 8007a6c:	2300      	movs	r3, #0
 8007a6e:	77bb      	strb	r3, [r7, #30]
  *  the UART Word Length, Parity, Mode and oversampling:
  *  set the M bits according to huart->Init.WordLength value
  *  set PCE and PS bits according to huart->Init.Parity value
  *  set TE and RE bits according to huart->Init.Mode value
  *  set OVER8 bit according to huart->Init.OverSampling value */
  tmpreg = (uint32_t)huart->Init.WordLength | huart->Init.Parity | huart->Init.Mode | huart->Init.OverSampling ;
 8007a70:	687b      	ldr	r3, [r7, #4]
 8007a72:	689a      	ldr	r2, [r3, #8]
 8007a74:	687b      	ldr	r3, [r7, #4]
 8007a76:	691b      	ldr	r3, [r3, #16]
 8007a78:	431a      	orrs	r2, r3
 8007a7a:	687b      	ldr	r3, [r7, #4]
 8007a7c:	695b      	ldr	r3, [r3, #20]
 8007a7e:	431a      	orrs	r2, r3
 8007a80:	687b      	ldr	r3, [r7, #4]
 8007a82:	69db      	ldr	r3, [r3, #28]
 8007a84:	4313      	orrs	r3, r2
 8007a86:	617b      	str	r3, [r7, #20]
  MODIFY_REG(huart->Instance->CR1, USART_CR1_FIELDS, tmpreg);
 8007a88:	687b      	ldr	r3, [r7, #4]
 8007a8a:	681b      	ldr	r3, [r3, #0]
 8007a8c:	681a      	ldr	r2, [r3, #0]
 8007a8e:	4b8a      	ldr	r3, [pc, #552]	; (8007cb8 <UART_SetConfig+0x254>)
 8007a90:	4013      	ands	r3, r2
 8007a92:	687a      	ldr	r2, [r7, #4]
 8007a94:	6812      	ldr	r2, [r2, #0]
 8007a96:	6979      	ldr	r1, [r7, #20]
 8007a98:	430b      	orrs	r3, r1
 8007a9a:	6013      	str	r3, [r2, #0]

  /*-------------------------- USART CR2 Configuration -----------------------*/
  /* Configure the UART Stop Bits: Set STOP[13:12] bits according
  * to huart->Init.StopBits value */
  MODIFY_REG(huart->Instance->CR2, USART_CR2_STOP, huart->Init.StopBits);
 8007a9c:	687b      	ldr	r3, [r7, #4]
 8007a9e:	681b      	ldr	r3, [r3, #0]
 8007aa0:	685b      	ldr	r3, [r3, #4]
 8007aa2:	f423 5140 	bic.w	r1, r3, #12288	; 0x3000
 8007aa6:	687b      	ldr	r3, [r7, #4]
 8007aa8:	68da      	ldr	r2, [r3, #12]
 8007aaa:	687b      	ldr	r3, [r7, #4]
 8007aac:	681b      	ldr	r3, [r3, #0]
 8007aae:	430a      	orrs	r2, r1
 8007ab0:	605a      	str	r2, [r3, #4]
  /* Configure
  * - UART HardWare Flow Control: set CTSE and RTSE bits according
  *   to huart->Init.HwFlowCtl value
  * - one-bit sampling method versus three samples' majority rule according
  *   to huart->Init.OneBitSampling (not applicable to LPUART) */
  tmpreg = (uint32_t)huart->Init.HwFlowCtl;
 8007ab2:	687b      	ldr	r3, [r7, #4]
 8007ab4:	699b      	ldr	r3, [r3, #24]
 8007ab6:	617b      	str	r3, [r7, #20]

  tmpreg |= huart->Init.OneBitSampling;
 8007ab8:	687b      	ldr	r3, [r7, #4]
 8007aba:	6a1b      	ldr	r3, [r3, #32]
 8007abc:	697a      	ldr	r2, [r7, #20]
 8007abe:	4313      	orrs	r3, r2
 8007ac0:	617b      	str	r3, [r7, #20]
  MODIFY_REG(huart->Instance->CR3, USART_CR3_FIELDS, tmpreg);
 8007ac2:	687b      	ldr	r3, [r7, #4]
 8007ac4:	681b      	ldr	r3, [r3, #0]
 8007ac6:	689b      	ldr	r3, [r3, #8]
 8007ac8:	f423 6130 	bic.w	r1, r3, #2816	; 0xb00
 8007acc:	687b      	ldr	r3, [r7, #4]
 8007ace:	681b      	ldr	r3, [r3, #0]
 8007ad0:	697a      	ldr	r2, [r7, #20]
 8007ad2:	430a      	orrs	r2, r1
 8007ad4:	609a      	str	r2, [r3, #8]


  /*-------------------------- USART BRR Configuration -----------------------*/
  UART_GETCLOCKSOURCE(huart, clocksource);
 8007ad6:	687b      	ldr	r3, [r7, #4]
 8007ad8:	681b      	ldr	r3, [r3, #0]
 8007ada:	4a78      	ldr	r2, [pc, #480]	; (8007cbc <UART_SetConfig+0x258>)
 8007adc:	4293      	cmp	r3, r2
 8007ade:	d120      	bne.n	8007b22 <UART_SetConfig+0xbe>
 8007ae0:	4b77      	ldr	r3, [pc, #476]	; (8007cc0 <UART_SetConfig+0x25c>)
 8007ae2:	6b1b      	ldr	r3, [r3, #48]	; 0x30
 8007ae4:	f003 0303 	and.w	r3, r3, #3
 8007ae8:	2b03      	cmp	r3, #3
 8007aea:	d817      	bhi.n	8007b1c <UART_SetConfig+0xb8>
 8007aec:	a201      	add	r2, pc, #4	; (adr r2, 8007af4 <UART_SetConfig+0x90>)
 8007aee:	f852 f023 	ldr.w	pc, [r2, r3, lsl #2]
 8007af2:	bf00      	nop
 8007af4:	08007b05 	.word	0x08007b05
 8007af8:	08007b11 	.word	0x08007b11
 8007afc:	08007b17 	.word	0x08007b17
 8007b00:	08007b0b 	.word	0x08007b0b
 8007b04:	2300      	movs	r3, #0
 8007b06:	77fb      	strb	r3, [r7, #31]
 8007b08:	e01d      	b.n	8007b46 <UART_SetConfig+0xe2>
 8007b0a:	2302      	movs	r3, #2
 8007b0c:	77fb      	strb	r3, [r7, #31]
 8007b0e:	e01a      	b.n	8007b46 <UART_SetConfig+0xe2>
 8007b10:	2304      	movs	r3, #4
 8007b12:	77fb      	strb	r3, [r7, #31]
 8007b14:	e017      	b.n	8007b46 <UART_SetConfig+0xe2>
 8007b16:	2308      	movs	r3, #8
 8007b18:	77fb      	strb	r3, [r7, #31]
 8007b1a:	e014      	b.n	8007b46 <UART_SetConfig+0xe2>
 8007b1c:	2310      	movs	r3, #16
 8007b1e:	77fb      	strb	r3, [r7, #31]
 8007b20:	e011      	b.n	8007b46 <UART_SetConfig+0xe2>
 8007b22:	687b      	ldr	r3, [r7, #4]
 8007b24:	681b      	ldr	r3, [r3, #0]
 8007b26:	4a67      	ldr	r2, [pc, #412]	; (8007cc4 <UART_SetConfig+0x260>)
 8007b28:	4293      	cmp	r3, r2
 8007b2a:	d102      	bne.n	8007b32 <UART_SetConfig+0xce>
 8007b2c:	2300      	movs	r3, #0
 8007b2e:	77fb      	strb	r3, [r7, #31]
 8007b30:	e009      	b.n	8007b46 <UART_SetConfig+0xe2>
 8007b32:	687b      	ldr	r3, [r7, #4]
 8007b34:	681b      	ldr	r3, [r3, #0]
 8007b36:	4a64      	ldr	r2, [pc, #400]	; (8007cc8 <UART_SetConfig+0x264>)
 8007b38:	4293      	cmp	r3, r2
 8007b3a:	d102      	bne.n	8007b42 <UART_SetConfig+0xde>
 8007b3c:	2300      	movs	r3, #0
 8007b3e:	77fb      	strb	r3, [r7, #31]
 8007b40:	e001      	b.n	8007b46 <UART_SetConfig+0xe2>
 8007b42:	2310      	movs	r3, #16
 8007b44:	77fb      	strb	r3, [r7, #31]

  if (huart->Init.OverSampling == UART_OVERSAMPLING_8)
 8007b46:	687b      	ldr	r3, [r7, #4]
 8007b48:	69db      	ldr	r3, [r3, #28]
 8007b4a:	f5b3 4f00 	cmp.w	r3, #32768	; 0x8000
 8007b4e:	d15b      	bne.n	8007c08 <UART_SetConfig+0x1a4>
  {
    switch (clocksource)
 8007b50:	7ffb      	ldrb	r3, [r7, #31]
 8007b52:	2b08      	cmp	r3, #8
 8007b54:	d827      	bhi.n	8007ba6 <UART_SetConfig+0x142>
 8007b56:	a201      	add	r2, pc, #4	; (adr r2, 8007b5c <UART_SetConfig+0xf8>)
 8007b58:	f852 f023 	ldr.w	pc, [r2, r3, lsl #2]
 8007b5c:	08007b81 	.word	0x08007b81
 8007b60:	08007b89 	.word	0x08007b89
 8007b64:	08007b91 	.word	0x08007b91
 8007b68:	08007ba7 	.word	0x08007ba7
 8007b6c:	08007b97 	.word	0x08007b97
 8007b70:	08007ba7 	.word	0x08007ba7
 8007b74:	08007ba7 	.word	0x08007ba7
 8007b78:	08007ba7 	.word	0x08007ba7
 8007b7c:	08007b9f 	.word	0x08007b9f
    {
      case UART_CLOCKSOURCE_PCLK1:
        pclk = HAL_RCC_GetPCLK1Freq();
 8007b80:	f7fd fcf8 	bl	8005574 <HAL_RCC_GetPCLK1Freq>
 8007b84:	61b8      	str	r0, [r7, #24]
        break;
 8007b86:	e013      	b.n	8007bb0 <UART_SetConfig+0x14c>
      case UART_CLOCKSOURCE_PCLK2:
        pclk = HAL_RCC_GetPCLK2Freq();
 8007b88:	f7fd fd16 	bl	80055b8 <HAL_RCC_GetPCLK2Freq>
 8007b8c:	61b8      	str	r0, [r7, #24]
        break;
 8007b8e:	e00f      	b.n	8007bb0 <UART_SetConfig+0x14c>
      case UART_CLOCKSOURCE_HSI:
        pclk = (uint32_t) HSI_VALUE;
 8007b90:	4b4e      	ldr	r3, [pc, #312]	; (8007ccc <UART_SetConfig+0x268>)
 8007b92:	61bb      	str	r3, [r7, #24]
        break;
 8007b94:	e00c      	b.n	8007bb0 <UART_SetConfig+0x14c>
      case UART_CLOCKSOURCE_SYSCLK:
        pclk = HAL_RCC_GetSysClockFreq();
 8007b96:	f7fd fc75 	bl	8005484 <HAL_RCC_GetSysClockFreq>
 8007b9a:	61b8      	str	r0, [r7, #24]
        break;
 8007b9c:	e008      	b.n	8007bb0 <UART_SetConfig+0x14c>
      case UART_CLOCKSOURCE_LSE:
        pclk = (uint32_t) LSE_VALUE;
 8007b9e:	f44f 4300 	mov.w	r3, #32768	; 0x8000
 8007ba2:	61bb      	str	r3, [r7, #24]
        break;
 8007ba4:	e004      	b.n	8007bb0 <UART_SetConfig+0x14c>
      default:
        pclk = 0U;
 8007ba6:	2300      	movs	r3, #0
 8007ba8:	61bb      	str	r3, [r7, #24]
        ret = HAL_ERROR;
 8007baa:	2301      	movs	r3, #1
 8007bac:	77bb      	strb	r3, [r7, #30]
        break;
 8007bae:	bf00      	nop
    }

    /* USARTDIV must be greater than or equal to 0d16 */
    if (pclk != 0U)
 8007bb0:	69bb      	ldr	r3, [r7, #24]
 8007bb2:	2b00      	cmp	r3, #0
 8007bb4:	d074      	beq.n	8007ca0 <UART_SetConfig+0x23c>
    {
      usartdiv = (uint16_t)(UART_DIV_SAMPLING8(pclk, huart->Init.BaudRate));
 8007bb6:	69bb      	ldr	r3, [r7, #24]
 8007bb8:	005a      	lsls	r2, r3, #1
 8007bba:	687b      	ldr	r3, [r7, #4]
 8007bbc:	685b      	ldr	r3, [r3, #4]
 8007bbe:	085b      	lsrs	r3, r3, #1
 8007bc0:	441a      	add	r2, r3
 8007bc2:	687b      	ldr	r3, [r7, #4]
 8007bc4:	685b      	ldr	r3, [r3, #4]
 8007bc6:	fbb2 f3f3 	udiv	r3, r2, r3
 8007bca:	b29b      	uxth	r3, r3
 8007bcc:	613b      	str	r3, [r7, #16]
      if ((usartdiv >= UART_BRR_MIN) && (usartdiv <= UART_BRR_MAX))
 8007bce:	693b      	ldr	r3, [r7, #16]
 8007bd0:	2b0f      	cmp	r3, #15
 8007bd2:	d916      	bls.n	8007c02 <UART_SetConfig+0x19e>
 8007bd4:	693b      	ldr	r3, [r7, #16]
 8007bd6:	f5b3 3f80 	cmp.w	r3, #65536	; 0x10000
 8007bda:	d212      	bcs.n	8007c02 <UART_SetConfig+0x19e>
      {
        brrtemp = (uint16_t)(usartdiv & 0xFFF0U);
 8007bdc:	693b      	ldr	r3, [r7, #16]
 8007bde:	b29b      	uxth	r3, r3
 8007be0:	f023 030f 	bic.w	r3, r3, #15
 8007be4:	81fb      	strh	r3, [r7, #14]
        brrtemp |= (uint16_t)((usartdiv & (uint16_t)0x000FU) >> 1U);
 8007be6:	693b      	ldr	r3, [r7, #16]
 8007be8:	085b      	lsrs	r3, r3, #1
 8007bea:	b29b      	uxth	r3, r3
 8007bec:	f003 0307 	and.w	r3, r3, #7
 8007bf0:	b29a      	uxth	r2, r3
 8007bf2:	89fb      	ldrh	r3, [r7, #14]
 8007bf4:	4313      	orrs	r3, r2
 8007bf6:	81fb      	strh	r3, [r7, #14]
        huart->Instance->BRR = brrtemp;
 8007bf8:	687b      	ldr	r3, [r7, #4]
 8007bfa:	681b      	ldr	r3, [r3, #0]
 8007bfc:	89fa      	ldrh	r2, [r7, #14]
 8007bfe:	60da      	str	r2, [r3, #12]
 8007c00:	e04e      	b.n	8007ca0 <UART_SetConfig+0x23c>
      }
      else
      {
        ret = HAL_ERROR;
 8007c02:	2301      	movs	r3, #1
 8007c04:	77bb      	strb	r3, [r7, #30]
 8007c06:	e04b      	b.n	8007ca0 <UART_SetConfig+0x23c>
      }
    }
  }
  else
  {
    switch (clocksource)
 8007c08:	7ffb      	ldrb	r3, [r7, #31]
 8007c0a:	2b08      	cmp	r3, #8
 8007c0c:	d827      	bhi.n	8007c5e <UART_SetConfig+0x1fa>
 8007c0e:	a201      	add	r2, pc, #4	; (adr r2, 8007c14 <UART_SetConfig+0x1b0>)
 8007c10:	f852 f023 	ldr.w	pc, [r2, r3, lsl #2]
 8007c14:	08007c39 	.word	0x08007c39
 8007c18:	08007c41 	.word	0x08007c41
 8007c1c:	08007c49 	.word	0x08007c49
 8007c20:	08007c5f 	.word	0x08007c5f
 8007c24:	08007c4f 	.word	0x08007c4f
 8007c28:	08007c5f 	.word	0x08007c5f
 8007c2c:	08007c5f 	.word	0x08007c5f
 8007c30:	08007c5f 	.word	0x08007c5f
 8007c34:	08007c57 	.word	0x08007c57
    {
      case UART_CLOCKSOURCE_PCLK1:
        pclk = HAL_RCC_GetPCLK1Freq();
 8007c38:	f7fd fc9c 	bl	8005574 <HAL_RCC_GetPCLK1Freq>
 8007c3c:	61b8      	str	r0, [r7, #24]
        break;
 8007c3e:	e013      	b.n	8007c68 <UART_SetConfig+0x204>
      case UART_CLOCKSOURCE_PCLK2:
        pclk = HAL_RCC_GetPCLK2Freq();
 8007c40:	f7fd fcba 	bl	80055b8 <HAL_RCC_GetPCLK2Freq>
 8007c44:	61b8      	str	r0, [r7, #24]
        break;
 8007c46:	e00f      	b.n	8007c68 <UART_SetConfig+0x204>
      case UART_CLOCKSOURCE_HSI:
        pclk = (uint32_t) HSI_VALUE;
 8007c48:	4b20      	ldr	r3, [pc, #128]	; (8007ccc <UART_SetConfig+0x268>)
 8007c4a:	61bb      	str	r3, [r7, #24]
        break;
 8007c4c:	e00c      	b.n	8007c68 <UART_SetConfig+0x204>
      case UART_CLOCKSOURCE_SYSCLK:
        pclk = HAL_RCC_GetSysClockFreq();
 8007c4e:	f7fd fc19 	bl	8005484 <HAL_RCC_GetSysClockFreq>
 8007c52:	61b8      	str	r0, [r7, #24]
        break;
 8007c54:	e008      	b.n	8007c68 <UART_SetConfig+0x204>
      case UART_CLOCKSOURCE_LSE:
        pclk = (uint32_t) LSE_VALUE;
 8007c56:	f44f 4300 	mov.w	r3, #32768	; 0x8000
 8007c5a:	61bb      	str	r3, [r7, #24]
        break;
 8007c5c:	e004      	b.n	8007c68 <UART_SetConfig+0x204>
      default:
        pclk = 0U;
 8007c5e:	2300      	movs	r3, #0
 8007c60:	61bb      	str	r3, [r7, #24]
        ret = HAL_ERROR;
 8007c62:	2301      	movs	r3, #1
 8007c64:	77bb      	strb	r3, [r7, #30]
        break;
 8007c66:	bf00      	nop
    }

    if (pclk != 0U)
 8007c68:	69bb      	ldr	r3, [r7, #24]
 8007c6a:	2b00      	cmp	r3, #0
 8007c6c:	d018      	beq.n	8007ca0 <UART_SetConfig+0x23c>
    {
      /* USARTDIV must be greater than or equal to 0d16 */
      usartdiv = (uint16_t)(UART_DIV_SAMPLING16(pclk, huart->Init.BaudRate));
 8007c6e:	687b      	ldr	r3, [r7, #4]
 8007c70:	685b      	ldr	r3, [r3, #4]
 8007c72:	085a      	lsrs	r2, r3, #1
 8007c74:	69bb      	ldr	r3, [r7, #24]
 8007c76:	441a      	add	r2, r3
 8007c78:	687b      	ldr	r3, [r7, #4]
 8007c7a:	685b      	ldr	r3, [r3, #4]
 8007c7c:	fbb2 f3f3 	udiv	r3, r2, r3
 8007c80:	b29b      	uxth	r3, r3
 8007c82:	613b      	str	r3, [r7, #16]
      if ((usartdiv >= UART_BRR_MIN) && (usartdiv <= UART_BRR_MAX))
 8007c84:	693b      	ldr	r3, [r7, #16]
 8007c86:	2b0f      	cmp	r3, #15
 8007c88:	d908      	bls.n	8007c9c <UART_SetConfig+0x238>
 8007c8a:	693b      	ldr	r3, [r7, #16]
 8007c8c:	f5b3 3f80 	cmp.w	r3, #65536	; 0x10000
 8007c90:	d204      	bcs.n	8007c9c <UART_SetConfig+0x238>
      {
        huart->Instance->BRR = usartdiv;
 8007c92:	687b      	ldr	r3, [r7, #4]
 8007c94:	681b      	ldr	r3, [r3, #0]
 8007c96:	693a      	ldr	r2, [r7, #16]
 8007c98:	60da      	str	r2, [r3, #12]
 8007c9a:	e001      	b.n	8007ca0 <UART_SetConfig+0x23c>
      }
      else
      {
        ret = HAL_ERROR;
 8007c9c:	2301      	movs	r3, #1
 8007c9e:	77bb      	strb	r3, [r7, #30]
    }
  }


  /* Clear ISR function pointers */
  huart->RxISR = NULL;
 8007ca0:	687b      	ldr	r3, [r7, #4]
 8007ca2:	2200      	movs	r2, #0
 8007ca4:	665a      	str	r2, [r3, #100]	; 0x64
  huart->TxISR = NULL;
 8007ca6:	687b      	ldr	r3, [r7, #4]
 8007ca8:	2200      	movs	r2, #0
 8007caa:	669a      	str	r2, [r3, #104]	; 0x68

  return ret;
 8007cac:	7fbb      	ldrb	r3, [r7, #30]
}
 8007cae:	4618      	mov	r0, r3
 8007cb0:	3720      	adds	r7, #32
 8007cb2:	46bd      	mov	sp, r7
 8007cb4:	bd80      	pop	{r7, pc}
 8007cb6:	bf00      	nop
 8007cb8:	efff69f3 	.word	0xefff69f3
 8007cbc:	40013800 	.word	0x40013800
 8007cc0:	40021000 	.word	0x40021000
 8007cc4:	40004400 	.word	0x40004400
 8007cc8:	40004800 	.word	0x40004800
 8007ccc:	007a1200 	.word	0x007a1200

08007cd0 <UART_AdvFeatureConfig>:
  * @brief Configure the UART peripheral advanced features.
  * @param huart UART handle.
  * @retval None
  */
void UART_AdvFeatureConfig(UART_HandleTypeDef *huart)
{
 8007cd0:	b480      	push	{r7}
 8007cd2:	b083      	sub	sp, #12
 8007cd4:	af00      	add	r7, sp, #0
 8007cd6:	6078      	str	r0, [r7, #4]
  /* Check whether the set of advanced features to configure is properly set */
  assert_param(IS_UART_ADVFEATURE_INIT(huart->AdvancedInit.AdvFeatureInit));

  /* if required, configure TX pin active level inversion */
  if (HAL_IS_BIT_SET(huart->AdvancedInit.AdvFeatureInit, UART_ADVFEATURE_TXINVERT_INIT))
 8007cd8:	687b      	ldr	r3, [r7, #4]
 8007cda:	6a5b      	ldr	r3, [r3, #36]	; 0x24
 8007cdc:	f003 0301 	and.w	r3, r3, #1
 8007ce0:	2b00      	cmp	r3, #0
 8007ce2:	d00a      	beq.n	8007cfa <UART_AdvFeatureConfig+0x2a>
  {
    assert_param(IS_UART_ADVFEATURE_TXINV(huart->AdvancedInit.TxPinLevelInvert));
    MODIFY_REG(huart->Instance->CR2, USART_CR2_TXINV, huart->AdvancedInit.TxPinLevelInvert);
 8007ce4:	687b      	ldr	r3, [r7, #4]
 8007ce6:	681b      	ldr	r3, [r3, #0]
 8007ce8:	685b      	ldr	r3, [r3, #4]
 8007cea:	f423 3100 	bic.w	r1, r3, #131072	; 0x20000
 8007cee:	687b      	ldr	r3, [r7, #4]
 8007cf0:	6a9a      	ldr	r2, [r3, #40]	; 0x28
 8007cf2:	687b      	ldr	r3, [r7, #4]
 8007cf4:	681b      	ldr	r3, [r3, #0]
 8007cf6:	430a      	orrs	r2, r1
 8007cf8:	605a      	str	r2, [r3, #4]
  }

  /* if required, configure RX pin active level inversion */
  if (HAL_IS_BIT_SET(huart->AdvancedInit.AdvFeatureInit, UART_ADVFEATURE_RXINVERT_INIT))
 8007cfa:	687b      	ldr	r3, [r7, #4]
 8007cfc:	6a5b      	ldr	r3, [r3, #36]	; 0x24
 8007cfe:	f003 0302 	and.w	r3, r3, #2
 8007d02:	2b00      	cmp	r3, #0
 8007d04:	d00a      	beq.n	8007d1c <UART_AdvFeatureConfig+0x4c>
  {
    assert_param(IS_UART_ADVFEATURE_RXINV(huart->AdvancedInit.RxPinLevelInvert));
    MODIFY_REG(huart->Instance->CR2, USART_CR2_RXINV, huart->AdvancedInit.RxPinLevelInvert);
 8007d06:	687b      	ldr	r3, [r7, #4]
 8007d08:	681b      	ldr	r3, [r3, #0]
 8007d0a:	685b      	ldr	r3, [r3, #4]
 8007d0c:	f423 3180 	bic.w	r1, r3, #65536	; 0x10000
 8007d10:	687b      	ldr	r3, [r7, #4]
 8007d12:	6ada      	ldr	r2, [r3, #44]	; 0x2c
 8007d14:	687b      	ldr	r3, [r7, #4]
 8007d16:	681b      	ldr	r3, [r3, #0]
 8007d18:	430a      	orrs	r2, r1
 8007d1a:	605a      	str	r2, [r3, #4]
  }

  /* if required, configure data inversion */
  if (HAL_IS_BIT_SET(huart->AdvancedInit.AdvFeatureInit, UART_ADVFEATURE_DATAINVERT_INIT))
 8007d1c:	687b      	ldr	r3, [r7, #4]
 8007d1e:	6a5b      	ldr	r3, [r3, #36]	; 0x24
 8007d20:	f003 0304 	and.w	r3, r3, #4
 8007d24:	2b00      	cmp	r3, #0
 8007d26:	d00a      	beq.n	8007d3e <UART_AdvFeatureConfig+0x6e>
  {
    assert_param(IS_UART_ADVFEATURE_DATAINV(huart->AdvancedInit.DataInvert));
    MODIFY_REG(huart->Instance->CR2, USART_CR2_DATAINV, huart->AdvancedInit.DataInvert);
 8007d28:	687b      	ldr	r3, [r7, #4]
 8007d2a:	681b      	ldr	r3, [r3, #0]
 8007d2c:	685b      	ldr	r3, [r3, #4]
 8007d2e:	f423 2180 	bic.w	r1, r3, #262144	; 0x40000
 8007d32:	687b      	ldr	r3, [r7, #4]
 8007d34:	6b1a      	ldr	r2, [r3, #48]	; 0x30
 8007d36:	687b      	ldr	r3, [r7, #4]
 8007d38:	681b      	ldr	r3, [r3, #0]
 8007d3a:	430a      	orrs	r2, r1
 8007d3c:	605a      	str	r2, [r3, #4]
  }

  /* if required, configure RX/TX pins swap */
  if (HAL_IS_BIT_SET(huart->AdvancedInit.AdvFeatureInit, UART_ADVFEATURE_SWAP_INIT))
 8007d3e:	687b      	ldr	r3, [r7, #4]
 8007d40:	6a5b      	ldr	r3, [r3, #36]	; 0x24
 8007d42:	f003 0308 	and.w	r3, r3, #8
 8007d46:	2b00      	cmp	r3, #0
 8007d48:	d00a      	beq.n	8007d60 <UART_AdvFeatureConfig+0x90>
  {
    assert_param(IS_UART_ADVFEATURE_SWAP(huart->AdvancedInit.Swap));
    MODIFY_REG(huart->Instance->CR2, USART_CR2_SWAP, huart->AdvancedInit.Swap);
 8007d4a:	687b      	ldr	r3, [r7, #4]
 8007d4c:	681b      	ldr	r3, [r3, #0]
 8007d4e:	685b      	ldr	r3, [r3, #4]
 8007d50:	f423 4100 	bic.w	r1, r3, #32768	; 0x8000
 8007d54:	687b      	ldr	r3, [r7, #4]
 8007d56:	6b5a      	ldr	r2, [r3, #52]	; 0x34
 8007d58:	687b      	ldr	r3, [r7, #4]
 8007d5a:	681b      	ldr	r3, [r3, #0]
 8007d5c:	430a      	orrs	r2, r1
 8007d5e:	605a      	str	r2, [r3, #4]
  }

  /* if required, configure RX overrun detection disabling */
  if (HAL_IS_BIT_SET(huart->AdvancedInit.AdvFeatureInit, UART_ADVFEATURE_RXOVERRUNDISABLE_INIT))
 8007d60:	687b      	ldr	r3, [r7, #4]
 8007d62:	6a5b      	ldr	r3, [r3, #36]	; 0x24
 8007d64:	f003 0310 	and.w	r3, r3, #16
 8007d68:	2b00      	cmp	r3, #0
 8007d6a:	d00a      	beq.n	8007d82 <UART_AdvFeatureConfig+0xb2>
  {
    assert_param(IS_UART_OVERRUN(huart->AdvancedInit.OverrunDisable));
    MODIFY_REG(huart->Instance->CR3, USART_CR3_OVRDIS, huart->AdvancedInit.OverrunDisable);
 8007d6c:	687b      	ldr	r3, [r7, #4]
 8007d6e:	681b      	ldr	r3, [r3, #0]
 8007d70:	689b      	ldr	r3, [r3, #8]
 8007d72:	f423 5180 	bic.w	r1, r3, #4096	; 0x1000
 8007d76:	687b      	ldr	r3, [r7, #4]
 8007d78:	6b9a      	ldr	r2, [r3, #56]	; 0x38
 8007d7a:	687b      	ldr	r3, [r7, #4]
 8007d7c:	681b      	ldr	r3, [r3, #0]
 8007d7e:	430a      	orrs	r2, r1
 8007d80:	609a      	str	r2, [r3, #8]
  }

  /* if required, configure DMA disabling on reception error */
  if (HAL_IS_BIT_SET(huart->AdvancedInit.AdvFeatureInit, UART_ADVFEATURE_DMADISABLEONERROR_INIT))
 8007d82:	687b      	ldr	r3, [r7, #4]
 8007d84:	6a5b      	ldr	r3, [r3, #36]	; 0x24
 8007d86:	f003 0320 	and.w	r3, r3, #32
 8007d8a:	2b00      	cmp	r3, #0
 8007d8c:	d00a      	beq.n	8007da4 <UART_AdvFeatureConfig+0xd4>
  {
    assert_param(IS_UART_ADVFEATURE_DMAONRXERROR(huart->AdvancedInit.DMADisableonRxError));
    MODIFY_REG(huart->Instance->CR3, USART_CR3_DDRE, huart->AdvancedInit.DMADisableonRxError);
 8007d8e:	687b      	ldr	r3, [r7, #4]
 8007d90:	681b      	ldr	r3, [r3, #0]
 8007d92:	689b      	ldr	r3, [r3, #8]
 8007d94:	f423 5100 	bic.w	r1, r3, #8192	; 0x2000
 8007d98:	687b      	ldr	r3, [r7, #4]
 8007d9a:	6bda      	ldr	r2, [r3, #60]	; 0x3c
 8007d9c:	687b      	ldr	r3, [r7, #4]
 8007d9e:	681b      	ldr	r3, [r3, #0]
 8007da0:	430a      	orrs	r2, r1
 8007da2:	609a      	str	r2, [r3, #8]
  }

  /* if required, configure auto Baud rate detection scheme */
  if (HAL_IS_BIT_SET(huart->AdvancedInit.AdvFeatureInit, UART_ADVFEATURE_AUTOBAUDRATE_INIT))
 8007da4:	687b      	ldr	r3, [r7, #4]
 8007da6:	6a5b      	ldr	r3, [r3, #36]	; 0x24
 8007da8:	f003 0340 	and.w	r3, r3, #64	; 0x40
 8007dac:	2b00      	cmp	r3, #0
 8007dae:	d01a      	beq.n	8007de6 <UART_AdvFeatureConfig+0x116>
  {
    assert_param(IS_USART_AUTOBAUDRATE_DETECTION_INSTANCE(huart->Instance));
    assert_param(IS_UART_ADVFEATURE_AUTOBAUDRATE(huart->AdvancedInit.AutoBaudRateEnable));
    MODIFY_REG(huart->Instance->CR2, USART_CR2_ABREN, huart->AdvancedInit.AutoBaudRateEnable);
 8007db0:	687b      	ldr	r3, [r7, #4]
 8007db2:	681b      	ldr	r3, [r3, #0]
 8007db4:	685b      	ldr	r3, [r3, #4]
 8007db6:	f423 1180 	bic.w	r1, r3, #1048576	; 0x100000
 8007dba:	687b      	ldr	r3, [r7, #4]
 8007dbc:	6c1a      	ldr	r2, [r3, #64]	; 0x40
 8007dbe:	687b      	ldr	r3, [r7, #4]
 8007dc0:	681b      	ldr	r3, [r3, #0]
 8007dc2:	430a      	orrs	r2, r1
 8007dc4:	605a      	str	r2, [r3, #4]
    /* set auto Baudrate detection parameters if detection is enabled */
    if (huart->AdvancedInit.AutoBaudRateEnable == UART_ADVFEATURE_AUTOBAUDRATE_ENABLE)
 8007dc6:	687b      	ldr	r3, [r7, #4]
 8007dc8:	6c1b      	ldr	r3, [r3, #64]	; 0x40
 8007dca:	f5b3 1f80 	cmp.w	r3, #1048576	; 0x100000
 8007dce:	d10a      	bne.n	8007de6 <UART_AdvFeatureConfig+0x116>
    {
      assert_param(IS_UART_ADVFEATURE_AUTOBAUDRATEMODE(huart->AdvancedInit.AutoBaudRateMode));
      MODIFY_REG(huart->Instance->CR2, USART_CR2_ABRMODE, huart->AdvancedInit.AutoBaudRateMode);
 8007dd0:	687b      	ldr	r3, [r7, #4]
 8007dd2:	681b      	ldr	r3, [r3, #0]
 8007dd4:	685b      	ldr	r3, [r3, #4]
 8007dd6:	f423 01c0 	bic.w	r1, r3, #6291456	; 0x600000
 8007dda:	687b      	ldr	r3, [r7, #4]
 8007ddc:	6c5a      	ldr	r2, [r3, #68]	; 0x44
 8007dde:	687b      	ldr	r3, [r7, #4]
 8007de0:	681b      	ldr	r3, [r3, #0]
 8007de2:	430a      	orrs	r2, r1
 8007de4:	605a      	str	r2, [r3, #4]
    }
  }

  /* if required, configure MSB first on communication line */
  if (HAL_IS_BIT_SET(huart->AdvancedInit.AdvFeatureInit, UART_ADVFEATURE_MSBFIRST_INIT))
 8007de6:	687b      	ldr	r3, [r7, #4]
 8007de8:	6a5b      	ldr	r3, [r3, #36]	; 0x24
 8007dea:	f003 0380 	and.w	r3, r3, #128	; 0x80
 8007dee:	2b00      	cmp	r3, #0
 8007df0:	d00a      	beq.n	8007e08 <UART_AdvFeatureConfig+0x138>
  {
    assert_param(IS_UART_ADVFEATURE_MSBFIRST(huart->AdvancedInit.MSBFirst));
    MODIFY_REG(huart->Instance->CR2, USART_CR2_MSBFIRST, huart->AdvancedInit.MSBFirst);
 8007df2:	687b      	ldr	r3, [r7, #4]
 8007df4:	681b      	ldr	r3, [r3, #0]
 8007df6:	685b      	ldr	r3, [r3, #4]
 8007df8:	f423 2100 	bic.w	r1, r3, #524288	; 0x80000
 8007dfc:	687b      	ldr	r3, [r7, #4]
 8007dfe:	6c9a      	ldr	r2, [r3, #72]	; 0x48
 8007e00:	687b      	ldr	r3, [r7, #4]
 8007e02:	681b      	ldr	r3, [r3, #0]
 8007e04:	430a      	orrs	r2, r1
 8007e06:	605a      	str	r2, [r3, #4]
  }
}
 8007e08:	bf00      	nop
 8007e0a:	370c      	adds	r7, #12
 8007e0c:	46bd      	mov	sp, r7
 8007e0e:	f85d 7b04 	ldr.w	r7, [sp], #4
 8007e12:	4770      	bx	lr

08007e14 <UART_CheckIdleState>:
  * @brief Check the UART Idle State.
  * @param huart UART handle.
  * @retval HAL status
  */
HAL_StatusTypeDef UART_CheckIdleState(UART_HandleTypeDef *huart)
{
 8007e14:	b580      	push	{r7, lr}
 8007e16:	b086      	sub	sp, #24
 8007e18:	af02      	add	r7, sp, #8
 8007e1a:	6078      	str	r0, [r7, #4]
  uint32_t tickstart;

  /* Initialize the UART ErrorCode */
  huart->ErrorCode = HAL_UART_ERROR_NONE;
 8007e1c:	687b      	ldr	r3, [r7, #4]
 8007e1e:	2200      	movs	r2, #0
 8007e20:	f8c3 2080 	str.w	r2, [r3, #128]	; 0x80

  /* Init tickstart for timeout management */
  tickstart = HAL_GetTick();
 8007e24:	f7fb fe3e 	bl	8003aa4 <HAL_GetTick>
 8007e28:	60f8      	str	r0, [r7, #12]

  /* Check if the Transmitter is enabled */
  if ((huart->Instance->CR1 & USART_CR1_TE) == USART_CR1_TE)
 8007e2a:	687b      	ldr	r3, [r7, #4]
 8007e2c:	681b      	ldr	r3, [r3, #0]
 8007e2e:	681b      	ldr	r3, [r3, #0]
 8007e30:	f003 0308 	and.w	r3, r3, #8
 8007e34:	2b08      	cmp	r3, #8
 8007e36:	d10e      	bne.n	8007e56 <UART_CheckIdleState+0x42>
  {
    /* Wait until TEACK flag is set */
    if (UART_WaitOnFlagUntilTimeout(huart, USART_ISR_TEACK, RESET, tickstart, HAL_UART_TIMEOUT_VALUE) != HAL_OK)
 8007e38:	f06f 437e 	mvn.w	r3, #4261412864	; 0xfe000000
 8007e3c:	9300      	str	r3, [sp, #0]
 8007e3e:	68fb      	ldr	r3, [r7, #12]
 8007e40:	2200      	movs	r2, #0
 8007e42:	f44f 1100 	mov.w	r1, #2097152	; 0x200000
 8007e46:	6878      	ldr	r0, [r7, #4]
 8007e48:	f000 f82d 	bl	8007ea6 <UART_WaitOnFlagUntilTimeout>
 8007e4c:	4603      	mov	r3, r0
 8007e4e:	2b00      	cmp	r3, #0
 8007e50:	d001      	beq.n	8007e56 <UART_CheckIdleState+0x42>
    {
      /* Timeout occurred */
      return HAL_TIMEOUT;
 8007e52:	2303      	movs	r3, #3
 8007e54:	e023      	b.n	8007e9e <UART_CheckIdleState+0x8a>
    }
  }

  /* Check if the Receiver is enabled */
  if ((huart->Instance->CR1 & USART_CR1_RE) == USART_CR1_RE)
 8007e56:	687b      	ldr	r3, [r7, #4]
 8007e58:	681b      	ldr	r3, [r3, #0]
 8007e5a:	681b      	ldr	r3, [r3, #0]
 8007e5c:	f003 0304 	and.w	r3, r3, #4
 8007e60:	2b04      	cmp	r3, #4
 8007e62:	d10e      	bne.n	8007e82 <UART_CheckIdleState+0x6e>
  {
    /* Wait until REACK flag is set */
    if (UART_WaitOnFlagUntilTimeout(huart, USART_ISR_REACK, RESET, tickstart, HAL_UART_TIMEOUT_VALUE) != HAL_OK)
 8007e64:	f06f 437e 	mvn.w	r3, #4261412864	; 0xfe000000
 8007e68:	9300      	str	r3, [sp, #0]
 8007e6a:	68fb      	ldr	r3, [r7, #12]
 8007e6c:	2200      	movs	r2, #0
 8007e6e:	f44f 0180 	mov.w	r1, #4194304	; 0x400000
 8007e72:	6878      	ldr	r0, [r7, #4]
 8007e74:	f000 f817 	bl	8007ea6 <UART_WaitOnFlagUntilTimeout>
 8007e78:	4603      	mov	r3, r0
 8007e7a:	2b00      	cmp	r3, #0
 8007e7c:	d001      	beq.n	8007e82 <UART_CheckIdleState+0x6e>
    {
      /* Timeout occurred */
      return HAL_TIMEOUT;
 8007e7e:	2303      	movs	r3, #3
 8007e80:	e00d      	b.n	8007e9e <UART_CheckIdleState+0x8a>
    }
  }

  /* Initialize the UART State */
  huart->gState = HAL_UART_STATE_READY;
 8007e82:	687b      	ldr	r3, [r7, #4]
 8007e84:	2220      	movs	r2, #32
 8007e86:	679a      	str	r2, [r3, #120]	; 0x78
  huart->RxState = HAL_UART_STATE_READY;
 8007e88:	687b      	ldr	r3, [r7, #4]
 8007e8a:	2220      	movs	r2, #32
 8007e8c:	67da      	str	r2, [r3, #124]	; 0x7c
  huart->ReceptionType = HAL_UART_RECEPTION_STANDARD;
 8007e8e:	687b      	ldr	r3, [r7, #4]
 8007e90:	2200      	movs	r2, #0
 8007e92:	661a      	str	r2, [r3, #96]	; 0x60

  __HAL_UNLOCK(huart);
 8007e94:	687b      	ldr	r3, [r7, #4]
 8007e96:	2200      	movs	r2, #0
 8007e98:	f883 2074 	strb.w	r2, [r3, #116]	; 0x74

  return HAL_OK;
 8007e9c:	2300      	movs	r3, #0
}
 8007e9e:	4618      	mov	r0, r3
 8007ea0:	3710      	adds	r7, #16
 8007ea2:	46bd      	mov	sp, r7
 8007ea4:	bd80      	pop	{r7, pc}

08007ea6 <UART_WaitOnFlagUntilTimeout>:
  * @param Timeout   Timeout duration
  * @retval HAL status
  */
HAL_StatusTypeDef UART_WaitOnFlagUntilTimeout(UART_HandleTypeDef *huart, uint32_t Flag, FlagStatus Status,
                                              uint32_t Tickstart, uint32_t Timeout)
{
 8007ea6:	b580      	push	{r7, lr}
 8007ea8:	b09c      	sub	sp, #112	; 0x70
 8007eaa:	af00      	add	r7, sp, #0
 8007eac:	60f8      	str	r0, [r7, #12]
 8007eae:	60b9      	str	r1, [r7, #8]
 8007eb0:	603b      	str	r3, [r7, #0]
 8007eb2:	4613      	mov	r3, r2
 8007eb4:	71fb      	strb	r3, [r7, #7]
  /* Wait until flag is set */
  while ((__HAL_UART_GET_FLAG(huart, Flag) ? SET : RESET) == Status)
 8007eb6:	e0a5      	b.n	8008004 <UART_WaitOnFlagUntilTimeout+0x15e>
  {
    /* Check for the Timeout */
    if (Timeout != HAL_MAX_DELAY)
 8007eb8:	6fbb      	ldr	r3, [r7, #120]	; 0x78
 8007eba:	f1b3 3fff 	cmp.w	r3, #4294967295
 8007ebe:	f000 80a1 	beq.w	8008004 <UART_WaitOnFlagUntilTimeout+0x15e>
    {
      if (((HAL_GetTick() - Tickstart) > Timeout) || (Timeout == 0U))
 8007ec2:	f7fb fdef 	bl	8003aa4 <HAL_GetTick>
 8007ec6:	4602      	mov	r2, r0
 8007ec8:	683b      	ldr	r3, [r7, #0]
 8007eca:	1ad3      	subs	r3, r2, r3
 8007ecc:	6fba      	ldr	r2, [r7, #120]	; 0x78
 8007ece:	429a      	cmp	r2, r3
 8007ed0:	d302      	bcc.n	8007ed8 <UART_WaitOnFlagUntilTimeout+0x32>
 8007ed2:	6fbb      	ldr	r3, [r7, #120]	; 0x78
 8007ed4:	2b00      	cmp	r3, #0
 8007ed6:	d13e      	bne.n	8007f56 <UART_WaitOnFlagUntilTimeout+0xb0>
      {
        /* Disable TXE, RXNE, PE and ERR (Frame error, noise error, overrun error)
           interrupts for the interrupt process */
        ATOMIC_CLEAR_BIT(huart->Instance->CR1, (USART_CR1_RXNEIE | USART_CR1_PEIE | USART_CR1_TXEIE));
 8007ed8:	68fb      	ldr	r3, [r7, #12]
 8007eda:	681b      	ldr	r3, [r3, #0]
 8007edc:	653b      	str	r3, [r7, #80]	; 0x50
 */
__STATIC_FORCEINLINE uint32_t __LDREXW(volatile uint32_t *addr)
{
    uint32_t result;

   __ASM volatile ("ldrex %0, %1" : "=r" (result) : "Q" (*addr) );
 8007ede:	6d3b      	ldr	r3, [r7, #80]	; 0x50
 8007ee0:	e853 3f00 	ldrex	r3, [r3]
 8007ee4:	64fb      	str	r3, [r7, #76]	; 0x4c
   return(result);
 8007ee6:	6cfb      	ldr	r3, [r7, #76]	; 0x4c
 8007ee8:	f423 73d0 	bic.w	r3, r3, #416	; 0x1a0
 8007eec:	667b      	str	r3, [r7, #100]	; 0x64
 8007eee:	68fb      	ldr	r3, [r7, #12]
 8007ef0:	681b      	ldr	r3, [r3, #0]
 8007ef2:	461a      	mov	r2, r3
 8007ef4:	6e7b      	ldr	r3, [r7, #100]	; 0x64
 8007ef6:	65fb      	str	r3, [r7, #92]	; 0x5c
 8007ef8:	65ba      	str	r2, [r7, #88]	; 0x58
 */
__STATIC_FORCEINLINE uint32_t __STREXW(uint32_t value, volatile uint32_t *addr)
{
   uint32_t result;

   __ASM volatile ("strex %0, %2, %1" : "=&r" (result), "=Q" (*addr) : "r" (value) );
 8007efa:	6db9      	ldr	r1, [r7, #88]	; 0x58
 8007efc:	6dfa      	ldr	r2, [r7, #92]	; 0x5c
 8007efe:	e841 2300 	strex	r3, r2, [r1]
 8007f02:	657b      	str	r3, [r7, #84]	; 0x54
   return(result);
 8007f04:	6d7b      	ldr	r3, [r7, #84]	; 0x54
 8007f06:	2b00      	cmp	r3, #0
 8007f08:	d1e6      	bne.n	8007ed8 <UART_WaitOnFlagUntilTimeout+0x32>
        ATOMIC_CLEAR_BIT(huart->Instance->CR3, USART_CR3_EIE);
 8007f0a:	68fb      	ldr	r3, [r7, #12]
 8007f0c:	681b      	ldr	r3, [r3, #0]
 8007f0e:	3308      	adds	r3, #8
 8007f10:	63fb      	str	r3, [r7, #60]	; 0x3c
   __ASM volatile ("ldrex %0, %1" : "=r" (result) : "Q" (*addr) );
 8007f12:	6bfb      	ldr	r3, [r7, #60]	; 0x3c
 8007f14:	e853 3f00 	ldrex	r3, [r3]
 8007f18:	63bb      	str	r3, [r7, #56]	; 0x38
   return(result);
 8007f1a:	6bbb      	ldr	r3, [r7, #56]	; 0x38
 8007f1c:	f023 0301 	bic.w	r3, r3, #1
 8007f20:	663b      	str	r3, [r7, #96]	; 0x60
 8007f22:	68fb      	ldr	r3, [r7, #12]
 8007f24:	681b      	ldr	r3, [r3, #0]
 8007f26:	3308      	adds	r3, #8
 8007f28:	6e3a      	ldr	r2, [r7, #96]	; 0x60
 8007f2a:	64ba      	str	r2, [r7, #72]	; 0x48
 8007f2c:	647b      	str	r3, [r7, #68]	; 0x44
   __ASM volatile ("strex %0, %2, %1" : "=&r" (result), "=Q" (*addr) : "r" (value) );
 8007f2e:	6c79      	ldr	r1, [r7, #68]	; 0x44
 8007f30:	6cba      	ldr	r2, [r7, #72]	; 0x48
 8007f32:	e841 2300 	strex	r3, r2, [r1]
 8007f36:	643b      	str	r3, [r7, #64]	; 0x40
   return(result);
 8007f38:	6c3b      	ldr	r3, [r7, #64]	; 0x40
 8007f3a:	2b00      	cmp	r3, #0
 8007f3c:	d1e5      	bne.n	8007f0a <UART_WaitOnFlagUntilTimeout+0x64>

        huart->gState = HAL_UART_STATE_READY;
 8007f3e:	68fb      	ldr	r3, [r7, #12]
 8007f40:	2220      	movs	r2, #32
 8007f42:	679a      	str	r2, [r3, #120]	; 0x78
        huart->RxState = HAL_UART_STATE_READY;
 8007f44:	68fb      	ldr	r3, [r7, #12]
 8007f46:	2220      	movs	r2, #32
 8007f48:	67da      	str	r2, [r3, #124]	; 0x7c

        __HAL_UNLOCK(huart);
 8007f4a:	68fb      	ldr	r3, [r7, #12]
 8007f4c:	2200      	movs	r2, #0
 8007f4e:	f883 2074 	strb.w	r2, [r3, #116]	; 0x74

        return HAL_TIMEOUT;
 8007f52:	2303      	movs	r3, #3
 8007f54:	e067      	b.n	8008026 <UART_WaitOnFlagUntilTimeout+0x180>
      }

      if (READ_BIT(huart->Instance->CR1, USART_CR1_RE) != 0U)
 8007f56:	68fb      	ldr	r3, [r7, #12]
 8007f58:	681b      	ldr	r3, [r3, #0]
 8007f5a:	681b      	ldr	r3, [r3, #0]
 8007f5c:	f003 0304 	and.w	r3, r3, #4
 8007f60:	2b00      	cmp	r3, #0
 8007f62:	d04f      	beq.n	8008004 <UART_WaitOnFlagUntilTimeout+0x15e>
      {
        if (__HAL_UART_GET_FLAG(huart, UART_FLAG_RTOF) == SET)
 8007f64:	68fb      	ldr	r3, [r7, #12]
 8007f66:	681b      	ldr	r3, [r3, #0]
 8007f68:	69db      	ldr	r3, [r3, #28]
 8007f6a:	f403 6300 	and.w	r3, r3, #2048	; 0x800
 8007f6e:	f5b3 6f00 	cmp.w	r3, #2048	; 0x800
 8007f72:	d147      	bne.n	8008004 <UART_WaitOnFlagUntilTimeout+0x15e>
        {
          /* Clear Receiver Timeout flag*/
          __HAL_UART_CLEAR_FLAG(huart, UART_CLEAR_RTOF);
 8007f74:	68fb      	ldr	r3, [r7, #12]
 8007f76:	681b      	ldr	r3, [r3, #0]
 8007f78:	f44f 6200 	mov.w	r2, #2048	; 0x800
 8007f7c:	621a      	str	r2, [r3, #32]

          /* Disable TXE, RXNE, PE and ERR (Frame error, noise error, overrun error)
             interrupts for the interrupt process */
          ATOMIC_CLEAR_BIT(huart->Instance->CR1, (USART_CR1_RXNEIE | USART_CR1_PEIE | USART_CR1_TXEIE));
 8007f7e:	68fb      	ldr	r3, [r7, #12]
 8007f80:	681b      	ldr	r3, [r3, #0]
 8007f82:	62bb      	str	r3, [r7, #40]	; 0x28
   __ASM volatile ("ldrex %0, %1" : "=r" (result) : "Q" (*addr) );
 8007f84:	6abb      	ldr	r3, [r7, #40]	; 0x28
 8007f86:	e853 3f00 	ldrex	r3, [r3]
 8007f8a:	627b      	str	r3, [r7, #36]	; 0x24
   return(result);
 8007f8c:	6a7b      	ldr	r3, [r7, #36]	; 0x24
 8007f8e:	f423 73d0 	bic.w	r3, r3, #416	; 0x1a0
 8007f92:	66fb      	str	r3, [r7, #108]	; 0x6c
 8007f94:	68fb      	ldr	r3, [r7, #12]
 8007f96:	681b      	ldr	r3, [r3, #0]
 8007f98:	461a      	mov	r2, r3
 8007f9a:	6efb      	ldr	r3, [r7, #108]	; 0x6c
 8007f9c:	637b      	str	r3, [r7, #52]	; 0x34
 8007f9e:	633a      	str	r2, [r7, #48]	; 0x30
   __ASM volatile ("strex %0, %2, %1" : "=&r" (result), "=Q" (*addr) : "r" (value) );
 8007fa0:	6b39      	ldr	r1, [r7, #48]	; 0x30
 8007fa2:	6b7a      	ldr	r2, [r7, #52]	; 0x34
 8007fa4:	e841 2300 	strex	r3, r2, [r1]
 8007fa8:	62fb      	str	r3, [r7, #44]	; 0x2c
   return(result);
 8007faa:	6afb      	ldr	r3, [r7, #44]	; 0x2c
 8007fac:	2b00      	cmp	r3, #0
 8007fae:	d1e6      	bne.n	8007f7e <UART_WaitOnFlagUntilTimeout+0xd8>
          ATOMIC_CLEAR_BIT(huart->Instance->CR3, USART_CR3_EIE);
 8007fb0:	68fb      	ldr	r3, [r7, #12]
 8007fb2:	681b      	ldr	r3, [r3, #0]
 8007fb4:	3308      	adds	r3, #8
 8007fb6:	617b      	str	r3, [r7, #20]
   __ASM volatile ("ldrex %0, %1" : "=r" (result) : "Q" (*addr) );
 8007fb8:	697b      	ldr	r3, [r7, #20]
 8007fba:	e853 3f00 	ldrex	r3, [r3]
 8007fbe:	613b      	str	r3, [r7, #16]
   return(result);
 8007fc0:	693b      	ldr	r3, [r7, #16]
 8007fc2:	f023 0301 	bic.w	r3, r3, #1
 8007fc6:	66bb      	str	r3, [r7, #104]	; 0x68
 8007fc8:	68fb      	ldr	r3, [r7, #12]
 8007fca:	681b      	ldr	r3, [r3, #0]
 8007fcc:	3308      	adds	r3, #8
 8007fce:	6eba      	ldr	r2, [r7, #104]	; 0x68
 8007fd0:	623a      	str	r2, [r7, #32]
 8007fd2:	61fb      	str	r3, [r7, #28]
   __ASM volatile ("strex %0, %2, %1" : "=&r" (result), "=Q" (*addr) : "r" (value) );
 8007fd4:	69f9      	ldr	r1, [r7, #28]
 8007fd6:	6a3a      	ldr	r2, [r7, #32]
 8007fd8:	e841 2300 	strex	r3, r2, [r1]
 8007fdc:	61bb      	str	r3, [r7, #24]
   return(result);
 8007fde:	69bb      	ldr	r3, [r7, #24]
 8007fe0:	2b00      	cmp	r3, #0
 8007fe2:	d1e5      	bne.n	8007fb0 <UART_WaitOnFlagUntilTimeout+0x10a>

          huart->gState = HAL_UART_STATE_READY;
 8007fe4:	68fb      	ldr	r3, [r7, #12]
 8007fe6:	2220      	movs	r2, #32
 8007fe8:	679a      	str	r2, [r3, #120]	; 0x78
          huart->RxState = HAL_UART_STATE_READY;
 8007fea:	68fb      	ldr	r3, [r7, #12]
 8007fec:	2220      	movs	r2, #32
 8007fee:	67da      	str	r2, [r3, #124]	; 0x7c
          huart->ErrorCode = HAL_UART_ERROR_RTO;
 8007ff0:	68fb      	ldr	r3, [r7, #12]
 8007ff2:	2220      	movs	r2, #32
 8007ff4:	f8c3 2080 	str.w	r2, [r3, #128]	; 0x80

          /* Process Unlocked */
          __HAL_UNLOCK(huart);
 8007ff8:	68fb      	ldr	r3, [r7, #12]
 8007ffa:	2200      	movs	r2, #0
 8007ffc:	f883 2074 	strb.w	r2, [r3, #116]	; 0x74

          return HAL_TIMEOUT;
 8008000:	2303      	movs	r3, #3
 8008002:	e010      	b.n	8008026 <UART_WaitOnFlagUntilTimeout+0x180>
  while ((__HAL_UART_GET_FLAG(huart, Flag) ? SET : RESET) == Status)
 8008004:	68fb      	ldr	r3, [r7, #12]
 8008006:	681b      	ldr	r3, [r3, #0]
 8008008:	69da      	ldr	r2, [r3, #28]
 800800a:	68bb      	ldr	r3, [r7, #8]
 800800c:	4013      	ands	r3, r2
 800800e:	68ba      	ldr	r2, [r7, #8]
 8008010:	429a      	cmp	r2, r3
 8008012:	bf0c      	ite	eq
 8008014:	2301      	moveq	r3, #1
 8008016:	2300      	movne	r3, #0
 8008018:	b2db      	uxtb	r3, r3
 800801a:	461a      	mov	r2, r3
 800801c:	79fb      	ldrb	r3, [r7, #7]
 800801e:	429a      	cmp	r2, r3
 8008020:	f43f af4a 	beq.w	8007eb8 <UART_WaitOnFlagUntilTimeout+0x12>
        }
      }
    }
  }
  return HAL_OK;
 8008024:	2300      	movs	r3, #0
}
 8008026:	4618      	mov	r0, r3
 8008028:	3770      	adds	r7, #112	; 0x70
 800802a:	46bd      	mov	sp, r7
 800802c:	bd80      	pop	{r7, pc}
	...

08008030 <__errno>:
 8008030:	4b01      	ldr	r3, [pc, #4]	; (8008038 <__errno+0x8>)
 8008032:	6818      	ldr	r0, [r3, #0]
 8008034:	4770      	bx	lr
 8008036:	bf00      	nop
 8008038:	20001844 	.word	0x20001844

0800803c <__libc_init_array>:
 800803c:	b570      	push	{r4, r5, r6, lr}
 800803e:	4d0d      	ldr	r5, [pc, #52]	; (8008074 <__libc_init_array+0x38>)
 8008040:	4c0d      	ldr	r4, [pc, #52]	; (8008078 <__libc_init_array+0x3c>)
 8008042:	1b64      	subs	r4, r4, r5
 8008044:	10a4      	asrs	r4, r4, #2
 8008046:	2600      	movs	r6, #0
 8008048:	42a6      	cmp	r6, r4
 800804a:	d109      	bne.n	8008060 <__libc_init_array+0x24>
 800804c:	4d0b      	ldr	r5, [pc, #44]	; (800807c <__libc_init_array+0x40>)
 800804e:	4c0c      	ldr	r4, [pc, #48]	; (8008080 <__libc_init_array+0x44>)
 8008050:	f000 f9a8 	bl	80083a4 <_init>
 8008054:	1b64      	subs	r4, r4, r5
 8008056:	10a4      	asrs	r4, r4, #2
 8008058:	2600      	movs	r6, #0
 800805a:	42a6      	cmp	r6, r4
 800805c:	d105      	bne.n	800806a <__libc_init_array+0x2e>
 800805e:	bd70      	pop	{r4, r5, r6, pc}
 8008060:	f855 3b04 	ldr.w	r3, [r5], #4
 8008064:	4798      	blx	r3
 8008066:	3601      	adds	r6, #1
 8008068:	e7ee      	b.n	8008048 <__libc_init_array+0xc>
 800806a:	f855 3b04 	ldr.w	r3, [r5], #4
 800806e:	4798      	blx	r3
 8008070:	3601      	adds	r6, #1
 8008072:	e7f2      	b.n	800805a <__libc_init_array+0x1e>
 8008074:	080084d0 	.word	0x080084d0
 8008078:	080084d0 	.word	0x080084d0
 800807c:	080084d0 	.word	0x080084d0
 8008080:	080084d4 	.word	0x080084d4

08008084 <__itoa>:
 8008084:	1e93      	subs	r3, r2, #2
 8008086:	2b22      	cmp	r3, #34	; 0x22
 8008088:	b510      	push	{r4, lr}
 800808a:	460c      	mov	r4, r1
 800808c:	d904      	bls.n	8008098 <__itoa+0x14>
 800808e:	2300      	movs	r3, #0
 8008090:	700b      	strb	r3, [r1, #0]
 8008092:	461c      	mov	r4, r3
 8008094:	4620      	mov	r0, r4
 8008096:	bd10      	pop	{r4, pc}
 8008098:	2a0a      	cmp	r2, #10
 800809a:	d109      	bne.n	80080b0 <__itoa+0x2c>
 800809c:	2800      	cmp	r0, #0
 800809e:	da07      	bge.n	80080b0 <__itoa+0x2c>
 80080a0:	232d      	movs	r3, #45	; 0x2d
 80080a2:	700b      	strb	r3, [r1, #0]
 80080a4:	4240      	negs	r0, r0
 80080a6:	2101      	movs	r1, #1
 80080a8:	4421      	add	r1, r4
 80080aa:	f000 f92b 	bl	8008304 <__utoa>
 80080ae:	e7f1      	b.n	8008094 <__itoa+0x10>
 80080b0:	2100      	movs	r1, #0
 80080b2:	e7f9      	b.n	80080a8 <__itoa+0x24>

080080b4 <itoa>:
 80080b4:	f7ff bfe6 	b.w	8008084 <__itoa>

080080b8 <malloc>:
 80080b8:	4b02      	ldr	r3, [pc, #8]	; (80080c4 <malloc+0xc>)
 80080ba:	4601      	mov	r1, r0
 80080bc:	6818      	ldr	r0, [r3, #0]
 80080be:	f000 b88d 	b.w	80081dc <_malloc_r>
 80080c2:	bf00      	nop
 80080c4:	20001844 	.word	0x20001844

080080c8 <free>:
 80080c8:	4b02      	ldr	r3, [pc, #8]	; (80080d4 <free+0xc>)
 80080ca:	4601      	mov	r1, r0
 80080cc:	6818      	ldr	r0, [r3, #0]
 80080ce:	f000 b819 	b.w	8008104 <_free_r>
 80080d2:	bf00      	nop
 80080d4:	20001844 	.word	0x20001844

080080d8 <memcpy>:
 80080d8:	440a      	add	r2, r1
 80080da:	4291      	cmp	r1, r2
 80080dc:	f100 33ff 	add.w	r3, r0, #4294967295
 80080e0:	d100      	bne.n	80080e4 <memcpy+0xc>
 80080e2:	4770      	bx	lr
 80080e4:	b510      	push	{r4, lr}
 80080e6:	f811 4b01 	ldrb.w	r4, [r1], #1
 80080ea:	f803 4f01 	strb.w	r4, [r3, #1]!
 80080ee:	4291      	cmp	r1, r2
 80080f0:	d1f9      	bne.n	80080e6 <memcpy+0xe>
 80080f2:	bd10      	pop	{r4, pc}

080080f4 <memset>:
 80080f4:	4402      	add	r2, r0
 80080f6:	4603      	mov	r3, r0
 80080f8:	4293      	cmp	r3, r2
 80080fa:	d100      	bne.n	80080fe <memset+0xa>
 80080fc:	4770      	bx	lr
 80080fe:	f803 1b01 	strb.w	r1, [r3], #1
 8008102:	e7f9      	b.n	80080f8 <memset+0x4>

08008104 <_free_r>:
 8008104:	b537      	push	{r0, r1, r2, r4, r5, lr}
 8008106:	2900      	cmp	r1, #0
 8008108:	d044      	beq.n	8008194 <_free_r+0x90>
 800810a:	f851 3c04 	ldr.w	r3, [r1, #-4]
 800810e:	9001      	str	r0, [sp, #4]
 8008110:	2b00      	cmp	r3, #0
 8008112:	f1a1 0404 	sub.w	r4, r1, #4
 8008116:	bfb8      	it	lt
 8008118:	18e4      	addlt	r4, r4, r3
 800811a:	f000 f935 	bl	8008388 <__malloc_lock>
 800811e:	4a1e      	ldr	r2, [pc, #120]	; (8008198 <_free_r+0x94>)
 8008120:	9801      	ldr	r0, [sp, #4]
 8008122:	6813      	ldr	r3, [r2, #0]
 8008124:	b933      	cbnz	r3, 8008134 <_free_r+0x30>
 8008126:	6063      	str	r3, [r4, #4]
 8008128:	6014      	str	r4, [r2, #0]
 800812a:	b003      	add	sp, #12
 800812c:	e8bd 4030 	ldmia.w	sp!, {r4, r5, lr}
 8008130:	f000 b930 	b.w	8008394 <__malloc_unlock>
 8008134:	42a3      	cmp	r3, r4
 8008136:	d908      	bls.n	800814a <_free_r+0x46>
 8008138:	6825      	ldr	r5, [r4, #0]
 800813a:	1961      	adds	r1, r4, r5
 800813c:	428b      	cmp	r3, r1
 800813e:	bf01      	itttt	eq
 8008140:	6819      	ldreq	r1, [r3, #0]
 8008142:	685b      	ldreq	r3, [r3, #4]
 8008144:	1949      	addeq	r1, r1, r5
 8008146:	6021      	streq	r1, [r4, #0]
 8008148:	e7ed      	b.n	8008126 <_free_r+0x22>
 800814a:	461a      	mov	r2, r3
 800814c:	685b      	ldr	r3, [r3, #4]
 800814e:	b10b      	cbz	r3, 8008154 <_free_r+0x50>
 8008150:	42a3      	cmp	r3, r4
 8008152:	d9fa      	bls.n	800814a <_free_r+0x46>
 8008154:	6811      	ldr	r1, [r2, #0]
 8008156:	1855      	adds	r5, r2, r1
 8008158:	42a5      	cmp	r5, r4
 800815a:	d10b      	bne.n	8008174 <_free_r+0x70>
 800815c:	6824      	ldr	r4, [r4, #0]
 800815e:	4421      	add	r1, r4
 8008160:	1854      	adds	r4, r2, r1
 8008162:	42a3      	cmp	r3, r4
 8008164:	6011      	str	r1, [r2, #0]
 8008166:	d1e0      	bne.n	800812a <_free_r+0x26>
 8008168:	681c      	ldr	r4, [r3, #0]
 800816a:	685b      	ldr	r3, [r3, #4]
 800816c:	6053      	str	r3, [r2, #4]
 800816e:	4421      	add	r1, r4
 8008170:	6011      	str	r1, [r2, #0]
 8008172:	e7da      	b.n	800812a <_free_r+0x26>
 8008174:	d902      	bls.n	800817c <_free_r+0x78>
 8008176:	230c      	movs	r3, #12
 8008178:	6003      	str	r3, [r0, #0]
 800817a:	e7d6      	b.n	800812a <_free_r+0x26>
 800817c:	6825      	ldr	r5, [r4, #0]
 800817e:	1961      	adds	r1, r4, r5
 8008180:	428b      	cmp	r3, r1
 8008182:	bf04      	itt	eq
 8008184:	6819      	ldreq	r1, [r3, #0]
 8008186:	685b      	ldreq	r3, [r3, #4]
 8008188:	6063      	str	r3, [r4, #4]
 800818a:	bf04      	itt	eq
 800818c:	1949      	addeq	r1, r1, r5
 800818e:	6021      	streq	r1, [r4, #0]
 8008190:	6054      	str	r4, [r2, #4]
 8008192:	e7ca      	b.n	800812a <_free_r+0x26>
 8008194:	b003      	add	sp, #12
 8008196:	bd30      	pop	{r4, r5, pc}
 8008198:	200036ec 	.word	0x200036ec

0800819c <sbrk_aligned>:
 800819c:	b570      	push	{r4, r5, r6, lr}
 800819e:	4e0e      	ldr	r6, [pc, #56]	; (80081d8 <sbrk_aligned+0x3c>)
 80081a0:	460c      	mov	r4, r1
 80081a2:	6831      	ldr	r1, [r6, #0]
 80081a4:	4605      	mov	r5, r0
 80081a6:	b911      	cbnz	r1, 80081ae <sbrk_aligned+0x12>
 80081a8:	f000 f88c 	bl	80082c4 <_sbrk_r>
 80081ac:	6030      	str	r0, [r6, #0]
 80081ae:	4621      	mov	r1, r4
 80081b0:	4628      	mov	r0, r5
 80081b2:	f000 f887 	bl	80082c4 <_sbrk_r>
 80081b6:	1c43      	adds	r3, r0, #1
 80081b8:	d00a      	beq.n	80081d0 <sbrk_aligned+0x34>
 80081ba:	1cc4      	adds	r4, r0, #3
 80081bc:	f024 0403 	bic.w	r4, r4, #3
 80081c0:	42a0      	cmp	r0, r4
 80081c2:	d007      	beq.n	80081d4 <sbrk_aligned+0x38>
 80081c4:	1a21      	subs	r1, r4, r0
 80081c6:	4628      	mov	r0, r5
 80081c8:	f000 f87c 	bl	80082c4 <_sbrk_r>
 80081cc:	3001      	adds	r0, #1
 80081ce:	d101      	bne.n	80081d4 <sbrk_aligned+0x38>
 80081d0:	f04f 34ff 	mov.w	r4, #4294967295
 80081d4:	4620      	mov	r0, r4
 80081d6:	bd70      	pop	{r4, r5, r6, pc}
 80081d8:	200036f0 	.word	0x200036f0

080081dc <_malloc_r>:
 80081dc:	e92d 41f0 	stmdb	sp!, {r4, r5, r6, r7, r8, lr}
 80081e0:	1ccd      	adds	r5, r1, #3
 80081e2:	f025 0503 	bic.w	r5, r5, #3
 80081e6:	3508      	adds	r5, #8
 80081e8:	2d0c      	cmp	r5, #12
 80081ea:	bf38      	it	cc
 80081ec:	250c      	movcc	r5, #12
 80081ee:	2d00      	cmp	r5, #0
 80081f0:	4607      	mov	r7, r0
 80081f2:	db01      	blt.n	80081f8 <_malloc_r+0x1c>
 80081f4:	42a9      	cmp	r1, r5
 80081f6:	d905      	bls.n	8008204 <_malloc_r+0x28>
 80081f8:	230c      	movs	r3, #12
 80081fa:	603b      	str	r3, [r7, #0]
 80081fc:	2600      	movs	r6, #0
 80081fe:	4630      	mov	r0, r6
 8008200:	e8bd 81f0 	ldmia.w	sp!, {r4, r5, r6, r7, r8, pc}
 8008204:	4e2e      	ldr	r6, [pc, #184]	; (80082c0 <_malloc_r+0xe4>)
 8008206:	f000 f8bf 	bl	8008388 <__malloc_lock>
 800820a:	6833      	ldr	r3, [r6, #0]
 800820c:	461c      	mov	r4, r3
 800820e:	bb34      	cbnz	r4, 800825e <_malloc_r+0x82>
 8008210:	4629      	mov	r1, r5
 8008212:	4638      	mov	r0, r7
 8008214:	f7ff ffc2 	bl	800819c <sbrk_aligned>
 8008218:	1c43      	adds	r3, r0, #1
 800821a:	4604      	mov	r4, r0
 800821c:	d14d      	bne.n	80082ba <_malloc_r+0xde>
 800821e:	6834      	ldr	r4, [r6, #0]
 8008220:	4626      	mov	r6, r4
 8008222:	2e00      	cmp	r6, #0
 8008224:	d140      	bne.n	80082a8 <_malloc_r+0xcc>
 8008226:	6823      	ldr	r3, [r4, #0]
 8008228:	4631      	mov	r1, r6
 800822a:	4638      	mov	r0, r7
 800822c:	eb04 0803 	add.w	r8, r4, r3
 8008230:	f000 f848 	bl	80082c4 <_sbrk_r>
 8008234:	4580      	cmp	r8, r0
 8008236:	d13a      	bne.n	80082ae <_malloc_r+0xd2>
 8008238:	6821      	ldr	r1, [r4, #0]
 800823a:	3503      	adds	r5, #3
 800823c:	1a6d      	subs	r5, r5, r1
 800823e:	f025 0503 	bic.w	r5, r5, #3
 8008242:	3508      	adds	r5, #8
 8008244:	2d0c      	cmp	r5, #12
 8008246:	bf38      	it	cc
 8008248:	250c      	movcc	r5, #12
 800824a:	4629      	mov	r1, r5
 800824c:	4638      	mov	r0, r7
 800824e:	f7ff ffa5 	bl	800819c <sbrk_aligned>
 8008252:	3001      	adds	r0, #1
 8008254:	d02b      	beq.n	80082ae <_malloc_r+0xd2>
 8008256:	6823      	ldr	r3, [r4, #0]
 8008258:	442b      	add	r3, r5
 800825a:	6023      	str	r3, [r4, #0]
 800825c:	e00e      	b.n	800827c <_malloc_r+0xa0>
 800825e:	6822      	ldr	r2, [r4, #0]
 8008260:	1b52      	subs	r2, r2, r5
 8008262:	d41e      	bmi.n	80082a2 <_malloc_r+0xc6>
 8008264:	2a0b      	cmp	r2, #11
 8008266:	d916      	bls.n	8008296 <_malloc_r+0xba>
 8008268:	1961      	adds	r1, r4, r5
 800826a:	42a3      	cmp	r3, r4
 800826c:	6025      	str	r5, [r4, #0]
 800826e:	bf18      	it	ne
 8008270:	6059      	strne	r1, [r3, #4]
 8008272:	6863      	ldr	r3, [r4, #4]
 8008274:	bf08      	it	eq
 8008276:	6031      	streq	r1, [r6, #0]
 8008278:	5162      	str	r2, [r4, r5]
 800827a:	604b      	str	r3, [r1, #4]
 800827c:	4638      	mov	r0, r7
 800827e:	f104 060b 	add.w	r6, r4, #11
 8008282:	f000 f887 	bl	8008394 <__malloc_unlock>
 8008286:	f026 0607 	bic.w	r6, r6, #7
 800828a:	1d23      	adds	r3, r4, #4
 800828c:	1af2      	subs	r2, r6, r3
 800828e:	d0b6      	beq.n	80081fe <_malloc_r+0x22>
 8008290:	1b9b      	subs	r3, r3, r6
 8008292:	50a3      	str	r3, [r4, r2]
 8008294:	e7b3      	b.n	80081fe <_malloc_r+0x22>
 8008296:	6862      	ldr	r2, [r4, #4]
 8008298:	42a3      	cmp	r3, r4
 800829a:	bf0c      	ite	eq
 800829c:	6032      	streq	r2, [r6, #0]
 800829e:	605a      	strne	r2, [r3, #4]
 80082a0:	e7ec      	b.n	800827c <_malloc_r+0xa0>
 80082a2:	4623      	mov	r3, r4
 80082a4:	6864      	ldr	r4, [r4, #4]
 80082a6:	e7b2      	b.n	800820e <_malloc_r+0x32>
 80082a8:	4634      	mov	r4, r6
 80082aa:	6876      	ldr	r6, [r6, #4]
 80082ac:	e7b9      	b.n	8008222 <_malloc_r+0x46>
 80082ae:	230c      	movs	r3, #12
 80082b0:	603b      	str	r3, [r7, #0]
 80082b2:	4638      	mov	r0, r7
 80082b4:	f000 f86e 	bl	8008394 <__malloc_unlock>
 80082b8:	e7a1      	b.n	80081fe <_malloc_r+0x22>
 80082ba:	6025      	str	r5, [r4, #0]
 80082bc:	e7de      	b.n	800827c <_malloc_r+0xa0>
 80082be:	bf00      	nop
 80082c0:	200036ec 	.word	0x200036ec

080082c4 <_sbrk_r>:
 80082c4:	b538      	push	{r3, r4, r5, lr}
 80082c6:	4d06      	ldr	r5, [pc, #24]	; (80082e0 <_sbrk_r+0x1c>)
 80082c8:	2300      	movs	r3, #0
 80082ca:	4604      	mov	r4, r0
 80082cc:	4608      	mov	r0, r1
 80082ce:	602b      	str	r3, [r5, #0]
 80082d0:	f7fa fbbe 	bl	8002a50 <_sbrk>
 80082d4:	1c43      	adds	r3, r0, #1
 80082d6:	d102      	bne.n	80082de <_sbrk_r+0x1a>
 80082d8:	682b      	ldr	r3, [r5, #0]
 80082da:	b103      	cbz	r3, 80082de <_sbrk_r+0x1a>
 80082dc:	6023      	str	r3, [r4, #0]
 80082de:	bd38      	pop	{r3, r4, r5, pc}
 80082e0:	200036f4 	.word	0x200036f4

080082e4 <strcat>:
 80082e4:	b510      	push	{r4, lr}
 80082e6:	4602      	mov	r2, r0
 80082e8:	7814      	ldrb	r4, [r2, #0]
 80082ea:	4613      	mov	r3, r2
 80082ec:	3201      	adds	r2, #1
 80082ee:	2c00      	cmp	r4, #0
 80082f0:	d1fa      	bne.n	80082e8 <strcat+0x4>
 80082f2:	3b01      	subs	r3, #1
 80082f4:	f811 2b01 	ldrb.w	r2, [r1], #1
 80082f8:	f803 2f01 	strb.w	r2, [r3, #1]!
 80082fc:	2a00      	cmp	r2, #0
 80082fe:	d1f9      	bne.n	80082f4 <strcat+0x10>
 8008300:	bd10      	pop	{r4, pc}
	...

08008304 <__utoa>:
 8008304:	b5f0      	push	{r4, r5, r6, r7, lr}
 8008306:	4c1f      	ldr	r4, [pc, #124]	; (8008384 <__utoa+0x80>)
 8008308:	b08b      	sub	sp, #44	; 0x2c
 800830a:	4605      	mov	r5, r0
 800830c:	460b      	mov	r3, r1
 800830e:	466e      	mov	r6, sp
 8008310:	f104 0c20 	add.w	ip, r4, #32
 8008314:	6820      	ldr	r0, [r4, #0]
 8008316:	6861      	ldr	r1, [r4, #4]
 8008318:	4637      	mov	r7, r6
 800831a:	c703      	stmia	r7!, {r0, r1}
 800831c:	3408      	adds	r4, #8
 800831e:	4564      	cmp	r4, ip
 8008320:	463e      	mov	r6, r7
 8008322:	d1f7      	bne.n	8008314 <__utoa+0x10>
 8008324:	7921      	ldrb	r1, [r4, #4]
 8008326:	7139      	strb	r1, [r7, #4]
 8008328:	1e91      	subs	r1, r2, #2
 800832a:	6820      	ldr	r0, [r4, #0]
 800832c:	6038      	str	r0, [r7, #0]
 800832e:	2922      	cmp	r1, #34	; 0x22
 8008330:	f04f 0100 	mov.w	r1, #0
 8008334:	d904      	bls.n	8008340 <__utoa+0x3c>
 8008336:	7019      	strb	r1, [r3, #0]
 8008338:	460b      	mov	r3, r1
 800833a:	4618      	mov	r0, r3
 800833c:	b00b      	add	sp, #44	; 0x2c
 800833e:	bdf0      	pop	{r4, r5, r6, r7, pc}
 8008340:	1e58      	subs	r0, r3, #1
 8008342:	4684      	mov	ip, r0
 8008344:	fbb5 f7f2 	udiv	r7, r5, r2
 8008348:	fb02 5617 	mls	r6, r2, r7, r5
 800834c:	3628      	adds	r6, #40	; 0x28
 800834e:	446e      	add	r6, sp
 8008350:	460c      	mov	r4, r1
 8008352:	f816 6c28 	ldrb.w	r6, [r6, #-40]
 8008356:	f80c 6f01 	strb.w	r6, [ip, #1]!
 800835a:	462e      	mov	r6, r5
 800835c:	42b2      	cmp	r2, r6
 800835e:	f101 0101 	add.w	r1, r1, #1
 8008362:	463d      	mov	r5, r7
 8008364:	d9ee      	bls.n	8008344 <__utoa+0x40>
 8008366:	2200      	movs	r2, #0
 8008368:	545a      	strb	r2, [r3, r1]
 800836a:	1919      	adds	r1, r3, r4
 800836c:	1aa5      	subs	r5, r4, r2
 800836e:	42aa      	cmp	r2, r5
 8008370:	dae3      	bge.n	800833a <__utoa+0x36>
 8008372:	f810 5f01 	ldrb.w	r5, [r0, #1]!
 8008376:	780e      	ldrb	r6, [r1, #0]
 8008378:	7006      	strb	r6, [r0, #0]
 800837a:	3201      	adds	r2, #1
 800837c:	f801 5901 	strb.w	r5, [r1], #-1
 8008380:	e7f4      	b.n	800836c <__utoa+0x68>
 8008382:	bf00      	nop
 8008384:	080084a8 	.word	0x080084a8

08008388 <__malloc_lock>:
 8008388:	4801      	ldr	r0, [pc, #4]	; (8008390 <__malloc_lock+0x8>)
 800838a:	f000 b809 	b.w	80083a0 <__retarget_lock_acquire_recursive>
 800838e:	bf00      	nop
 8008390:	200036f8 	.word	0x200036f8

08008394 <__malloc_unlock>:
 8008394:	4801      	ldr	r0, [pc, #4]	; (800839c <__malloc_unlock+0x8>)
 8008396:	f000 b804 	b.w	80083a2 <__retarget_lock_release_recursive>
 800839a:	bf00      	nop
 800839c:	200036f8 	.word	0x200036f8

080083a0 <__retarget_lock_acquire_recursive>:
 80083a0:	4770      	bx	lr

080083a2 <__retarget_lock_release_recursive>:
 80083a2:	4770      	bx	lr

080083a4 <_init>:
 80083a4:	b5f8      	push	{r3, r4, r5, r6, r7, lr}
 80083a6:	bf00      	nop
 80083a8:	bcf8      	pop	{r3, r4, r5, r6, r7}
 80083aa:	bc08      	pop	{r3}
 80083ac:	469e      	mov	lr, r3
 80083ae:	4770      	bx	lr

080083b0 <_fini>:
 80083b0:	b5f8      	push	{r3, r4, r5, r6, r7, lr}
 80083b2:	bf00      	nop
 80083b4:	bcf8      	pop	{r3, r4, r5, r6, r7}
 80083b6:	bc08      	pop	{r3}
 80083b8:	469e      	mov	lr, r3
 80083ba:	4770      	bx	lr
