
Basic_State_Machine_Embedded.elf:     file format elf32-littlearm

Sections:
Idx Name          Size      VMA       LMA       File off  Algn
  0 .isr_vector   00000188  08000000  08000000  00010000  2**0
                  CONTENTS, ALLOC, LOAD, READONLY, DATA
  1 .text         000042f0  08000188  08000188  00010188  2**2
                  CONTENTS, ALLOC, LOAD, READONLY, CODE
  2 .rodata       000000f0  08004478  08004478  00014478  2**0
                  CONTENTS, ALLOC, LOAD, READONLY, DATA
  3 .ARM.extab    00000000  08004568  08004568  000200a4  2**0
                  CONTENTS
  4 .ARM          00000000  08004568  08004568  000200a4  2**0
                  CONTENTS
  5 .preinit_array 00000000  08004568  08004568  000200a4  2**0
                  CONTENTS, ALLOC, LOAD, DATA
  6 .init_array   00000004  08004568  08004568  00014568  2**2
                  CONTENTS, ALLOC, LOAD, DATA
  7 .fini_array   00000004  0800456c  0800456c  0001456c  2**2
                  CONTENTS, ALLOC, LOAD, DATA
  8 .data         000000a4  20000000  08004570  00020000  2**2
                  CONTENTS, ALLOC, LOAD, DATA
  9 .bss          00000da4  200000a4  08004614  000200a4  2**2
                  ALLOC
 10 ._user_heap_stack 00000600  20000e48  08004614  00020e48  2**0
                  ALLOC
 11 .ARM.attributes 00000030  00000000  00000000  000200a4  2**0
                  CONTENTS, READONLY
 12 .comment      00000050  00000000  00000000  000200d4  2**0
                  CONTENTS, READONLY
 13 .debug_frame  00000378  00000000  00000000  00020124  2**2
                  CONTENTS, READONLY, DEBUGGING, OCTETS

Disassembly of section .text:

08000188 <__do_global_dtors_aux>:
 8000188:	b510      	push	{r4, lr}
 800018a:	4c05      	ldr	r4, [pc, #20]	; (80001a0 <__do_global_dtors_aux+0x18>)
 800018c:	7823      	ldrb	r3, [r4, #0]
 800018e:	b933      	cbnz	r3, 800019e <__do_global_dtors_aux+0x16>
 8000190:	4b04      	ldr	r3, [pc, #16]	; (80001a4 <__do_global_dtors_aux+0x1c>)
 8000192:	b113      	cbz	r3, 800019a <__do_global_dtors_aux+0x12>
 8000194:	4804      	ldr	r0, [pc, #16]	; (80001a8 <__do_global_dtors_aux+0x20>)
 8000196:	f3af 8000 	nop.w
 800019a:	2301      	movs	r3, #1
 800019c:	7023      	strb	r3, [r4, #0]
 800019e:	bd10      	pop	{r4, pc}
 80001a0:	200000a4 	.word	0x200000a4
 80001a4:	00000000 	.word	0x00000000
 80001a8:	08004460 	.word	0x08004460

080001ac <frame_dummy>:
 80001ac:	b508      	push	{r3, lr}
 80001ae:	4b03      	ldr	r3, [pc, #12]	; (80001bc <frame_dummy+0x10>)
 80001b0:	b11b      	cbz	r3, 80001ba <frame_dummy+0xe>
 80001b2:	4903      	ldr	r1, [pc, #12]	; (80001c0 <frame_dummy+0x14>)
 80001b4:	4803      	ldr	r0, [pc, #12]	; (80001c4 <frame_dummy+0x18>)
 80001b6:	f3af 8000 	nop.w
 80001ba:	bd08      	pop	{r3, pc}
 80001bc:	00000000 	.word	0x00000000
 80001c0:	200000a8 	.word	0x200000a8
 80001c4:	08004460 	.word	0x08004460

080001c8 <strlen>:
 80001c8:	4603      	mov	r3, r0
 80001ca:	f813 2b01 	ldrb.w	r2, [r3], #1
 80001ce:	2a00      	cmp	r2, #0
 80001d0:	d1fb      	bne.n	80001ca <strlen+0x2>
 80001d2:	1a18      	subs	r0, r3, r0
 80001d4:	3801      	subs	r0, #1
 80001d6:	4770      	bx	lr

080001d8 <Lan_Interrupt_Service>:
 80001d8:	b508      	push	{r3, lr}
 80001da:	f44f 7002 	mov.w	r0, #520	; 0x208
 80001de:	f001 fb4f 	bl	8001880 <WIZCHIP_READ>
 80001e2:	0742      	lsls	r2, r0, #29
 80001e4:	d510      	bpl.n	8000208 <Lan_Interrupt_Service+0x30>
 80001e6:	490e      	ldr	r1, [pc, #56]	; (8000220 <Lan_Interrupt_Service+0x48>)
 80001e8:	22ff      	movs	r2, #255	; 0xff
 80001ea:	2000      	movs	r0, #0
 80001ec:	f001 f80c 	bl	8001208 <recv>
 80001f0:	2100      	movs	r1, #0
 80001f2:	480b      	ldr	r0, [pc, #44]	; (8000220 <Lan_Interrupt_Service+0x48>)
 80001f4:	22ff      	movs	r2, #255	; 0xff
 80001f6:	f003 ffd3 	bl	80041a0 <memset>
 80001fa:	2104      	movs	r1, #4
 80001fc:	e8bd 4008 	ldmia.w	sp!, {r3, lr}
 8000200:	f44f 7002 	mov.w	r0, #520	; 0x208
 8000204:	f001 bb6a 	b.w	80018dc <WIZCHIP_WRITE>
 8000208:	f44f 7002 	mov.w	r0, #520	; 0x208
 800020c:	f001 fb38 	bl	8001880 <WIZCHIP_READ>
 8000210:	0783      	lsls	r3, r0, #30
 8000212:	d503      	bpl.n	800021c <Lan_Interrupt_Service+0x44>
 8000214:	f000 facc 	bl	80007b0 <Ethernet_Connect>
 8000218:	2102      	movs	r1, #2
 800021a:	e7ef      	b.n	80001fc <Lan_Interrupt_Service+0x24>
 800021c:	211f      	movs	r1, #31
 800021e:	e7ed      	b.n	80001fc <Lan_Interrupt_Service+0x24>
 8000220:	200000ce 	.word	0x200000ce

08000224 <WR_Interrupt_Service>:
 8000224:	b538      	push	{r3, r4, r5, lr}
 8000226:	4c1f      	ldr	r4, [pc, #124]	; (80002a4 <WR_Interrupt_Service+0x80>)
 8000228:	4a1f      	ldr	r2, [pc, #124]	; (80002a8 <WR_Interrupt_Service+0x84>)
 800022a:	6823      	ldr	r3, [r4, #0]
 800022c:	8810      	ldrh	r0, [r2, #0]
 800022e:	4d1f      	ldr	r5, [pc, #124]	; (80002ac <WR_Interrupt_Service+0x88>)
 8000230:	3301      	adds	r3, #1
 8000232:	6023      	str	r3, [r4, #0]
 8000234:	b918      	cbnz	r0, 800023e <WR_Interrupt_Service+0x1a>
 8000236:	2b01      	cmp	r3, #1
 8000238:	d01a      	beq.n	8000270 <WR_Interrupt_Service+0x4c>
 800023a:	2b02      	cmp	r3, #2
 800023c:	d026      	beq.n	800028c <WR_Interrupt_Service+0x68>
 800023e:	882b      	ldrh	r3, [r5, #0]
 8000240:	2b01      	cmp	r3, #1
 8000242:	d106      	bne.n	8000252 <WR_Interrupt_Service+0x2e>
 8000244:	f000 fb4e 	bl	80008e4 <Timer2_GetTimer>
 8000248:	4919      	ldr	r1, [pc, #100]	; (80002b0 <WR_Interrupt_Service+0x8c>)
 800024a:	6008      	str	r0, [r1, #0]
 800024c:	4819      	ldr	r0, [pc, #100]	; (80002b4 <WR_Interrupt_Service+0x90>)
 800024e:	f000 fdc9 	bl	8000de4 <RingWriteElement>
 8000252:	4d19      	ldr	r5, [pc, #100]	; (80002b8 <WR_Interrupt_Service+0x94>)
 8000254:	682b      	ldr	r3, [r5, #0]
 8000256:	2b14      	cmp	r3, #20
 8000258:	d902      	bls.n	8000260 <WR_Interrupt_Service+0x3c>
 800025a:	6823      	ldr	r3, [r4, #0]
 800025c:	2b01      	cmp	r3, #1
 800025e:	d920      	bls.n	80002a2 <WR_Interrupt_Service+0x7e>
 8000260:	f000 fb3a 	bl	80008d8 <Timer6_Stop>
 8000264:	2300      	movs	r3, #0
 8000266:	602b      	str	r3, [r5, #0]
 8000268:	e8bd 4038 	ldmia.w	sp!, {r3, r4, r5, lr}
 800026c:	f000 bb2e 	b.w	80008cc <Timer6_Start>
 8000270:	4912      	ldr	r1, [pc, #72]	; (80002bc <WR_Interrupt_Service+0x98>)
 8000272:	2206      	movs	r2, #6
 8000274:	f000 ff3e 	bl	80010f4 <send>
 8000278:	f000 fb22 	bl	80008c0 <Timer2_Start>
 800027c:	f000 fb32 	bl	80008e4 <Timer2_GetTimer>
 8000280:	490b      	ldr	r1, [pc, #44]	; (80002b0 <WR_Interrupt_Service+0x8c>)
 8000282:	6008      	str	r0, [r1, #0]
 8000284:	480b      	ldr	r0, [pc, #44]	; (80002b4 <WR_Interrupt_Service+0x90>)
 8000286:	f000 fdad 	bl	8000de4 <RingWriteElement>
 800028a:	e7d8      	b.n	800023e <WR_Interrupt_Service+0x1a>
 800028c:	490c      	ldr	r1, [pc, #48]	; (80002c0 <WR_Interrupt_Service+0x9c>)
 800028e:	220b      	movs	r2, #11
 8000290:	f000 ff30 	bl	80010f4 <send>
 8000294:	4a0b      	ldr	r2, [pc, #44]	; (80002c4 <WR_Interrupt_Service+0xa0>)
 8000296:	2301      	movs	r3, #1
 8000298:	802b      	strh	r3, [r5, #0]
 800029a:	8013      	strh	r3, [r2, #0]
 800029c:	f000 fb16 	bl	80008cc <Timer6_Start>
 80002a0:	e7cd      	b.n	800023e <WR_Interrupt_Service+0x1a>
 80002a2:	bd38      	pop	{r3, r4, r5, pc}
 80002a4:	200001d8 	.word	0x200001d8
 80002a8:	200000cc 	.word	0x200000cc
 80002ac:	200000c0 	.word	0x200000c0
 80002b0:	200001dc 	.word	0x200001dc
 80002b4:	20000ae8 	.word	0x20000ae8
 80002b8:	20000244 	.word	0x20000244
 80002bc:	080044ff 	.word	0x080044ff
 80002c0:	0800447e 	.word	0x0800447e
 80002c4:	200001ce 	.word	0x200001ce

080002c8 <FCT_Interrupt_Service>:
 80002c8:	b538      	push	{r3, r4, r5, lr}
 80002ca:	4d32      	ldr	r5, [pc, #200]	; (8000394 <FCT_Interrupt_Service+0xcc>)
 80002cc:	4832      	ldr	r0, [pc, #200]	; (8000398 <FCT_Interrupt_Service+0xd0>)
 80002ce:	f44f 5100 	mov.w	r1, #8192	; 0x2000
 80002d2:	f002 f87a 	bl	80023ca <HAL_GPIO_TogglePin>
 80002d6:	682b      	ldr	r3, [r5, #0]
 80002d8:	3301      	adds	r3, #1
 80002da:	602b      	str	r3, [r5, #0]
 80002dc:	4b2f      	ldr	r3, [pc, #188]	; (800039c <FCT_Interrupt_Service+0xd4>)
 80002de:	881b      	ldrh	r3, [r3, #0]
 80002e0:	2b01      	cmp	r3, #1
 80002e2:	d115      	bne.n	8000310 <FCT_Interrupt_Service+0x48>
 80002e4:	f000 fafe 	bl	80008e4 <Timer2_GetTimer>
 80002e8:	492d      	ldr	r1, [pc, #180]	; (80003a0 <FCT_Interrupt_Service+0xd8>)
 80002ea:	6008      	str	r0, [r1, #0]
 80002ec:	482d      	ldr	r0, [pc, #180]	; (80003a4 <FCT_Interrupt_Service+0xdc>)
 80002ee:	f000 fd79 	bl	8000de4 <RingWriteElement>
 80002f2:	4c2d      	ldr	r4, [pc, #180]	; (80003a8 <FCT_Interrupt_Service+0xe0>)
 80002f4:	6823      	ldr	r3, [r4, #0]
 80002f6:	2b14      	cmp	r3, #20
 80002f8:	d902      	bls.n	8000300 <FCT_Interrupt_Service+0x38>
 80002fa:	682b      	ldr	r3, [r5, #0]
 80002fc:	2b01      	cmp	r3, #1
 80002fe:	d947      	bls.n	8000390 <FCT_Interrupt_Service+0xc8>
 8000300:	f000 faea 	bl	80008d8 <Timer6_Stop>
 8000304:	2300      	movs	r3, #0
 8000306:	6023      	str	r3, [r4, #0]
 8000308:	e8bd 4038 	ldmia.w	sp!, {r3, r4, r5, lr}
 800030c:	f000 bade 	b.w	80008cc <Timer6_Start>
 8000310:	4b26      	ldr	r3, [pc, #152]	; (80003ac <FCT_Interrupt_Service+0xe4>)
 8000312:	881c      	ldrh	r4, [r3, #0]
 8000314:	2c01      	cmp	r4, #1
 8000316:	d1ec      	bne.n	80002f2 <FCT_Interrupt_Service+0x2a>
 8000318:	f000 fae4 	bl	80008e4 <Timer2_GetTimer>
 800031c:	4920      	ldr	r1, [pc, #128]	; (80003a0 <FCT_Interrupt_Service+0xd8>)
 800031e:	6008      	str	r0, [r1, #0]
 8000320:	4820      	ldr	r0, [pc, #128]	; (80003a4 <FCT_Interrupt_Service+0xdc>)
 8000322:	f000 fd5f 	bl	8000de4 <RingWriteElement>
 8000326:	4822      	ldr	r0, [pc, #136]	; (80003b0 <FCT_Interrupt_Service+0xe8>)
 8000328:	2200      	movs	r2, #0
 800032a:	f44f 7100 	mov.w	r1, #512	; 0x200
 800032e:	f002 f847 	bl	80023c0 <HAL_GPIO_WritePin>
 8000332:	2200      	movs	r2, #0
 8000334:	f44f 7100 	mov.w	r1, #512	; 0x200
 8000338:	f04f 4090 	mov.w	r0, #1207959552	; 0x48000000
 800033c:	f002 f840 	bl	80023c0 <HAL_GPIO_WritePin>
 8000340:	481b      	ldr	r0, [pc, #108]	; (80003b0 <FCT_Interrupt_Service+0xe8>)
 8000342:	2200      	movs	r2, #0
 8000344:	f44f 7180 	mov.w	r1, #256	; 0x100
 8000348:	f002 f83a 	bl	80023c0 <HAL_GPIO_WritePin>
 800034c:	2200      	movs	r2, #0
 800034e:	f44f 7180 	mov.w	r1, #256	; 0x100
 8000352:	f04f 4090 	mov.w	r0, #1207959552	; 0x48000000
 8000356:	f002 f833 	bl	80023c0 <HAL_GPIO_WritePin>
 800035a:	4622      	mov	r2, r4
 800035c:	4814      	ldr	r0, [pc, #80]	; (80003b0 <FCT_Interrupt_Service+0xe8>)
 800035e:	f44f 7180 	mov.w	r1, #256	; 0x100
 8000362:	f002 f82d 	bl	80023c0 <HAL_GPIO_WritePin>
 8000366:	4622      	mov	r2, r4
 8000368:	f44f 7180 	mov.w	r1, #256	; 0x100
 800036c:	f04f 4090 	mov.w	r0, #1207959552	; 0x48000000
 8000370:	f002 f826 	bl	80023c0 <HAL_GPIO_WritePin>
 8000374:	4622      	mov	r2, r4
 8000376:	480e      	ldr	r0, [pc, #56]	; (80003b0 <FCT_Interrupt_Service+0xe8>)
 8000378:	f44f 7100 	mov.w	r1, #512	; 0x200
 800037c:	f002 f820 	bl	80023c0 <HAL_GPIO_WritePin>
 8000380:	4622      	mov	r2, r4
 8000382:	f44f 7100 	mov.w	r1, #512	; 0x200
 8000386:	f04f 4090 	mov.w	r0, #1207959552	; 0x48000000
 800038a:	f002 f819 	bl	80023c0 <HAL_GPIO_WritePin>
 800038e:	e7b0      	b.n	80002f2 <FCT_Interrupt_Service+0x2a>
 8000390:	bd38      	pop	{r3, r4, r5, pc}
 8000392:	bf00      	nop
 8000394:	200000c4 	.word	0x200000c4
 8000398:	48000800 	.word	0x48000800
 800039c:	200000cc 	.word	0x200000cc
 80003a0:	200000c8 	.word	0x200000c8
 80003a4:	20000468 	.word	0x20000468
 80003a8:	20000244 	.word	0x20000244
 80003ac:	200001ce 	.word	0x200001ce
 80003b0:	48000400 	.word	0x48000400

080003b4 <WL_Interrupt_Service>:
 80003b4:	b538      	push	{r3, r4, r5, lr}
 80003b6:	4c1f      	ldr	r4, [pc, #124]	; (8000434 <WL_Interrupt_Service+0x80>)
 80003b8:	4a1f      	ldr	r2, [pc, #124]	; (8000438 <WL_Interrupt_Service+0x84>)
 80003ba:	6823      	ldr	r3, [r4, #0]
 80003bc:	8810      	ldrh	r0, [r2, #0]
 80003be:	4d1f      	ldr	r5, [pc, #124]	; (800043c <WL_Interrupt_Service+0x88>)
 80003c0:	3301      	adds	r3, #1
 80003c2:	6023      	str	r3, [r4, #0]
 80003c4:	b918      	cbnz	r0, 80003ce <WL_Interrupt_Service+0x1a>
 80003c6:	2b01      	cmp	r3, #1
 80003c8:	d01a      	beq.n	8000400 <WL_Interrupt_Service+0x4c>
 80003ca:	2b02      	cmp	r3, #2
 80003cc:	d026      	beq.n	800041c <WL_Interrupt_Service+0x68>
 80003ce:	882b      	ldrh	r3, [r5, #0]
 80003d0:	2b01      	cmp	r3, #1
 80003d2:	d106      	bne.n	80003e2 <WL_Interrupt_Service+0x2e>
 80003d4:	f000 fa86 	bl	80008e4 <Timer2_GetTimer>
 80003d8:	4919      	ldr	r1, [pc, #100]	; (8000440 <WL_Interrupt_Service+0x8c>)
 80003da:	6008      	str	r0, [r1, #0]
 80003dc:	4819      	ldr	r0, [pc, #100]	; (8000444 <WL_Interrupt_Service+0x90>)
 80003de:	f000 fd01 	bl	8000de4 <RingWriteElement>
 80003e2:	4d19      	ldr	r5, [pc, #100]	; (8000448 <WL_Interrupt_Service+0x94>)
 80003e4:	682b      	ldr	r3, [r5, #0]
 80003e6:	2b14      	cmp	r3, #20
 80003e8:	d902      	bls.n	80003f0 <WL_Interrupt_Service+0x3c>
 80003ea:	6823      	ldr	r3, [r4, #0]
 80003ec:	2b01      	cmp	r3, #1
 80003ee:	d920      	bls.n	8000432 <WL_Interrupt_Service+0x7e>
 80003f0:	f000 fa72 	bl	80008d8 <Timer6_Stop>
 80003f4:	2300      	movs	r3, #0
 80003f6:	602b      	str	r3, [r5, #0]
 80003f8:	e8bd 4038 	ldmia.w	sp!, {r3, r4, r5, lr}
 80003fc:	f000 ba66 	b.w	80008cc <Timer6_Start>
 8000400:	4912      	ldr	r1, [pc, #72]	; (800044c <WL_Interrupt_Service+0x98>)
 8000402:	2206      	movs	r2, #6
 8000404:	f000 fe76 	bl	80010f4 <send>
 8000408:	f000 fa5a 	bl	80008c0 <Timer2_Start>
 800040c:	f000 fa6a 	bl	80008e4 <Timer2_GetTimer>
 8000410:	490b      	ldr	r1, [pc, #44]	; (8000440 <WL_Interrupt_Service+0x8c>)
 8000412:	6008      	str	r0, [r1, #0]
 8000414:	480b      	ldr	r0, [pc, #44]	; (8000444 <WL_Interrupt_Service+0x90>)
 8000416:	f000 fce5 	bl	8000de4 <RingWriteElement>
 800041a:	e7d8      	b.n	80003ce <WL_Interrupt_Service+0x1a>
 800041c:	490c      	ldr	r1, [pc, #48]	; (8000450 <WL_Interrupt_Service+0x9c>)
 800041e:	220b      	movs	r2, #11
 8000420:	f000 fe68 	bl	80010f4 <send>
 8000424:	4a0b      	ldr	r2, [pc, #44]	; (8000454 <WL_Interrupt_Service+0xa0>)
 8000426:	2301      	movs	r3, #1
 8000428:	802b      	strh	r3, [r5, #0]
 800042a:	8013      	strh	r3, [r2, #0]
 800042c:	f000 fa4e 	bl	80008cc <Timer6_Start>
 8000430:	e7cd      	b.n	80003ce <WL_Interrupt_Service+0x1a>
 8000432:	bd38      	pop	{r3, r4, r5, pc}
 8000434:	200001d0 	.word	0x200001d0
 8000438:	200001ce 	.word	0x200001ce
 800043c:	200000c0 	.word	0x200000c0
 8000440:	200001d4 	.word	0x200001d4
 8000444:	200007a8 	.word	0x200007a8
 8000448:	20000244 	.word	0x20000244
 800044c:	080044ff 	.word	0x080044ff
 8000450:	0800447e 	.word	0x0800447e
 8000454:	200000cc 	.word	0x200000cc

08000458 <Send_WR_Samples>:
 8000458:	e92d 43f8 	stmdb	sp!, {r3, r4, r5, r6, r7, r8, r9, lr}
 800045c:	f8df 807c 	ldr.w	r8, [pc, #124]	; 80004dc <Send_WR_Samples+0x84>
 8000460:	4f1a      	ldr	r7, [pc, #104]	; (80004cc <Send_WR_Samples+0x74>)
 8000462:	f8d8 3018 	ldr.w	r3, [r8, #24]
 8000466:	f8df 906c 	ldr.w	r9, [pc, #108]	; 80004d4 <Send_WR_Samples+0x7c>
 800046a:	4e19      	ldr	r6, [pc, #100]	; (80004d0 <Send_WR_Samples+0x78>)
 800046c:	f1c3 03c6 	rsb	r3, r3, #198	; 0xc6
 8000470:	703b      	strb	r3, [r7, #0]
 8000472:	2500      	movs	r5, #0
 8000474:	4917      	ldr	r1, [pc, #92]	; (80004d4 <Send_WR_Samples+0x7c>)
 8000476:	4640      	mov	r0, r8
 8000478:	f000 fcd4 	bl	8000e24 <RingReadElement>
 800047c:	220a      	movs	r2, #10
 800047e:	4631      	mov	r1, r6
 8000480:	f8d9 0000 	ldr.w	r0, [r9]
 8000484:	f003 fe6c 	bl	8004160 <itoa>
 8000488:	4630      	mov	r0, r6
 800048a:	f7ff fe9d 	bl	80001c8 <strlen>
 800048e:	3009      	adds	r0, #9
 8000490:	f003 fe68 	bl	8004164 <malloc>
 8000494:	4910      	ldr	r1, [pc, #64]	; (80004d8 <Send_WR_Samples+0x80>)
 8000496:	4604      	mov	r4, r0
 8000498:	f003 ff89 	bl	80043ae <strcpy>
 800049c:	4631      	mov	r1, r6
 800049e:	4620      	mov	r0, r4
 80004a0:	f003 ff76 	bl	8004390 <strcat>
 80004a4:	4620      	mov	r0, r4
 80004a6:	f7ff fe8f 	bl	80001c8 <strlen>
 80004aa:	4621      	mov	r1, r4
 80004ac:	b282      	uxth	r2, r0
 80004ae:	2000      	movs	r0, #0
 80004b0:	f000 fe20 	bl	80010f4 <send>
 80004b4:	4620      	mov	r0, r4
 80004b6:	f003 fe5d 	bl	8004174 <free>
 80004ba:	2064      	movs	r0, #100	; 0x64
 80004bc:	f001 fe34 	bl	8002128 <HAL_Delay>
 80004c0:	783b      	ldrb	r3, [r7, #0]
 80004c2:	3501      	adds	r5, #1
 80004c4:	42ab      	cmp	r3, r5
 80004c6:	dad5      	bge.n	8000474 <Send_WR_Samples+0x1c>
 80004c8:	e8bd 83f8 	ldmia.w	sp!, {r3, r4, r5, r6, r7, r8, r9, pc}
 80004cc:	2000023c 	.word	0x2000023c
 80004d0:	20000210 	.word	0x20000210
 80004d4:	20000238 	.word	0x20000238
 80004d8:	0800448a 	.word	0x0800448a
 80004dc:	20000ae8 	.word	0x20000ae8

080004e0 <Send_WL_Samples>:
 80004e0:	e92d 43f8 	stmdb	sp!, {r3, r4, r5, r6, r7, r8, r9, lr}
 80004e4:	f8df 807c 	ldr.w	r8, [pc, #124]	; 8000564 <Send_WL_Samples+0x84>
 80004e8:	4f1a      	ldr	r7, [pc, #104]	; (8000554 <Send_WL_Samples+0x74>)
 80004ea:	f8d8 3018 	ldr.w	r3, [r8, #24]
 80004ee:	f8df 906c 	ldr.w	r9, [pc, #108]	; 800055c <Send_WL_Samples+0x7c>
 80004f2:	4e19      	ldr	r6, [pc, #100]	; (8000558 <Send_WL_Samples+0x78>)
 80004f4:	f1c3 03c6 	rsb	r3, r3, #198	; 0xc6
 80004f8:	703b      	strb	r3, [r7, #0]
 80004fa:	2500      	movs	r5, #0
 80004fc:	4917      	ldr	r1, [pc, #92]	; (800055c <Send_WL_Samples+0x7c>)
 80004fe:	4640      	mov	r0, r8
 8000500:	f000 fc90 	bl	8000e24 <RingReadElement>
 8000504:	220a      	movs	r2, #10
 8000506:	4631      	mov	r1, r6
 8000508:	f8d9 0000 	ldr.w	r0, [r9]
 800050c:	f003 fe28 	bl	8004160 <itoa>
 8000510:	4630      	mov	r0, r6
 8000512:	f7ff fe59 	bl	80001c8 <strlen>
 8000516:	3009      	adds	r0, #9
 8000518:	f003 fe24 	bl	8004164 <malloc>
 800051c:	4910      	ldr	r1, [pc, #64]	; (8000560 <Send_WL_Samples+0x80>)
 800051e:	4604      	mov	r4, r0
 8000520:	f003 ff45 	bl	80043ae <strcpy>
 8000524:	4631      	mov	r1, r6
 8000526:	4620      	mov	r0, r4
 8000528:	f003 ff32 	bl	8004390 <strcat>
 800052c:	4620      	mov	r0, r4
 800052e:	f7ff fe4b 	bl	80001c8 <strlen>
 8000532:	4621      	mov	r1, r4
 8000534:	b282      	uxth	r2, r0
 8000536:	2000      	movs	r0, #0
 8000538:	f000 fddc 	bl	80010f4 <send>
 800053c:	4620      	mov	r0, r4
 800053e:	f003 fe19 	bl	8004174 <free>
 8000542:	2064      	movs	r0, #100	; 0x64
 8000544:	f001 fdf0 	bl	8002128 <HAL_Delay>
 8000548:	783b      	ldrb	r3, [r7, #0]
 800054a:	3501      	adds	r5, #1
 800054c:	42ab      	cmp	r3, r5
 800054e:	dad5      	bge.n	80004fc <Send_WL_Samples+0x1c>
 8000550:	e8bd 83f8 	ldmia.w	sp!, {r3, r4, r5, r6, r7, r8, r9, pc}
 8000554:	20000204 	.word	0x20000204
 8000558:	200001f4 	.word	0x200001f4
 800055c:	20000200 	.word	0x20000200
 8000560:	0800448a 	.word	0x0800448a
 8000564:	200007a8 	.word	0x200007a8

08000568 <Send_Data>:
 8000568:	b537      	push	{r0, r1, r2, r4, r5, lr}
 800056a:	4955      	ldr	r1, [pc, #340]	; (80006c0 <Send_Data+0x158>)
 800056c:	4c55      	ldr	r4, [pc, #340]	; (80006c4 <Send_Data+0x15c>)
 800056e:	4d56      	ldr	r5, [pc, #344]	; (80006c8 <Send_Data+0x160>)
 8000570:	220a      	movs	r2, #10
 8000572:	2000      	movs	r0, #0
 8000574:	f000 fdbe 	bl	80010f4 <send>
 8000578:	f44f 70fa 	mov.w	r0, #500	; 0x1f4
 800057c:	f001 fdd4 	bl	8002128 <HAL_Delay>
 8000580:	4952      	ldr	r1, [pc, #328]	; (80006cc <Send_Data+0x164>)
 8000582:	220a      	movs	r2, #10
 8000584:	2000      	movs	r0, #0
 8000586:	f000 fdb5 	bl	80010f4 <send>
 800058a:	f44f 70fa 	mov.w	r0, #500	; 0x1f4
 800058e:	f001 fdcb 	bl	8002128 <HAL_Delay>
 8000592:	494f      	ldr	r1, [pc, #316]	; (80006d0 <Send_Data+0x168>)
 8000594:	220d      	movs	r2, #13
 8000596:	2000      	movs	r0, #0
 8000598:	f000 fdac 	bl	80010f4 <send>
 800059c:	f44f 70fa 	mov.w	r0, #500	; 0x1f4
 80005a0:	f001 fdc2 	bl	8002128 <HAL_Delay>
 80005a4:	f7ff ff58 	bl	8000458 <Send_WR_Samples>
 80005a8:	f44f 70fa 	mov.w	r0, #500	; 0x1f4
 80005ac:	f001 fdbc 	bl	8002128 <HAL_Delay>
 80005b0:	4621      	mov	r1, r4
 80005b2:	220c      	movs	r2, #12
 80005b4:	2000      	movs	r0, #0
 80005b6:	f000 fd9d 	bl	80010f4 <send>
 80005ba:	f44f 70fa 	mov.w	r0, #500	; 0x1f4
 80005be:	f001 fdb3 	bl	8002128 <HAL_Delay>
 80005c2:	4944      	ldr	r1, [pc, #272]	; (80006d4 <Send_Data+0x16c>)
 80005c4:	220e      	movs	r2, #14
 80005c6:	2000      	movs	r0, #0
 80005c8:	f000 fd94 	bl	80010f4 <send>
 80005cc:	f44f 70fa 	mov.w	r0, #500	; 0x1f4
 80005d0:	f001 fdaa 	bl	8002128 <HAL_Delay>
 80005d4:	f44f 70fa 	mov.w	r0, #500	; 0x1f4
 80005d8:	f001 fda6 	bl	8002128 <HAL_Delay>
 80005dc:	4621      	mov	r1, r4
 80005de:	220c      	movs	r2, #12
 80005e0:	2000      	movs	r0, #0
 80005e2:	f000 fd87 	bl	80010f4 <send>
 80005e6:	f44f 70fa 	mov.w	r0, #500	; 0x1f4
 80005ea:	f001 fd9d 	bl	8002128 <HAL_Delay>
 80005ee:	493a      	ldr	r1, [pc, #232]	; (80006d8 <Send_Data+0x170>)
 80005f0:	220d      	movs	r2, #13
 80005f2:	2000      	movs	r0, #0
 80005f4:	f000 fd7e 	bl	80010f4 <send>
 80005f8:	f44f 70fa 	mov.w	r0, #500	; 0x1f4
 80005fc:	f001 fd94 	bl	8002128 <HAL_Delay>
 8000600:	f7ff ff6e 	bl	80004e0 <Send_WL_Samples>
 8000604:	f44f 70fa 	mov.w	r0, #500	; 0x1f4
 8000608:	f001 fd8e 	bl	8002128 <HAL_Delay>
 800060c:	4621      	mov	r1, r4
 800060e:	220c      	movs	r2, #12
 8000610:	2000      	movs	r0, #0
 8000612:	f000 fd6f 	bl	80010f4 <send>
 8000616:	f44f 70fa 	mov.w	r0, #500	; 0x1f4
 800061a:	f001 fd85 	bl	8002128 <HAL_Delay>
 800061e:	4c2f      	ldr	r4, [pc, #188]	; (80006dc <Send_Data+0x174>)
 8000620:	4b2f      	ldr	r3, [pc, #188]	; (80006e0 <Send_Data+0x178>)
 8000622:	220a      	movs	r2, #10
 8000624:	6818      	ldr	r0, [r3, #0]
 8000626:	4621      	mov	r1, r4
 8000628:	f003 fd9a 	bl	8004160 <itoa>
 800062c:	4629      	mov	r1, r5
 800062e:	4620      	mov	r0, r4
 8000630:	f003 feae 	bl	8004390 <strcat>
 8000634:	9001      	str	r0, [sp, #4]
 8000636:	4620      	mov	r0, r4
 8000638:	f7ff fdc6 	bl	80001c8 <strlen>
 800063c:	9901      	ldr	r1, [sp, #4]
 800063e:	4c29      	ldr	r4, [pc, #164]	; (80006e4 <Send_Data+0x17c>)
 8000640:	b282      	uxth	r2, r0
 8000642:	2000      	movs	r0, #0
 8000644:	f000 fd56 	bl	80010f4 <send>
 8000648:	f44f 70fa 	mov.w	r0, #500	; 0x1f4
 800064c:	f001 fd6c 	bl	8002128 <HAL_Delay>
 8000650:	4b25      	ldr	r3, [pc, #148]	; (80006e8 <Send_Data+0x180>)
 8000652:	220a      	movs	r2, #10
 8000654:	6818      	ldr	r0, [r3, #0]
 8000656:	4621      	mov	r1, r4
 8000658:	f003 fd82 	bl	8004160 <itoa>
 800065c:	4629      	mov	r1, r5
 800065e:	4620      	mov	r0, r4
 8000660:	f003 fe96 	bl	8004390 <strcat>
 8000664:	9001      	str	r0, [sp, #4]
 8000666:	4620      	mov	r0, r4
 8000668:	f7ff fdae 	bl	80001c8 <strlen>
 800066c:	9901      	ldr	r1, [sp, #4]
 800066e:	4c1f      	ldr	r4, [pc, #124]	; (80006ec <Send_Data+0x184>)
 8000670:	b282      	uxth	r2, r0
 8000672:	2000      	movs	r0, #0
 8000674:	f000 fd3e 	bl	80010f4 <send>
 8000678:	f44f 70fa 	mov.w	r0, #500	; 0x1f4
 800067c:	f001 fd54 	bl	8002128 <HAL_Delay>
 8000680:	4b1b      	ldr	r3, [pc, #108]	; (80006f0 <Send_Data+0x188>)
 8000682:	220a      	movs	r2, #10
 8000684:	6818      	ldr	r0, [r3, #0]
 8000686:	4621      	mov	r1, r4
 8000688:	f003 fd6a 	bl	8004160 <itoa>
 800068c:	4629      	mov	r1, r5
 800068e:	4620      	mov	r0, r4
 8000690:	f003 fe7e 	bl	8004390 <strcat>
 8000694:	9001      	str	r0, [sp, #4]
 8000696:	4620      	mov	r0, r4
 8000698:	f7ff fd96 	bl	80001c8 <strlen>
 800069c:	9901      	ldr	r1, [sp, #4]
 800069e:	b282      	uxth	r2, r0
 80006a0:	2000      	movs	r0, #0
 80006a2:	f000 fd27 	bl	80010f4 <send>
 80006a6:	f44f 70fa 	mov.w	r0, #500	; 0x1f4
 80006aa:	f001 fd3d 	bl	8002128 <HAL_Delay>
 80006ae:	4911      	ldr	r1, [pc, #68]	; (80006f4 <Send_Data+0x18c>)
 80006b0:	2209      	movs	r2, #9
 80006b2:	2000      	movs	r0, #0
 80006b4:	b003      	add	sp, #12
 80006b6:	e8bd 4030 	ldmia.w	sp!, {r4, r5, lr}
 80006ba:	f000 bd1b 	b.w	80010f4 <send>
 80006be:	bf00      	nop
 80006c0:	08004494 	.word	0x08004494
 80006c4:	080044b8 	.word	0x080044b8
 80006c8:	080044e2 	.word	0x080044e2
 80006cc:	0800449f 	.word	0x0800449f
 80006d0:	080044aa 	.word	0x080044aa
 80006d4:	080044c5 	.word	0x080044c5
 80006d8:	080044d4 	.word	0x080044d4
 80006dc:	20000205 	.word	0x20000205
 80006e0:	200001d8 	.word	0x200001d8
 80006e4:	200001e0 	.word	0x200001e0
 80006e8:	200000c4 	.word	0x200000c4
 80006ec:	200001ea 	.word	0x200001ea
 80006f0:	200001d0 	.word	0x200001d0
 80006f4:	080044e4 	.word	0x080044e4

080006f8 <cs_sel>:
 80006f8:	4802      	ldr	r0, [pc, #8]	; (8000704 <cs_sel+0xc>)
 80006fa:	2200      	movs	r2, #0
 80006fc:	2101      	movs	r1, #1
 80006fe:	f001 be5f 	b.w	80023c0 <HAL_GPIO_WritePin>
 8000702:	bf00      	nop
 8000704:	48000400 	.word	0x48000400

08000708 <cs_desel>:
 8000708:	2201      	movs	r2, #1
 800070a:	4802      	ldr	r0, [pc, #8]	; (8000714 <cs_desel+0xc>)
 800070c:	4611      	mov	r1, r2
 800070e:	f001 be57 	b.w	80023c0 <HAL_GPIO_WritePin>
 8000712:	bf00      	nop
 8000714:	48000400 	.word	0x48000400

08000718 <Init_Ethernet>:
 8000718:	b500      	push	{lr}
 800071a:	b089      	sub	sp, #36	; 0x24
 800071c:	f04f 3302 	mov.w	r3, #33686018	; 0x2020202
 8000720:	491b      	ldr	r1, [pc, #108]	; (8000790 <Init_Ethernet+0x78>)
 8000722:	481c      	ldr	r0, [pc, #112]	; (8000794 <Init_Ethernet+0x7c>)
 8000724:	9301      	str	r3, [sp, #4]
 8000726:	f001 fa2f 	bl	8001b88 <reg_wizchip_cs_cbfunc>
 800072a:	491b      	ldr	r1, [pc, #108]	; (8000798 <Init_Ethernet+0x80>)
 800072c:	481b      	ldr	r0, [pc, #108]	; (800079c <Init_Ethernet+0x84>)
 800072e:	f001 fa3d 	bl	8001bac <reg_wizchip_spi_cbfunc>
 8000732:	a901      	add	r1, sp, #4
 8000734:	4608      	mov	r0, r1
 8000736:	f001 fa8c 	bl	8001c52 <wizchip_init>
 800073a:	2300      	movs	r3, #0
 800073c:	f8cd 301a 	str.w	r3, [sp, #26]
 8000740:	f88d 301e 	strb.w	r3, [sp, #30]
 8000744:	4b16      	ldr	r3, [pc, #88]	; (80007a0 <Init_Ethernet+0x88>)
 8000746:	6818      	ldr	r0, [r3, #0]
 8000748:	889b      	ldrh	r3, [r3, #4]
 800074a:	f8ad 300c 	strh.w	r3, [sp, #12]
 800074e:	4b15      	ldr	r3, [pc, #84]	; (80007a4 <Init_Ethernet+0x8c>)
 8000750:	9002      	str	r0, [sp, #8]
 8000752:	681b      	ldr	r3, [r3, #0]
 8000754:	f8cd 300e 	str.w	r3, [sp, #14]
 8000758:	4b13      	ldr	r3, [pc, #76]	; (80007a8 <Init_Ethernet+0x90>)
 800075a:	681b      	ldr	r3, [r3, #0]
 800075c:	f8cd 3012 	str.w	r3, [sp, #18]
 8000760:	4b12      	ldr	r3, [pc, #72]	; (80007ac <Init_Ethernet+0x94>)
 8000762:	a802      	add	r0, sp, #8
 8000764:	681b      	ldr	r3, [r3, #0]
 8000766:	f8cd 3016 	str.w	r3, [sp, #22]
 800076a:	f001 fc0f 	bl	8001f8c <wizchip_setnetinfo>
 800076e:	a802      	add	r0, sp, #8
 8000770:	f001 fc3a 	bl	8001fe8 <wizchip_getnetinfo>
 8000774:	2106      	movs	r1, #6
 8000776:	f642 4008 	movw	r0, #11272	; 0x2c08
 800077a:	f001 f8af 	bl	80018dc <WIZCHIP_WRITE>
 800077e:	2101      	movs	r1, #1
 8000780:	f44f 50c0 	mov.w	r0, #6144	; 0x1800
 8000784:	f001 f8aa 	bl	80018dc <WIZCHIP_WRITE>
 8000788:	b009      	add	sp, #36	; 0x24
 800078a:	f85d fb04 	ldr.w	pc, [sp], #4
 800078e:	bf00      	nop
 8000790:	08000709 	.word	0x08000709
 8000794:	080006f9 	.word	0x080006f9
 8000798:	0800085d 	.word	0x0800085d
 800079c:	0800083d 	.word	0x0800083d
 80007a0:	08004478 	.word	0x08004478
 80007a4:	080044ee 	.word	0x080044ee
 80007a8:	080044f3 	.word	0x080044f3
 80007ac:	080044f7 	.word	0x080044f7

080007b0 <Ethernet_Connect>:
 80007b0:	b570      	push	{r4, r5, r6, lr}
 80007b2:	f7ff ffb1 	bl	8000718 <Init_Ethernet>
 80007b6:	4c11      	ldr	r4, [pc, #68]	; (80007fc <Ethernet_Connect+0x4c>)
 80007b8:	4d11      	ldr	r5, [pc, #68]	; (8000800 <Ethernet_Connect+0x50>)
 80007ba:	4e12      	ldr	r6, [pc, #72]	; (8000804 <Ethernet_Connect+0x54>)
 80007bc:	7823      	ldrb	r3, [r4, #0]
 80007be:	2b01      	cmp	r3, #1
 80007c0:	d109      	bne.n	80007d6 <Ethernet_Connect+0x26>
 80007c2:	2300      	movs	r3, #0
 80007c4:	f44f 70fa 	mov.w	r0, #500	; 0x1f4
 80007c8:	7023      	strb	r3, [r4, #0]
 80007ca:	f001 fcad 	bl	8002128 <HAL_Delay>
 80007ce:	f64a 23aa 	movw	r3, #43690	; 0xaaaa
 80007d2:	602b      	str	r3, [r5, #0]
 80007d4:	bd70      	pop	{r4, r5, r6, pc}
 80007d6:	2320      	movs	r3, #32
 80007d8:	f242 328b 	movw	r2, #9099	; 0x238b
 80007dc:	2101      	movs	r1, #1
 80007de:	2000      	movs	r0, #0
 80007e0:	f000 fb7c 	bl	8000edc <socket>
 80007e4:	f64a 23aa 	movw	r3, #43690	; 0xaaaa
 80007e8:	602b      	str	r3, [r5, #0]
 80007ea:	f242 328b 	movw	r2, #9099	; 0x238b
 80007ee:	4631      	mov	r1, r6
 80007f0:	2000      	movs	r0, #0
 80007f2:	f000 fc05 	bl	8001000 <connect>
 80007f6:	7020      	strb	r0, [r4, #0]
 80007f8:	e7e0      	b.n	80007bc <Ethernet_Connect+0xc>
 80007fa:	bf00      	nop
 80007fc:	2000023d 	.word	0x2000023d
 8000800:	40003000 	.word	0x40003000
 8000804:	20000000 	.word	0x20000000

08000808 <Refresh_Watchdog>:
 8000808:	4b02      	ldr	r3, [pc, #8]	; (8000814 <Refresh_Watchdog+0xc>)
 800080a:	f64a 22aa 	movw	r2, #43690	; 0xaaaa
 800080e:	601a      	str	r2, [r3, #0]
 8000810:	4770      	bx	lr
 8000812:	bf00      	nop
 8000814:	40003000 	.word	0x40003000

08000818 <Get_event>:
 8000818:	4b01      	ldr	r3, [pc, #4]	; (8000820 <Get_event+0x8>)
 800081a:	7858      	ldrb	r0, [r3, #1]
 800081c:	4770      	bx	lr
 800081e:	bf00      	nop
 8000820:	2000023f 	.word	0x2000023f

08000824 <Set_event>:
 8000824:	4b01      	ldr	r3, [pc, #4]	; (800082c <Set_event+0x8>)
 8000826:	7058      	strb	r0, [r3, #1]
 8000828:	4770      	bx	lr
 800082a:	bf00      	nop
 800082c:	2000023f 	.word	0x2000023f

08000830 <Reset_event>:
 8000830:	4b01      	ldr	r3, [pc, #4]	; (8000838 <Reset_event+0x8>)
 8000832:	2200      	movs	r2, #0
 8000834:	705a      	strb	r2, [r3, #1]
 8000836:	4770      	bx	lr
 8000838:	2000023f 	.word	0x2000023f

0800083c <spi_rb>:
 800083c:	b507      	push	{r0, r1, r2, lr}
 800083e:	f04f 33ff 	mov.w	r3, #4294967295
 8000842:	2201      	movs	r2, #1
 8000844:	f10d 0107 	add.w	r1, sp, #7
 8000848:	4803      	ldr	r0, [pc, #12]	; (8000858 <spi_rb+0x1c>)
 800084a:	f002 ff2e 	bl	80036aa <HAL_SPI_Receive>
 800084e:	f89d 0007 	ldrb.w	r0, [sp, #7]
 8000852:	b003      	add	sp, #12
 8000854:	f85d fb04 	ldr.w	pc, [sp], #4
 8000858:	200002cc 	.word	0x200002cc

0800085c <spi_wb>:
 800085c:	b507      	push	{r0, r1, r2, lr}
 800085e:	f04f 33ff 	mov.w	r3, #4294967295
 8000862:	f88d 0007 	strb.w	r0, [sp, #7]
 8000866:	2201      	movs	r2, #1
 8000868:	f10d 0107 	add.w	r1, sp, #7
 800086c:	4802      	ldr	r0, [pc, #8]	; (8000878 <spi_wb+0x1c>)
 800086e:	f002 fd27 	bl	80032c0 <HAL_SPI_Transmit>
 8000872:	b003      	add	sp, #12
 8000874:	f85d fb04 	ldr.w	pc, [sp], #4
 8000878:	200002cc 	.word	0x200002cc

0800087c <Timer2_Stop>:
 800087c:	4801      	ldr	r0, [pc, #4]	; (8000884 <Timer2_Stop+0x8>)
 800087e:	f003 b825 	b.w	80038cc <HAL_TIM_Base_Stop>
 8000882:	bf00      	nop
 8000884:	20000330 	.word	0x20000330

08000888 <Timer2_DeInitilized>:
 8000888:	b508      	push	{r3, lr}
 800088a:	4804      	ldr	r0, [pc, #16]	; (800089c <Timer2_DeInitilized+0x14>)
 800088c:	f002 ffc5 	bl	800381a <HAL_TIM_Base_DeInit>
 8000890:	e8bd 4008 	ldmia.w	sp!, {r3, lr}
 8000894:	4802      	ldr	r0, [pc, #8]	; (80008a0 <Timer2_DeInitilized+0x18>)
 8000896:	f002 bfc0 	b.w	800381a <HAL_TIM_Base_DeInit>
 800089a:	bf00      	nop
 800089c:	20000330 	.word	0x20000330
 80008a0:	2000037c 	.word	0x2000037c

080008a4 <Timer2_Initilized>:
 80008a4:	b508      	push	{r3, lr}
 80008a6:	4804      	ldr	r0, [pc, #16]	; (80008b8 <Timer2_Initilized+0x14>)
 80008a8:	f003 f95e 	bl	8003b68 <HAL_TIM_Base_Init>
 80008ac:	e8bd 4008 	ldmia.w	sp!, {r3, lr}
 80008b0:	4802      	ldr	r0, [pc, #8]	; (80008bc <Timer2_Initilized+0x18>)
 80008b2:	f003 b959 	b.w	8003b68 <HAL_TIM_Base_Init>
 80008b6:	bf00      	nop
 80008b8:	20000330 	.word	0x20000330
 80008bc:	2000037c 	.word	0x2000037c

080008c0 <Timer2_Start>:
 80008c0:	4801      	ldr	r0, [pc, #4]	; (80008c8 <Timer2_Start+0x8>)
 80008c2:	f002 bfdd 	b.w	8003880 <HAL_TIM_Base_Start>
 80008c6:	bf00      	nop
 80008c8:	20000330 	.word	0x20000330

080008cc <Timer6_Start>:
 80008cc:	4801      	ldr	r0, [pc, #4]	; (80008d4 <Timer6_Start+0x8>)
 80008ce:	f003 b811 	b.w	80038f4 <HAL_TIM_Base_Start_IT>
 80008d2:	bf00      	nop
 80008d4:	2000037c 	.word	0x2000037c

080008d8 <Timer6_Stop>:
 80008d8:	4801      	ldr	r0, [pc, #4]	; (80008e0 <Timer6_Stop+0x8>)
 80008da:	f003 b835 	b.w	8003948 <HAL_TIM_Base_Stop_IT>
 80008de:	bf00      	nop
 80008e0:	2000037c 	.word	0x2000037c

080008e4 <Timer2_GetTimer>:
 80008e4:	4b01      	ldr	r3, [pc, #4]	; (80008ec <Timer2_GetTimer+0x8>)
 80008e6:	681b      	ldr	r3, [r3, #0]
 80008e8:	6a58      	ldr	r0, [r3, #36]	; 0x24
 80008ea:	4770      	bx	lr
 80008ec:	20000330 	.word	0x20000330

080008f0 <SystemClock_Config>:
 80008f0:	b530      	push	{r4, r5, lr}
 80008f2:	b09d      	sub	sp, #116	; 0x74
 80008f4:	2228      	movs	r2, #40	; 0x28
 80008f6:	2100      	movs	r1, #0
 80008f8:	a806      	add	r0, sp, #24
 80008fa:	f003 fc51 	bl	80041a0 <memset>
 80008fe:	2214      	movs	r2, #20
 8000900:	2100      	movs	r1, #0
 8000902:	a801      	add	r0, sp, #4
 8000904:	f003 fc4c 	bl	80041a0 <memset>
 8000908:	2100      	movs	r1, #0
 800090a:	2230      	movs	r2, #48	; 0x30
 800090c:	a810      	add	r0, sp, #64	; 0x40
 800090e:	f003 fc47 	bl	80041a0 <memset>
 8000912:	f001 fd6f 	bl	80023f4 <HAL_PWR_EnableBkUpAccess>
 8000916:	4a17      	ldr	r2, [pc, #92]	; (8000974 <SystemClock_Config+0x84>)
 8000918:	6a13      	ldr	r3, [r2, #32]
 800091a:	f023 0318 	bic.w	r3, r3, #24
 800091e:	6213      	str	r3, [r2, #32]
 8000920:	f44f 3480 	mov.w	r4, #65536	; 0x10000
 8000924:	2305      	movs	r3, #5
 8000926:	e9cd 3406 	strd	r3, r4, [sp, #24]
 800092a:	2204      	movs	r2, #4
 800092c:	2301      	movs	r3, #1
 800092e:	e9cd 2308 	strd	r2, r3, [sp, #32]
 8000932:	2502      	movs	r5, #2
 8000934:	930a      	str	r3, [sp, #40]	; 0x28
 8000936:	a806      	add	r0, sp, #24
 8000938:	f44f 1340 	mov.w	r3, #3145728	; 0x300000
 800093c:	930f      	str	r3, [sp, #60]	; 0x3c
 800093e:	e9cd 540d 	strd	r5, r4, [sp, #52]	; 0x34
 8000942:	f001 fd5f 	bl	8002404 <HAL_RCC_OscConfig>
 8000946:	230f      	movs	r3, #15
 8000948:	f44f 6280 	mov.w	r2, #1024	; 0x400
 800094c:	e9cd 3501 	strd	r3, r5, [sp, #4]
 8000950:	4629      	mov	r1, r5
 8000952:	2300      	movs	r3, #0
 8000954:	a801      	add	r0, sp, #4
 8000956:	e9cd 3203 	strd	r3, r2, [sp, #12]
 800095a:	9305      	str	r3, [sp, #20]
 800095c:	f002 f80c 	bl	8002978 <HAL_RCC_ClockConfig>
 8000960:	f44f 7380 	mov.w	r3, #256	; 0x100
 8000964:	a810      	add	r0, sp, #64	; 0x40
 8000966:	9410      	str	r4, [sp, #64]	; 0x40
 8000968:	9311      	str	r3, [sp, #68]	; 0x44
 800096a:	f002 f8e1 	bl	8002b30 <HAL_RCCEx_PeriphCLKConfig>
 800096e:	b01d      	add	sp, #116	; 0x74
 8000970:	bd30      	pop	{r4, r5, pc}
 8000972:	bf00      	nop
 8000974:	40021000 	.word	0x40021000

08000978 <main>:
 8000978:	e92d 43f0 	stmdb	sp!, {r4, r5, r6, r7, r8, r9, lr}
 800097c:	b08d      	sub	sp, #52	; 0x34
 800097e:	f001 fbaf 	bl	80020e0 <HAL_Init>
 8000982:	f7ff ffb5 	bl	80008f0 <SystemClock_Config>
 8000986:	2214      	movs	r2, #20
 8000988:	2100      	movs	r1, #0
 800098a:	a807      	add	r0, sp, #28
 800098c:	f003 fc08 	bl	80041a0 <memset>
 8000990:	4bc3      	ldr	r3, [pc, #780]	; (8000ca0 <main+0x328>)
 8000992:	48c4      	ldr	r0, [pc, #784]	; (8000ca4 <main+0x32c>)
 8000994:	695a      	ldr	r2, [r3, #20]
 8000996:	f442 2200 	orr.w	r2, r2, #524288	; 0x80000
 800099a:	615a      	str	r2, [r3, #20]
 800099c:	695a      	ldr	r2, [r3, #20]
 800099e:	f402 2200 	and.w	r2, r2, #524288	; 0x80000
 80009a2:	9200      	str	r2, [sp, #0]
 80009a4:	9a00      	ldr	r2, [sp, #0]
 80009a6:	695a      	ldr	r2, [r3, #20]
 80009a8:	f442 0280 	orr.w	r2, r2, #4194304	; 0x400000
 80009ac:	615a      	str	r2, [r3, #20]
 80009ae:	695a      	ldr	r2, [r3, #20]
 80009b0:	f402 0280 	and.w	r2, r2, #4194304	; 0x400000
 80009b4:	9201      	str	r2, [sp, #4]
 80009b6:	9a01      	ldr	r2, [sp, #4]
 80009b8:	695a      	ldr	r2, [r3, #20]
 80009ba:	f442 3200 	orr.w	r2, r2, #131072	; 0x20000
 80009be:	615a      	str	r2, [r3, #20]
 80009c0:	695a      	ldr	r2, [r3, #20]
 80009c2:	f402 3200 	and.w	r2, r2, #131072	; 0x20000
 80009c6:	9202      	str	r2, [sp, #8]
 80009c8:	9a02      	ldr	r2, [sp, #8]
 80009ca:	695a      	ldr	r2, [r3, #20]
 80009cc:	f442 2280 	orr.w	r2, r2, #262144	; 0x40000
 80009d0:	615a      	str	r2, [r3, #20]
 80009d2:	695b      	ldr	r3, [r3, #20]
 80009d4:	f403 2380 	and.w	r3, r3, #262144	; 0x40000
 80009d8:	9303      	str	r3, [sp, #12]
 80009da:	2200      	movs	r2, #0
 80009dc:	f44f 5100 	mov.w	r1, #8192	; 0x2000
 80009e0:	9b03      	ldr	r3, [sp, #12]
 80009e2:	f001 fced 	bl	80023c0 <HAL_GPIO_WritePin>
 80009e6:	48b0      	ldr	r0, [pc, #704]	; (8000ca8 <main+0x330>)
 80009e8:	2201      	movs	r2, #1
 80009ea:	f240 3101 	movw	r1, #769	; 0x301
 80009ee:	f001 fce7 	bl	80023c0 <HAL_GPIO_WritePin>
 80009f2:	48ad      	ldr	r0, [pc, #692]	; (8000ca8 <main+0x330>)
 80009f4:	2200      	movs	r2, #0
 80009f6:	f44f 5180 	mov.w	r1, #4096	; 0x1000
 80009fa:	f001 fce1 	bl	80023c0 <HAL_GPIO_WritePin>
 80009fe:	2201      	movs	r2, #1
 8000a00:	f44f 4103 	mov.w	r1, #33536	; 0x8300
 8000a04:	f04f 4090 	mov.w	r0, #1207959552	; 0x48000000
 8000a08:	2400      	movs	r4, #0
 8000a0a:	f001 fcd9 	bl	80023c0 <HAL_GPIO_WritePin>
 8000a0e:	2501      	movs	r5, #1
 8000a10:	f44f 5300 	mov.w	r3, #8192	; 0x2000
 8000a14:	48a3      	ldr	r0, [pc, #652]	; (8000ca4 <main+0x32c>)
 8000a16:	a907      	add	r1, sp, #28
 8000a18:	e9cd 3507 	strd	r3, r5, [sp, #28]
 8000a1c:	f44f 1604 	mov.w	r6, #2162688	; 0x210000
 8000a20:	e9cd 4409 	strd	r4, r4, [sp, #36]	; 0x24
 8000a24:	f001 fc0e 	bl	8002244 <HAL_GPIO_Init>
 8000a28:	2323      	movs	r3, #35	; 0x23
 8000a2a:	a907      	add	r1, sp, #28
 8000a2c:	f04f 4090 	mov.w	r0, #1207959552	; 0x48000000
 8000a30:	e9cd 3607 	strd	r3, r6, [sp, #28]
 8000a34:	9509      	str	r5, [sp, #36]	; 0x24
 8000a36:	f001 fc05 	bl	8002244 <HAL_GPIO_Init>
 8000a3a:	489b      	ldr	r0, [pc, #620]	; (8000ca8 <main+0x330>)
 8000a3c:	a907      	add	r1, sp, #28
 8000a3e:	e9cd 5409 	strd	r5, r4, [sp, #36]	; 0x24
 8000a42:	e9cd 5507 	strd	r5, r5, [sp, #28]
 8000a46:	f001 fbfd 	bl	8002244 <HAL_GPIO_Init>
 8000a4a:	2304      	movs	r3, #4
 8000a4c:	4896      	ldr	r0, [pc, #600]	; (8000ca8 <main+0x330>)
 8000a4e:	9509      	str	r5, [sp, #36]	; 0x24
 8000a50:	a907      	add	r1, sp, #28
 8000a52:	e9cd 3607 	strd	r3, r6, [sp, #28]
 8000a56:	f001 fbf5 	bl	8002244 <HAL_GPIO_Init>
 8000a5a:	f44f 5398 	mov.w	r3, #4864	; 0x1300
 8000a5e:	4892      	ldr	r0, [pc, #584]	; (8000ca8 <main+0x330>)
 8000a60:	4e92      	ldr	r6, [pc, #584]	; (8000cac <main+0x334>)
 8000a62:	a907      	add	r1, sp, #28
 8000a64:	e9cd 3507 	strd	r3, r5, [sp, #28]
 8000a68:	e9cd 4409 	strd	r4, r4, [sp, #36]	; 0x24
 8000a6c:	f001 fbea 	bl	8002244 <HAL_GPIO_Init>
 8000a70:	f44f 4303 	mov.w	r3, #33536	; 0x8300
 8000a74:	a907      	add	r1, sp, #28
 8000a76:	f04f 4090 	mov.w	r0, #1207959552	; 0x48000000
 8000a7a:	e9cd 3507 	strd	r3, r5, [sp, #28]
 8000a7e:	e9cd 4409 	strd	r4, r4, [sp, #36]	; 0x24
 8000a82:	f001 fbdf 	bl	8002244 <HAL_GPIO_Init>
 8000a86:	4622      	mov	r2, r4
 8000a88:	4621      	mov	r1, r4
 8000a8a:	2006      	movs	r0, #6
 8000a8c:	f001 fb72 	bl	8002174 <HAL_NVIC_SetPriority>
 8000a90:	2006      	movs	r0, #6
 8000a92:	f001 fba1 	bl	80021d8 <HAL_NVIC_EnableIRQ>
 8000a96:	4622      	mov	r2, r4
 8000a98:	4621      	mov	r1, r4
 8000a9a:	2007      	movs	r0, #7
 8000a9c:	f001 fb6a 	bl	8002174 <HAL_NVIC_SetPriority>
 8000aa0:	2007      	movs	r0, #7
 8000aa2:	f001 fb99 	bl	80021d8 <HAL_NVIC_EnableIRQ>
 8000aa6:	4622      	mov	r2, r4
 8000aa8:	4621      	mov	r1, r4
 8000aaa:	2017      	movs	r0, #23
 8000aac:	f001 fb62 	bl	8002174 <HAL_NVIC_SetPriority>
 8000ab0:	2017      	movs	r0, #23
 8000ab2:	f001 fb91 	bl	80021d8 <HAL_NVIC_EnableIRQ>
 8000ab6:	4621      	mov	r1, r4
 8000ab8:	2214      	movs	r2, #20
 8000aba:	a807      	add	r0, sp, #28
 8000abc:	f003 fb70 	bl	80041a0 <memset>
 8000ac0:	4b7b      	ldr	r3, [pc, #492]	; (8000cb0 <main+0x338>)
 8000ac2:	61b4      	str	r4, [r6, #24]
 8000ac4:	e9c6 3400 	strd	r3, r4, [r6]
 8000ac8:	227f      	movs	r2, #127	; 0x7f
 8000aca:	23ff      	movs	r3, #255	; 0xff
 8000acc:	4630      	mov	r0, r6
 8000ace:	e9c6 2302 	strd	r2, r3, [r6, #8]
 8000ad2:	e9c6 4404 	strd	r4, r4, [r6, #16]
 8000ad6:	9404      	str	r4, [sp, #16]
 8000ad8:	f002 f944 	bl	8002d64 <HAL_RTC_Init>
 8000adc:	462a      	mov	r2, r5
 8000ade:	a907      	add	r1, sp, #28
 8000ae0:	4630      	mov	r0, r6
 8000ae2:	e9cd 440a 	strd	r4, r4, [sp, #40]	; 0x28
 8000ae6:	f8ad 401c 	strh.w	r4, [sp, #28]
 8000aea:	f88d 401e 	strb.w	r4, [sp, #30]
 8000aee:	f002 f992 	bl	8002e16 <HAL_RTC_SetTime>
 8000af2:	2305      	movs	r3, #5
 8000af4:	f88d 3011 	strb.w	r3, [sp, #17]
 8000af8:	2325      	movs	r3, #37	; 0x25
 8000afa:	462a      	mov	r2, r5
 8000afc:	a904      	add	r1, sp, #16
 8000afe:	f88d 3012 	strb.w	r3, [sp, #18]
 8000b02:	4630      	mov	r0, r6
 8000b04:	2322      	movs	r3, #34	; 0x22
 8000b06:	f88d 5010 	strb.w	r5, [sp, #16]
 8000b0a:	f88d 3013 	strb.w	r3, [sp, #19]
 8000b0e:	f002 f9f3 	bl	8002ef8 <HAL_RTC_SetDate>
 8000b12:	4868      	ldr	r0, [pc, #416]	; (8000cb4 <main+0x33c>)
 8000b14:	4b68      	ldr	r3, [pc, #416]	; (8000cb8 <main+0x340>)
 8000b16:	6084      	str	r4, [r0, #8]
 8000b18:	f44f 7700 	mov.w	r7, #512	; 0x200
 8000b1c:	2607      	movs	r6, #7
 8000b1e:	2508      	movs	r5, #8
 8000b20:	f44f 7982 	mov.w	r9, #260	; 0x104
 8000b24:	f44f 68e0 	mov.w	r8, #1792	; 0x700
 8000b28:	e9c0 7406 	strd	r7, r4, [r0, #24]
 8000b2c:	e9c0 640b 	strd	r6, r4, [r0, #44]	; 0x2c
 8000b30:	e9c0 3900 	strd	r3, r9, [r0]
 8000b34:	e9c0 8403 	strd	r8, r4, [r0, #12]
 8000b38:	e9c0 4408 	strd	r4, r4, [r0, #32]
 8000b3c:	6144      	str	r4, [r0, #20]
 8000b3e:	6284      	str	r4, [r0, #40]	; 0x28
 8000b40:	6345      	str	r5, [r0, #52]	; 0x34
 8000b42:	f002 fb4f 	bl	80031e4 <HAL_SPI_Init>
 8000b46:	485d      	ldr	r0, [pc, #372]	; (8000cbc <main+0x344>)
 8000b48:	4b5d      	ldr	r3, [pc, #372]	; (8000cc0 <main+0x348>)
 8000b4a:	e9c0 7406 	strd	r7, r4, [r0, #24]
 8000b4e:	2710      	movs	r7, #16
 8000b50:	e9c0 3900 	strd	r3, r9, [r0]
 8000b54:	e9c0 460a 	strd	r4, r6, [r0, #40]	; 0x28
 8000b58:	e9c0 450c 	strd	r4, r5, [r0, #48]	; 0x30
 8000b5c:	e9c0 4802 	strd	r4, r8, [r0, #8]
 8000b60:	4d58      	ldr	r5, [pc, #352]	; (8000cc4 <main+0x34c>)
 8000b62:	e9c0 4404 	strd	r4, r4, [r0, #16]
 8000b66:	e9c0 4408 	strd	r4, r4, [r0, #32]
 8000b6a:	f002 fb3b 	bl	80031e4 <HAL_SPI_Init>
 8000b6e:	463a      	mov	r2, r7
 8000b70:	4621      	mov	r1, r4
 8000b72:	a807      	add	r0, sp, #28
 8000b74:	f003 fb14 	bl	80041a0 <memset>
 8000b78:	f04f 4180 	mov.w	r1, #1073741824	; 0x40000000
 8000b7c:	2345      	movs	r3, #69	; 0x45
 8000b7e:	e9c5 1300 	strd	r1, r3, [r5]
 8000b82:	4628      	mov	r0, r5
 8000b84:	f06f 0301 	mvn.w	r3, #1
 8000b88:	e9c5 3403 	strd	r3, r4, [r5, #12]
 8000b8c:	60ac      	str	r4, [r5, #8]
 8000b8e:	61ac      	str	r4, [r5, #24]
 8000b90:	f44f 5680 	mov.w	r6, #4096	; 0x1000
 8000b94:	e9cd 4404 	strd	r4, r4, [sp, #16]
 8000b98:	9406      	str	r4, [sp, #24]
 8000b9a:	f002 ffe5 	bl	8003b68 <HAL_TIM_Base_Init>
 8000b9e:	a907      	add	r1, sp, #28
 8000ba0:	4628      	mov	r0, r5
 8000ba2:	9607      	str	r6, [sp, #28]
 8000ba4:	f003 f81a 	bl	8003bdc <HAL_TIM_ConfigClockSource>
 8000ba8:	eb0d 0107 	add.w	r1, sp, r7
 8000bac:	4628      	mov	r0, r5
 8000bae:	9404      	str	r4, [sp, #16]
 8000bb0:	4d45      	ldr	r5, [pc, #276]	; (8000cc8 <main+0x350>)
 8000bb2:	9406      	str	r4, [sp, #24]
 8000bb4:	f003 f8ae 	bl	8003d14 <HAL_TIMEx_MasterConfigSynchronization>
 8000bb8:	4844      	ldr	r0, [pc, #272]	; (8000ccc <main+0x354>)
 8000bba:	f44f 5316 	mov.w	r3, #9600	; 0x2580
 8000bbe:	e9c0 5300 	strd	r5, r3, [r0]
 8000bc2:	6386      	str	r6, [r0, #56]	; 0x38
 8000bc4:	4d42      	ldr	r5, [pc, #264]	; (8000cd0 <main+0x358>)
 8000bc6:	4e43      	ldr	r6, [pc, #268]	; (8000cd4 <main+0x35c>)
 8000bc8:	6104      	str	r4, [r0, #16]
 8000bca:	230c      	movs	r3, #12
 8000bcc:	e9c0 3405 	strd	r3, r4, [r0, #20]
 8000bd0:	e9c0 4402 	strd	r4, r4, [r0, #8]
 8000bd4:	e9c0 4407 	strd	r4, r4, [r0, #28]
 8000bd8:	6247      	str	r7, [r0, #36]	; 0x24
 8000bda:	f003 fa50 	bl	800407e <HAL_UART_Init>
 8000bde:	f641 3357 	movw	r3, #6999	; 0x1b57
 8000be2:	e9c5 6300 	strd	r6, r3, [r5]
 8000be6:	f242 730f 	movw	r3, #9999	; 0x270f
 8000bea:	60eb      	str	r3, [r5, #12]
 8000bec:	4628      	mov	r0, r5
 8000bee:	2380      	movs	r3, #128	; 0x80
 8000bf0:	60ac      	str	r4, [r5, #8]
 8000bf2:	61ab      	str	r3, [r5, #24]
 8000bf4:	e9cd 4407 	strd	r4, r4, [sp, #28]
 8000bf8:	9409      	str	r4, [sp, #36]	; 0x24
 8000bfa:	f002 ffb5 	bl	8003b68 <HAL_TIM_Base_Init>
 8000bfe:	4628      	mov	r0, r5
 8000c00:	a907      	add	r1, sp, #28
 8000c02:	9407      	str	r4, [sp, #28]
 8000c04:	9409      	str	r4, [sp, #36]	; 0x24
 8000c06:	f003 f885 	bl	8003d14 <HAL_TIMEx_MasterConfigSynchronization>
 8000c0a:	4c33      	ldr	r4, [pc, #204]	; (8000cd8 <main+0x360>)
 8000c0c:	4d33      	ldr	r5, [pc, #204]	; (8000cdc <main+0x364>)
 8000c0e:	4e34      	ldr	r6, [pc, #208]	; (8000ce0 <main+0x368>)
 8000c10:	f000 fc04 	bl	800141c <Get_state>
 8000c14:	3801      	subs	r0, #1
 8000c16:	2806      	cmp	r0, #6
 8000c18:	d8fa      	bhi.n	8000c10 <main+0x298>
 8000c1a:	e8df f000 	tbb	[pc, r0]
 8000c1e:	0d04      	.short	0x0d04
 8000c20:	76696914 	.word	0x76696914
 8000c24:	06          	.byte	0x06
 8000c25:	00          	.byte	0x00
 8000c26:	f000 fc05 	bl	8001434 <Initilisation_State_Handler>
 8000c2a:	f7ff fdf5 	bl	8000818 <Get_event>
 8000c2e:	2801      	cmp	r0, #1
 8000c30:	d1ee      	bne.n	8000c10 <main+0x298>
 8000c32:	f000 fc33 	bl	800149c <Reset_State_Handler>
 8000c36:	e7eb      	b.n	8000c10 <main+0x298>
 8000c38:	f7ff fdee 	bl	8000818 <Get_event>
 8000c3c:	2802      	cmp	r0, #2
 8000c3e:	d1e7      	bne.n	8000c10 <main+0x298>
 8000c40:	f000 fc76 	bl	8001530 <Idle_State_Handler>
 8000c44:	e7e4      	b.n	8000c10 <main+0x298>
 8000c46:	f7ff fde7 	bl	8000818 <Get_event>
 8000c4a:	2803      	cmp	r0, #3
 8000c4c:	d121      	bne.n	8000c92 <main+0x31a>
 8000c4e:	f000 fc77 	bl	8001540 <WRSide_Train_Presence_State_Handler>
 8000c52:	4922      	ldr	r1, [pc, #136]	; (8000cdc <main+0x364>)
 8000c54:	200f      	movs	r0, #15
 8000c56:	f001 f92b 	bl	8001eb0 <ctlwizchip>
 8000c5a:	782b      	ldrb	r3, [r5, #0]
 8000c5c:	2b00      	cmp	r3, #0
 8000c5e:	d141      	bne.n	8000ce4 <main+0x36c>
 8000c60:	2001      	movs	r0, #1
 8000c62:	f000 fbe1 	bl	8001428 <Set_state>
 8000c66:	9607      	str	r6, [sp, #28]
 8000c68:	f7ff fdce 	bl	8000808 <Refresh_Watchdog>
 8000c6c:	f242 328b 	movw	r2, #9099	; 0x238b
 8000c70:	a907      	add	r1, sp, #28
 8000c72:	2000      	movs	r0, #0
 8000c74:	f000 f9c4 	bl	8001000 <connect>
 8000c78:	aa04      	add	r2, sp, #16
 8000c7a:	210a      	movs	r1, #10
 8000c7c:	2000      	movs	r0, #0
 8000c7e:	f000 fb31 	bl	80012e4 <getsockopt>
 8000c82:	f89d 3010 	ldrb.w	r3, [sp, #16]
 8000c86:	2b1c      	cmp	r3, #28
 8000c88:	d1c2      	bne.n	8000c10 <main+0x298>
 8000c8a:	2001      	movs	r0, #1
 8000c8c:	f000 fbcc 	bl	8001428 <Set_state>
 8000c90:	e7be      	b.n	8000c10 <main+0x298>
 8000c92:	f7ff fdc1 	bl	8000818 <Get_event>
 8000c96:	2804      	cmp	r0, #4
 8000c98:	d1db      	bne.n	8000c52 <main+0x2da>
 8000c9a:	f000 fc5f 	bl	800155c <WLSide_Train_Presence_State_Handler>
 8000c9e:	e7d8      	b.n	8000c52 <main+0x2da>
 8000ca0:	40021000 	.word	0x40021000
 8000ca4:	48000800 	.word	0x48000800
 8000ca8:	48000400 	.word	0x48000400
 8000cac:	20000248 	.word	0x20000248
 8000cb0:	40002800 	.word	0x40002800
 8000cb4:	20000268 	.word	0x20000268
 8000cb8:	40003800 	.word	0x40003800
 8000cbc:	200002cc 	.word	0x200002cc
 8000cc0:	40003c00 	.word	0x40003c00
 8000cc4:	20000330 	.word	0x20000330
 8000cc8:	40004400 	.word	0x40004400
 8000ccc:	200003c8 	.word	0x200003c8
 8000cd0:	2000037c 	.word	0x2000037c
 8000cd4:	40001000 	.word	0x40001000
 8000cd8:	20000244 	.word	0x20000244
 8000cdc:	2000023e 	.word	0x2000023e
 8000ce0:	6f01a8c0 	.word	0x6f01a8c0
 8000ce4:	2b01      	cmp	r3, #1
 8000ce6:	d1be      	bne.n	8000c66 <main+0x2ee>
 8000ce8:	2064      	movs	r0, #100	; 0x64
 8000cea:	f001 fa1d 	bl	8002128 <HAL_Delay>
 8000cee:	e7ba      	b.n	8000c66 <main+0x2ee>
 8000cf0:	6823      	ldr	r3, [r4, #0]
 8000cf2:	2b14      	cmp	r3, #20
 8000cf4:	d902      	bls.n	8000cfc <main+0x384>
 8000cf6:	2005      	movs	r0, #5
 8000cf8:	f7ff fd94 	bl	8000824 <Set_event>
 8000cfc:	f7ff fd8c 	bl	8000818 <Get_event>
 8000d00:	2805      	cmp	r0, #5
 8000d02:	d185      	bne.n	8000c10 <main+0x298>
 8000d04:	f000 fc38 	bl	8001578 <Train_Exit_State_Handler>
 8000d08:	e782      	b.n	8000c10 <main+0x298>
 8000d0a:	f7ff fd85 	bl	8000818 <Get_event>
 8000d0e:	2806      	cmp	r0, #6
 8000d10:	f47f af7e 	bne.w	8000c10 <main+0x298>
 8000d14:	f000 fc3b 	bl	800158e <Log_Data_State_Handler>
 8000d18:	e77a      	b.n	8000c10 <main+0x298>
 8000d1a:	bf00      	nop

08000d1c <HAL_GPIO_EXTI_Callback>:
 8000d1c:	2804      	cmp	r0, #4
 8000d1e:	b508      	push	{r3, lr}
 8000d20:	d038      	beq.n	8000d94 <HAL_GPIO_EXTI_Callback+0x78>
 8000d22:	d804      	bhi.n	8000d2e <HAL_GPIO_EXTI_Callback+0x12>
 8000d24:	2801      	cmp	r0, #1
 8000d26:	d00e      	beq.n	8000d46 <HAL_GPIO_EXTI_Callback+0x2a>
 8000d28:	2802      	cmp	r0, #2
 8000d2a:	d024      	beq.n	8000d76 <HAL_GPIO_EXTI_Callback+0x5a>
 8000d2c:	bd08      	pop	{r3, pc}
 8000d2e:	2820      	cmp	r0, #32
 8000d30:	d1fc      	bne.n	8000d2c <HAL_GPIO_EXTI_Callback+0x10>
 8000d32:	f000 fb73 	bl	800141c <Get_state>
 8000d36:	3804      	subs	r0, #4
 8000d38:	b2c0      	uxtb	r0, r0
 8000d3a:	2801      	cmp	r0, #1
 8000d3c:	d8f6      	bhi.n	8000d2c <HAL_GPIO_EXTI_Callback+0x10>
 8000d3e:	e8bd 4008 	ldmia.w	sp!, {r3, lr}
 8000d42:	f7ff bac1 	b.w	80002c8 <FCT_Interrupt_Service>
 8000d46:	f000 fb69 	bl	800141c <Get_state>
 8000d4a:	2803      	cmp	r0, #3
 8000d4c:	d00e      	beq.n	8000d6c <HAL_GPIO_EXTI_Callback+0x50>
 8000d4e:	1f03      	subs	r3, r0, #4
 8000d50:	b2db      	uxtb	r3, r3
 8000d52:	2b01      	cmp	r3, #1
 8000d54:	d90c      	bls.n	8000d70 <HAL_GPIO_EXTI_Callback+0x54>
 8000d56:	4b11      	ldr	r3, [pc, #68]	; (8000d9c <HAL_GPIO_EXTI_Callback+0x80>)
 8000d58:	681a      	ldr	r2, [r3, #0]
 8000d5a:	4b11      	ldr	r3, [pc, #68]	; (8000da0 <HAL_GPIO_EXTI_Callback+0x84>)
 8000d5c:	681b      	ldr	r3, [r3, #0]
 8000d5e:	429a      	cmp	r2, r3
 8000d60:	d1e4      	bne.n	8000d2c <HAL_GPIO_EXTI_Callback+0x10>
 8000d62:	e8bd 4008 	ldmia.w	sp!, {r3, lr}
 8000d66:	2005      	movs	r0, #5
 8000d68:	f7ff bd5c 	b.w	8000824 <Set_event>
 8000d6c:	f7ff fd5a 	bl	8000824 <Set_event>
 8000d70:	f7ff fa58 	bl	8000224 <WR_Interrupt_Service>
 8000d74:	e7ef      	b.n	8000d56 <HAL_GPIO_EXTI_Callback+0x3a>
 8000d76:	f000 fb51 	bl	800141c <Get_state>
 8000d7a:	2803      	cmp	r0, #3
 8000d7c:	d006      	beq.n	8000d8c <HAL_GPIO_EXTI_Callback+0x70>
 8000d7e:	3804      	subs	r0, #4
 8000d80:	b2c0      	uxtb	r0, r0
 8000d82:	2801      	cmp	r0, #1
 8000d84:	d8e7      	bhi.n	8000d56 <HAL_GPIO_EXTI_Callback+0x3a>
 8000d86:	f7ff fb15 	bl	80003b4 <WL_Interrupt_Service>
 8000d8a:	e7e4      	b.n	8000d56 <HAL_GPIO_EXTI_Callback+0x3a>
 8000d8c:	2004      	movs	r0, #4
 8000d8e:	f7ff fd49 	bl	8000824 <Set_event>
 8000d92:	e7f8      	b.n	8000d86 <HAL_GPIO_EXTI_Callback+0x6a>
 8000d94:	e8bd 4008 	ldmia.w	sp!, {r3, lr}
 8000d98:	f7ff ba1e 	b.w	80001d8 <Lan_Interrupt_Service>
 8000d9c:	200001d8 	.word	0x200001d8
 8000da0:	200001d0 	.word	0x200001d0

08000da4 <RingInit>:
 8000da4:	b5f8      	push	{r3, r4, r5, r6, r7, lr}
 8000da6:	460e      	mov	r6, r1
 8000da8:	4614      	mov	r4, r2
 8000daa:	461f      	mov	r7, r3
 8000dac:	4605      	mov	r5, r0
 8000dae:	b198      	cbz	r0, 8000dd8 <RingInit+0x34>
 8000db0:	b191      	cbz	r1, 8000dd8 <RingInit+0x34>
 8000db2:	2220      	movs	r2, #32
 8000db4:	2100      	movs	r1, #0
 8000db6:	f003 f9f3 	bl	80041a0 <memset>
 8000dba:	b184      	cbz	r4, 8000dde <RingInit+0x3a>
 8000dbc:	1e63      	subs	r3, r4, #1
 8000dbe:	fb07 f204 	mul.w	r2, r7, r4
 8000dc2:	61ee      	str	r6, [r5, #28]
 8000dc4:	602c      	str	r4, [r5, #0]
 8000dc6:	61ab      	str	r3, [r5, #24]
 8000dc8:	606f      	str	r7, [r5, #4]
 8000dca:	60aa      	str	r2, [r5, #8]
 8000dcc:	2100      	movs	r1, #0
 8000dce:	4630      	mov	r0, r6
 8000dd0:	f003 f9e6 	bl	80041a0 <memset>
 8000dd4:	2001      	movs	r0, #1
 8000dd6:	bdf8      	pop	{r3, r4, r5, r6, r7, pc}
 8000dd8:	f06f 0002 	mvn.w	r0, #2
 8000ddc:	e7fb      	b.n	8000dd6 <RingInit+0x32>
 8000dde:	f06f 0001 	mvn.w	r0, #1
 8000de2:	e7f8      	b.n	8000dd6 <RingInit+0x32>

08000de4 <RingWriteElement>:
 8000de4:	b570      	push	{r4, r5, r6, lr}
 8000de6:	4604      	mov	r4, r0
 8000de8:	b1b0      	cbz	r0, 8000e18 <RingWriteElement+0x34>
 8000dea:	b1a9      	cbz	r1, 8000e18 <RingWriteElement+0x34>
 8000dec:	69c0      	ldr	r0, [r0, #28]
 8000dee:	b198      	cbz	r0, 8000e18 <RingWriteElement+0x34>
 8000df0:	6925      	ldr	r5, [r4, #16]
 8000df2:	6862      	ldr	r2, [r4, #4]
 8000df4:	68a3      	ldr	r3, [r4, #8]
 8000df6:	4428      	add	r0, r5
 8000df8:	4415      	add	r5, r2
 8000dfa:	fbb5 f6f3 	udiv	r6, r5, r3
 8000dfe:	fb03 5516 	mls	r5, r3, r6, r5
 8000e02:	6963      	ldr	r3, [r4, #20]
 8000e04:	42ab      	cmp	r3, r5
 8000e06:	d00a      	beq.n	8000e1e <RingWriteElement+0x3a>
 8000e08:	f003 f9bc 	bl	8004184 <memcpy>
 8000e0c:	69a3      	ldr	r3, [r4, #24]
 8000e0e:	6125      	str	r5, [r4, #16]
 8000e10:	3b01      	subs	r3, #1
 8000e12:	61a3      	str	r3, [r4, #24]
 8000e14:	2001      	movs	r0, #1
 8000e16:	bd70      	pop	{r4, r5, r6, pc}
 8000e18:	f06f 0002 	mvn.w	r0, #2
 8000e1c:	e7fb      	b.n	8000e16 <RingWriteElement+0x32>
 8000e1e:	f04f 30ff 	mov.w	r0, #4294967295
 8000e22:	e7f8      	b.n	8000e16 <RingWriteElement+0x32>

08000e24 <RingReadElement>:
 8000e24:	e92d 41f0 	stmdb	sp!, {r4, r5, r6, r7, r8, lr}
 8000e28:	4604      	mov	r4, r0
 8000e2a:	e9d4 5605 	ldrd	r5, r6, [r4, #20]
 8000e2e:	6923      	ldr	r3, [r4, #16]
 8000e30:	4608      	mov	r0, r1
 8000e32:	69e1      	ldr	r1, [r4, #28]
 8000e34:	42ab      	cmp	r3, r5
 8000e36:	e9d4 8701 	ldrd	r8, r7, [r4, #4]
 8000e3a:	4429      	add	r1, r5
 8000e3c:	d00d      	beq.n	8000e5a <RingReadElement+0x36>
 8000e3e:	4642      	mov	r2, r8
 8000e40:	4445      	add	r5, r8
 8000e42:	f003 f99f 	bl	8004184 <memcpy>
 8000e46:	fbb5 f2f7 	udiv	r2, r5, r7
 8000e4a:	3601      	adds	r6, #1
 8000e4c:	fb07 5512 	mls	r5, r7, r2, r5
 8000e50:	6165      	str	r5, [r4, #20]
 8000e52:	61a6      	str	r6, [r4, #24]
 8000e54:	2001      	movs	r0, #1
 8000e56:	e8bd 81f0 	ldmia.w	sp!, {r4, r5, r6, r7, r8, pc}
 8000e5a:	f06f 0001 	mvn.w	r0, #1
 8000e5e:	e7fa      	b.n	8000e56 <RingReadElement+0x32>

08000e60 <close>:
 8000e60:	2808      	cmp	r0, #8
 8000e62:	b5f8      	push	{r3, r4, r5, r6, r7, lr}
 8000e64:	4604      	mov	r4, r0
 8000e66:	d82d      	bhi.n	8000ec4 <close+0x64>
 8000e68:	0147      	lsls	r7, r0, #5
 8000e6a:	f107 0608 	add.w	r6, r7, #8
 8000e6e:	f507 7784 	add.w	r7, r7, #264	; 0x108
 8000e72:	2110      	movs	r1, #16
 8000e74:	4638      	mov	r0, r7
 8000e76:	f000 fd31 	bl	80018dc <WIZCHIP_WRITE>
 8000e7a:	4638      	mov	r0, r7
 8000e7c:	f000 fd00 	bl	8001880 <WIZCHIP_READ>
 8000e80:	4605      	mov	r5, r0
 8000e82:	2800      	cmp	r0, #0
 8000e84:	d1f9      	bne.n	8000e7a <close+0x1a>
 8000e86:	211f      	movs	r1, #31
 8000e88:	f506 7000 	add.w	r0, r6, #512	; 0x200
 8000e8c:	f000 fd26 	bl	80018dc <WIZCHIP_WRITE>
 8000e90:	490e      	ldr	r1, [pc, #56]	; (8000ecc <close+0x6c>)
 8000e92:	2301      	movs	r3, #1
 8000e94:	40a3      	lsls	r3, r4
 8000e96:	880a      	ldrh	r2, [r1, #0]
 8000e98:	43db      	mvns	r3, r3
 8000e9a:	b21b      	sxth	r3, r3
 8000e9c:	401a      	ands	r2, r3
 8000e9e:	800a      	strh	r2, [r1, #0]
 8000ea0:	4a0b      	ldr	r2, [pc, #44]	; (8000ed0 <close+0x70>)
 8000ea2:	8811      	ldrh	r1, [r2, #0]
 8000ea4:	400b      	ands	r3, r1
 8000ea6:	8013      	strh	r3, [r2, #0]
 8000ea8:	4b0a      	ldr	r3, [pc, #40]	; (8000ed4 <close+0x74>)
 8000eaa:	f823 5014 	strh.w	r5, [r3, r4, lsl #1]
 8000eae:	4b0a      	ldr	r3, [pc, #40]	; (8000ed8 <close+0x78>)
 8000eb0:	551d      	strb	r5, [r3, r4]
 8000eb2:	f506 7640 	add.w	r6, r6, #768	; 0x300
 8000eb6:	4630      	mov	r0, r6
 8000eb8:	f000 fce2 	bl	8001880 <WIZCHIP_READ>
 8000ebc:	2800      	cmp	r0, #0
 8000ebe:	d1fa      	bne.n	8000eb6 <close+0x56>
 8000ec0:	2001      	movs	r0, #1
 8000ec2:	bdf8      	pop	{r3, r4, r5, r6, r7, pc}
 8000ec4:	f04f 30ff 	mov.w	r0, #4294967295
 8000ec8:	e7fb      	b.n	8000ec2 <close+0x62>
 8000eca:	bf00      	nop
 8000ecc:	2000044c 	.word	0x2000044c
 8000ed0:	2000044e 	.word	0x2000044e
 8000ed4:	20000458 	.word	0x20000458
 8000ed8:	20000450 	.word	0x20000450

08000edc <socket>:
 8000edc:	2808      	cmp	r0, #8
 8000ede:	e92d 41f3 	stmdb	sp!, {r0, r1, r4, r5, r6, r7, r8, lr}
 8000ee2:	4604      	mov	r4, r0
 8000ee4:	4688      	mov	r8, r1
 8000ee6:	4617      	mov	r7, r2
 8000ee8:	461d      	mov	r5, r3
 8000eea:	d87c      	bhi.n	8000fe6 <socket+0x10a>
 8000eec:	2901      	cmp	r1, #1
 8000eee:	d005      	beq.n	8000efc <socket+0x20>
 8000ef0:	1e8b      	subs	r3, r1, #2
 8000ef2:	2b02      	cmp	r3, #2
 8000ef4:	d910      	bls.n	8000f18 <socket+0x3c>
 8000ef6:	f06f 0004 	mvn.w	r0, #4
 8000efa:	e00a      	b.n	8000f12 <socket+0x36>
 8000efc:	2204      	movs	r2, #4
 8000efe:	eb0d 0102 	add.w	r1, sp, r2
 8000f02:	f44f 6070 	mov.w	r0, #3840	; 0xf00
 8000f06:	f000 fd1b 	bl	8001940 <WIZCHIP_READ_BUF>
 8000f0a:	9b01      	ldr	r3, [sp, #4]
 8000f0c:	b923      	cbnz	r3, 8000f18 <socket+0x3c>
 8000f0e:	f06f 0002 	mvn.w	r0, #2
 8000f12:	b002      	add	sp, #8
 8000f14:	e8bd 81f0 	ldmia.w	sp!, {r4, r5, r6, r7, r8, pc}
 8000f18:	0768      	lsls	r0, r5, #29
 8000f1a:	d457      	bmi.n	8000fcc <socket+0xf0>
 8000f1c:	b12d      	cbz	r5, 8000f2a <socket+0x4e>
 8000f1e:	f1b8 0f01 	cmp.w	r8, #1
 8000f22:	d050      	beq.n	8000fc6 <socket+0xea>
 8000f24:	f1b8 0f02 	cmp.w	r8, #2
 8000f28:	d053      	beq.n	8000fd2 <socket+0xf6>
 8000f2a:	4620      	mov	r0, r4
 8000f2c:	0166      	lsls	r6, r4, #5
 8000f2e:	f7ff ff97 	bl	8000e60 <close>
 8000f32:	3608      	adds	r6, #8
 8000f34:	f025 010f 	bic.w	r1, r5, #15
 8000f38:	ea41 0108 	orr.w	r1, r1, r8
 8000f3c:	4630      	mov	r0, r6
 8000f3e:	f000 fccd 	bl	80018dc <WIZCHIP_WRITE>
 8000f42:	b96f      	cbnz	r7, 8000f60 <socket+0x84>
 8000f44:	4a29      	ldr	r2, [pc, #164]	; (8000fec <socket+0x110>)
 8000f46:	8817      	ldrh	r7, [r2, #0]
 8000f48:	1c7b      	adds	r3, r7, #1
 8000f4a:	b29b      	uxth	r3, r3
 8000f4c:	f64f 71f0 	movw	r1, #65520	; 0xfff0
 8000f50:	428b      	cmp	r3, r1
 8000f52:	bf09      	itett	eq
 8000f54:	f44f 4340 	moveq.w	r3, #49152	; 0xc000
 8000f58:	8013      	strhne	r3, [r2, #0]
 8000f5a:	8013      	strheq	r3, [r2, #0]
 8000f5c:	f64f 77ef 	movweq	r7, #65519	; 0xffef
 8000f60:	0a39      	lsrs	r1, r7, #8
 8000f62:	f506 6080 	add.w	r0, r6, #1024	; 0x400
 8000f66:	f000 fcb9 	bl	80018dc <WIZCHIP_WRITE>
 8000f6a:	b2f9      	uxtb	r1, r7
 8000f6c:	f506 60a0 	add.w	r0, r6, #1280	; 0x500
 8000f70:	f506 7780 	add.w	r7, r6, #256	; 0x100
 8000f74:	f000 fcb2 	bl	80018dc <WIZCHIP_WRITE>
 8000f78:	2101      	movs	r1, #1
 8000f7a:	4638      	mov	r0, r7
 8000f7c:	f000 fcae 	bl	80018dc <WIZCHIP_WRITE>
 8000f80:	4638      	mov	r0, r7
 8000f82:	f000 fc7d 	bl	8001880 <WIZCHIP_READ>
 8000f86:	2800      	cmp	r0, #0
 8000f88:	d1fa      	bne.n	8000f80 <socket+0xa4>
 8000f8a:	4919      	ldr	r1, [pc, #100]	; (8000ff0 <socket+0x114>)
 8000f8c:	2301      	movs	r3, #1
 8000f8e:	40a3      	lsls	r3, r4
 8000f90:	880a      	ldrh	r2, [r1, #0]
 8000f92:	43db      	mvns	r3, r3
 8000f94:	b21b      	sxth	r3, r3
 8000f96:	f005 0501 	and.w	r5, r5, #1
 8000f9a:	401a      	ands	r2, r3
 8000f9c:	40a5      	lsls	r5, r4
 8000f9e:	4315      	orrs	r5, r2
 8000fa0:	4a14      	ldr	r2, [pc, #80]	; (8000ff4 <socket+0x118>)
 8000fa2:	800d      	strh	r5, [r1, #0]
 8000fa4:	8811      	ldrh	r1, [r2, #0]
 8000fa6:	400b      	ands	r3, r1
 8000fa8:	8013      	strh	r3, [r2, #0]
 8000faa:	4b13      	ldr	r3, [pc, #76]	; (8000ff8 <socket+0x11c>)
 8000fac:	f823 0014 	strh.w	r0, [r3, r4, lsl #1]
 8000fb0:	4b12      	ldr	r3, [pc, #72]	; (8000ffc <socket+0x120>)
 8000fb2:	5518      	strb	r0, [r3, r4]
 8000fb4:	f506 7640 	add.w	r6, r6, #768	; 0x300
 8000fb8:	4630      	mov	r0, r6
 8000fba:	f000 fc61 	bl	8001880 <WIZCHIP_READ>
 8000fbe:	2800      	cmp	r0, #0
 8000fc0:	d0fa      	beq.n	8000fb8 <socket+0xdc>
 8000fc2:	b260      	sxtb	r0, r4
 8000fc4:	e7a5      	b.n	8000f12 <socket+0x36>
 8000fc6:	f015 0f21 	tst.w	r5, #33	; 0x21
 8000fca:	d1ae      	bne.n	8000f2a <socket+0x4e>
 8000fcc:	f06f 0005 	mvn.w	r0, #5
 8000fd0:	e79f      	b.n	8000f12 <socket+0x36>
 8000fd2:	06a9      	lsls	r1, r5, #26
 8000fd4:	b26b      	sxtb	r3, r5
 8000fd6:	d501      	bpl.n	8000fdc <socket+0x100>
 8000fd8:	2b00      	cmp	r3, #0
 8000fda:	daf7      	bge.n	8000fcc <socket+0xf0>
 8000fdc:	06ea      	lsls	r2, r5, #27
 8000fde:	d5a4      	bpl.n	8000f2a <socket+0x4e>
 8000fe0:	2b00      	cmp	r3, #0
 8000fe2:	dba2      	blt.n	8000f2a <socket+0x4e>
 8000fe4:	e7f2      	b.n	8000fcc <socket+0xf0>
 8000fe6:	f04f 30ff 	mov.w	r0, #4294967295
 8000fea:	e792      	b.n	8000f12 <socket+0x36>
 8000fec:	20000004 	.word	0x20000004
 8000ff0:	2000044c 	.word	0x2000044c
 8000ff4:	2000044e 	.word	0x2000044e
 8000ff8:	20000458 	.word	0x20000458
 8000ffc:	20000450 	.word	0x20000450

08001000 <connect>:
 8001000:	2808      	cmp	r0, #8
 8001002:	e92d 43f8 	stmdb	sp!, {r3, r4, r5, r6, r7, r8, r9, lr}
 8001006:	4606      	mov	r6, r0
 8001008:	460d      	mov	r5, r1
 800100a:	4617      	mov	r7, r2
 800100c:	d861      	bhi.n	80010d2 <connect+0xd2>
 800100e:	f04f 0904 	mov.w	r9, #4
 8001012:	2401      	movs	r4, #1
 8001014:	fb19 4400 	smlabb	r4, r9, r0, r4
 8001018:	00e4      	lsls	r4, r4, #3
 800101a:	4620      	mov	r0, r4
 800101c:	f000 fc30 	bl	8001880 <WIZCHIP_READ>
 8001020:	f000 000f 	and.w	r0, r0, #15
 8001024:	2801      	cmp	r0, #1
 8001026:	d157      	bne.n	80010d8 <connect+0xd8>
 8001028:	f504 7840 	add.w	r8, r4, #768	; 0x300
 800102c:	4640      	mov	r0, r8
 800102e:	f000 fc27 	bl	8001880 <WIZCHIP_READ>
 8001032:	2813      	cmp	r0, #19
 8001034:	d153      	bne.n	80010de <connect+0xde>
 8001036:	782b      	ldrb	r3, [r5, #0]
 8001038:	786a      	ldrb	r2, [r5, #1]
 800103a:	eb02 2203 	add.w	r2, r2, r3, lsl #8
 800103e:	78ab      	ldrb	r3, [r5, #2]
 8001040:	eb03 2202 	add.w	r2, r3, r2, lsl #8
 8001044:	78eb      	ldrb	r3, [r5, #3]
 8001046:	3b01      	subs	r3, #1
 8001048:	eb03 2302 	add.w	r3, r3, r2, lsl #8
 800104c:	3303      	adds	r3, #3
 800104e:	d849      	bhi.n	80010e4 <connect+0xe4>
 8001050:	2f00      	cmp	r7, #0
 8001052:	d04a      	beq.n	80010ea <connect+0xea>
 8001054:	464a      	mov	r2, r9
 8001056:	4629      	mov	r1, r5
 8001058:	f504 6040 	add.w	r0, r4, #3072	; 0xc00
 800105c:	f000 fcaa 	bl	80019b4 <WIZCHIP_WRITE_BUF>
 8001060:	0a39      	lsrs	r1, r7, #8
 8001062:	f504 5080 	add.w	r0, r4, #4096	; 0x1000
 8001066:	f000 fc39 	bl	80018dc <WIZCHIP_WRITE>
 800106a:	f504 7580 	add.w	r5, r4, #256	; 0x100
 800106e:	b2f9      	uxtb	r1, r7
 8001070:	f504 5088 	add.w	r0, r4, #4352	; 0x1100
 8001074:	f000 fc32 	bl	80018dc <WIZCHIP_WRITE>
 8001078:	4649      	mov	r1, r9
 800107a:	4628      	mov	r0, r5
 800107c:	f000 fc2e 	bl	80018dc <WIZCHIP_WRITE>
 8001080:	4628      	mov	r0, r5
 8001082:	f000 fbfd 	bl	8001880 <WIZCHIP_READ>
 8001086:	2800      	cmp	r0, #0
 8001088:	d1fa      	bne.n	8001080 <connect+0x80>
 800108a:	4b19      	ldr	r3, [pc, #100]	; (80010f0 <connect+0xf0>)
 800108c:	881b      	ldrh	r3, [r3, #0]
 800108e:	fa43 f606 	asr.w	r6, r3, r6
 8001092:	07f2      	lsls	r2, r6, #31
 8001094:	d413      	bmi.n	80010be <connect+0xbe>
 8001096:	f504 7400 	add.w	r4, r4, #512	; 0x200
 800109a:	4640      	mov	r0, r8
 800109c:	f000 fbf0 	bl	8001880 <WIZCHIP_READ>
 80010a0:	2817      	cmp	r0, #23
 80010a2:	d101      	bne.n	80010a8 <connect+0xa8>
 80010a4:	2001      	movs	r0, #1
 80010a6:	e00a      	b.n	80010be <connect+0xbe>
 80010a8:	4620      	mov	r0, r4
 80010aa:	f000 fbe9 	bl	8001880 <WIZCHIP_READ>
 80010ae:	0703      	lsls	r3, r0, #28
 80010b0:	d507      	bpl.n	80010c2 <connect+0xc2>
 80010b2:	4620      	mov	r0, r4
 80010b4:	2108      	movs	r1, #8
 80010b6:	f000 fc11 	bl	80018dc <WIZCHIP_WRITE>
 80010ba:	f06f 000c 	mvn.w	r0, #12
 80010be:	e8bd 83f8 	ldmia.w	sp!, {r3, r4, r5, r6, r7, r8, r9, pc}
 80010c2:	4640      	mov	r0, r8
 80010c4:	f000 fbdc 	bl	8001880 <WIZCHIP_READ>
 80010c8:	2800      	cmp	r0, #0
 80010ca:	d1e6      	bne.n	800109a <connect+0x9a>
 80010cc:	f06f 0003 	mvn.w	r0, #3
 80010d0:	e7f5      	b.n	80010be <connect+0xbe>
 80010d2:	f04f 30ff 	mov.w	r0, #4294967295
 80010d6:	e7f2      	b.n	80010be <connect+0xbe>
 80010d8:	f06f 0004 	mvn.w	r0, #4
 80010dc:	e7ef      	b.n	80010be <connect+0xbe>
 80010de:	f06f 0002 	mvn.w	r0, #2
 80010e2:	e7ec      	b.n	80010be <connect+0xbe>
 80010e4:	f06f 000b 	mvn.w	r0, #11
 80010e8:	e7e9      	b.n	80010be <connect+0xbe>
 80010ea:	f06f 000a 	mvn.w	r0, #10
 80010ee:	e7e6      	b.n	80010be <connect+0xbe>
 80010f0:	2000044c 	.word	0x2000044c

080010f4 <send>:
 80010f4:	2808      	cmp	r0, #8
 80010f6:	e92d 4ff8 	stmdb	sp!, {r3, r4, r5, r6, r7, r8, r9, sl, fp, lr}
 80010fa:	4606      	mov	r6, r0
 80010fc:	4688      	mov	r8, r1
 80010fe:	4692      	mov	sl, r2
 8001100:	d875      	bhi.n	80011ee <send+0xfa>
 8001102:	0145      	lsls	r5, r0, #5
 8001104:	3508      	adds	r5, #8
 8001106:	4628      	mov	r0, r5
 8001108:	f000 fbba 	bl	8001880 <WIZCHIP_READ>
 800110c:	f000 000f 	and.w	r0, r0, #15
 8001110:	2801      	cmp	r0, #1
 8001112:	d16f      	bne.n	80011f4 <send+0x100>
 8001114:	f1ba 0f00 	cmp.w	sl, #0
 8001118:	d06f      	beq.n	80011fa <send+0x106>
 800111a:	f505 7940 	add.w	r9, r5, #768	; 0x300
 800111e:	4648      	mov	r0, r9
 8001120:	f000 fbae 	bl	8001880 <WIZCHIP_READ>
 8001124:	2817      	cmp	r0, #23
 8001126:	d001      	beq.n	800112c <send+0x38>
 8001128:	281c      	cmp	r0, #28
 800112a:	d132      	bne.n	8001192 <send+0x9e>
 800112c:	4f34      	ldr	r7, [pc, #208]	; (8001200 <send+0x10c>)
 800112e:	883b      	ldrh	r3, [r7, #0]
 8001130:	4133      	asrs	r3, r6
 8001132:	07d9      	lsls	r1, r3, #31
 8001134:	d511      	bpl.n	800115a <send+0x66>
 8001136:	f505 7400 	add.w	r4, r5, #512	; 0x200
 800113a:	4620      	mov	r0, r4
 800113c:	f000 fba0 	bl	8001880 <WIZCHIP_READ>
 8001140:	06c2      	lsls	r2, r0, #27
 8001142:	d529      	bpl.n	8001198 <send+0xa4>
 8001144:	2110      	movs	r1, #16
 8001146:	4620      	mov	r0, r4
 8001148:	f000 fbc8 	bl	80018dc <WIZCHIP_WRITE>
 800114c:	2301      	movs	r3, #1
 800114e:	fa03 f206 	lsl.w	r2, r3, r6
 8001152:	883b      	ldrh	r3, [r7, #0]
 8001154:	ea23 0302 	bic.w	r3, r3, r2
 8001158:	803b      	strh	r3, [r7, #0]
 800115a:	f505 50f8 	add.w	r0, r5, #7936	; 0x1f00
 800115e:	f000 fb8f 	bl	8001880 <WIZCHIP_READ>
 8001162:	0283      	lsls	r3, r0, #10
 8001164:	b29c      	uxth	r4, r3
 8001166:	4554      	cmp	r4, sl
 8001168:	bf28      	it	cs
 800116a:	4654      	movcs	r4, sl
 800116c:	f04f 0a01 	mov.w	sl, #1
 8001170:	fa0a fa06 	lsl.w	sl, sl, r6
 8001174:	4630      	mov	r0, r6
 8001176:	f000 fc57 	bl	8001a28 <getSn_TX_FSR>
 800117a:	4683      	mov	fp, r0
 800117c:	4648      	mov	r0, r9
 800117e:	f000 fb7f 	bl	8001880 <WIZCHIP_READ>
 8001182:	2817      	cmp	r0, #23
 8001184:	4b1f      	ldr	r3, [pc, #124]	; (8001204 <send+0x110>)
 8001186:	d012      	beq.n	80011ae <send+0xba>
 8001188:	281c      	cmp	r0, #28
 800118a:	d010      	beq.n	80011ae <send+0xba>
 800118c:	4630      	mov	r0, r6
 800118e:	f7ff fe67 	bl	8000e60 <close>
 8001192:	f06f 0006 	mvn.w	r0, #6
 8001196:	e002      	b.n	800119e <send+0xaa>
 8001198:	0703      	lsls	r3, r0, #28
 800119a:	d402      	bmi.n	80011a2 <send+0xae>
 800119c:	2000      	movs	r0, #0
 800119e:	e8bd 8ff8 	ldmia.w	sp!, {r3, r4, r5, r6, r7, r8, r9, sl, fp, pc}
 80011a2:	4630      	mov	r0, r6
 80011a4:	f7ff fe5c 	bl	8000e60 <close>
 80011a8:	f06f 000c 	mvn.w	r0, #12
 80011ac:	e7f7      	b.n	800119e <send+0xaa>
 80011ae:	881a      	ldrh	r2, [r3, #0]
 80011b0:	ea12 0f0a 	tst.w	r2, sl
 80011b4:	d018      	beq.n	80011e8 <send+0xf4>
 80011b6:	455c      	cmp	r4, fp
 80011b8:	d8f0      	bhi.n	800119c <send+0xa8>
 80011ba:	4641      	mov	r1, r8
 80011bc:	4630      	mov	r0, r6
 80011be:	4622      	mov	r2, r4
 80011c0:	f505 7580 	add.w	r5, r5, #256	; 0x100
 80011c4:	f000 fc76 	bl	8001ab4 <wiz_send_data>
 80011c8:	2120      	movs	r1, #32
 80011ca:	4628      	mov	r0, r5
 80011cc:	f000 fb86 	bl	80018dc <WIZCHIP_WRITE>
 80011d0:	4628      	mov	r0, r5
 80011d2:	f000 fb55 	bl	8001880 <WIZCHIP_READ>
 80011d6:	2800      	cmp	r0, #0
 80011d8:	d1fa      	bne.n	80011d0 <send+0xdc>
 80011da:	883b      	ldrh	r3, [r7, #0]
 80011dc:	ea4a 0a03 	orr.w	sl, sl, r3
 80011e0:	f8a7 a000 	strh.w	sl, [r7]
 80011e4:	4620      	mov	r0, r4
 80011e6:	e7da      	b.n	800119e <send+0xaa>
 80011e8:	455c      	cmp	r4, fp
 80011ea:	d8c3      	bhi.n	8001174 <send+0x80>
 80011ec:	e7e5      	b.n	80011ba <send+0xc6>
 80011ee:	f04f 30ff 	mov.w	r0, #4294967295
 80011f2:	e7d4      	b.n	800119e <send+0xaa>
 80011f4:	f06f 0004 	mvn.w	r0, #4
 80011f8:	e7d1      	b.n	800119e <send+0xaa>
 80011fa:	f06f 000d 	mvn.w	r0, #13
 80011fe:	e7ce      	b.n	800119e <send+0xaa>
 8001200:	2000044e 	.word	0x2000044e
 8001204:	2000044c 	.word	0x2000044c

08001208 <recv>:
 8001208:	2808      	cmp	r0, #8
 800120a:	e92d 4ff7 	stmdb	sp!, {r0, r1, r2, r4, r5, r6, r7, r8, r9, sl, fp, lr}
 800120e:	4683      	mov	fp, r0
 8001210:	4688      	mov	r8, r1
 8001212:	4617      	mov	r7, r2
 8001214:	d85a      	bhi.n	80012cc <recv+0xc4>
 8001216:	0145      	lsls	r5, r0, #5
 8001218:	3508      	adds	r5, #8
 800121a:	4628      	mov	r0, r5
 800121c:	f000 fb30 	bl	8001880 <WIZCHIP_READ>
 8001220:	f000 060f 	and.w	r6, r0, #15
 8001224:	2e01      	cmp	r6, #1
 8001226:	d154      	bne.n	80012d2 <recv+0xca>
 8001228:	2f00      	cmp	r7, #0
 800122a:	d055      	beq.n	80012d8 <recv+0xd0>
 800122c:	f505 50f0 	add.w	r0, r5, #7680	; 0x1e00
 8001230:	f000 fb26 	bl	8001880 <WIZCHIP_READ>
 8001234:	fa06 f60b 	lsl.w	r6, r6, fp
 8001238:	9000      	str	r0, [sp, #0]
 800123a:	f505 7940 	add.w	r9, r5, #768	; 0x300
 800123e:	f505 5af8 	add.w	sl, r5, #7936	; 0x1f00
 8001242:	4658      	mov	r0, fp
 8001244:	f000 fc13 	bl	8001a6e <getSn_RX_RSR>
 8001248:	4604      	mov	r4, r0
 800124a:	4648      	mov	r0, r9
 800124c:	f000 fb18 	bl	8001880 <WIZCHIP_READ>
 8001250:	2817      	cmp	r0, #23
 8001252:	d015      	beq.n	8001280 <recv+0x78>
 8001254:	281c      	cmp	r0, #28
 8001256:	d10b      	bne.n	8001270 <recv+0x68>
 8001258:	b9dc      	cbnz	r4, 8001292 <recv+0x8a>
 800125a:	4658      	mov	r0, fp
 800125c:	f000 fbe4 	bl	8001a28 <getSn_TX_FSR>
 8001260:	9001      	str	r0, [sp, #4]
 8001262:	4650      	mov	r0, sl
 8001264:	f000 fb0c 	bl	8001880 <WIZCHIP_READ>
 8001268:	9901      	ldr	r1, [sp, #4]
 800126a:	ebb1 2f80 	cmp.w	r1, r0, lsl #10
 800126e:	d107      	bne.n	8001280 <recv+0x78>
 8001270:	4658      	mov	r0, fp
 8001272:	f7ff fdf5 	bl	8000e60 <close>
 8001276:	f06f 0006 	mvn.w	r0, #6
 800127a:	b003      	add	sp, #12
 800127c:	e8bd 8ff0 	ldmia.w	sp!, {r4, r5, r6, r7, r8, r9, sl, fp, pc}
 8001280:	4b17      	ldr	r3, [pc, #92]	; (80012e0 <recv+0xd8>)
 8001282:	8819      	ldrh	r1, [r3, #0]
 8001284:	4231      	tst	r1, r6
 8001286:	d002      	beq.n	800128e <recv+0x86>
 8001288:	b91c      	cbnz	r4, 8001292 <recv+0x8a>
 800128a:	4620      	mov	r0, r4
 800128c:	e7f5      	b.n	800127a <recv+0x72>
 800128e:	2c00      	cmp	r4, #0
 8001290:	d0d7      	beq.n	8001242 <recv+0x3a>
 8001292:	9b00      	ldr	r3, [sp, #0]
 8001294:	0298      	lsls	r0, r3, #10
 8001296:	b280      	uxth	r0, r0
 8001298:	4287      	cmp	r7, r0
 800129a:	bf28      	it	cs
 800129c:	4607      	movcs	r7, r0
 800129e:	42a7      	cmp	r7, r4
 80012a0:	4638      	mov	r0, r7
 80012a2:	bf28      	it	cs
 80012a4:	4620      	movcs	r0, r4
 80012a6:	b287      	uxth	r7, r0
 80012a8:	4641      	mov	r1, r8
 80012aa:	4658      	mov	r0, fp
 80012ac:	463a      	mov	r2, r7
 80012ae:	f505 7580 	add.w	r5, r5, #256	; 0x100
 80012b2:	f000 fc2e 	bl	8001b12 <wiz_recv_data>
 80012b6:	2140      	movs	r1, #64	; 0x40
 80012b8:	4628      	mov	r0, r5
 80012ba:	f000 fb0f 	bl	80018dc <WIZCHIP_WRITE>
 80012be:	4628      	mov	r0, r5
 80012c0:	f000 fade 	bl	8001880 <WIZCHIP_READ>
 80012c4:	2800      	cmp	r0, #0
 80012c6:	d1fa      	bne.n	80012be <recv+0xb6>
 80012c8:	4638      	mov	r0, r7
 80012ca:	e7d6      	b.n	800127a <recv+0x72>
 80012cc:	f04f 30ff 	mov.w	r0, #4294967295
 80012d0:	e7d3      	b.n	800127a <recv+0x72>
 80012d2:	f06f 0004 	mvn.w	r0, #4
 80012d6:	e7d0      	b.n	800127a <recv+0x72>
 80012d8:	f06f 000d 	mvn.w	r0, #13
 80012dc:	e7cd      	b.n	800127a <recv+0x72>
 80012de:	bf00      	nop
 80012e0:	2000044c 	.word	0x2000044c

080012e4 <getsockopt>:
 80012e4:	2808      	cmp	r0, #8
 80012e6:	b5f8      	push	{r3, r4, r5, r6, r7, lr}
 80012e8:	4604      	mov	r4, r0
 80012ea:	4616      	mov	r6, r2
 80012ec:	f200 808c 	bhi.w	8001408 <getsockopt+0x124>
 80012f0:	290c      	cmp	r1, #12
 80012f2:	f200 808c 	bhi.w	800140e <getsockopt+0x12a>
 80012f6:	e8df f001 	tbb	[pc, r1]
 80012fa:	1207      	.short	0x1207
 80012fc:	3e33221b 	.word	0x3e33221b
 8001300:	605b4a8a 	.word	0x605b4a8a
 8001304:	6a63      	.short	0x6a63
 8001306:	7b          	.byte	0x7b
 8001307:	00          	.byte	0x00
 8001308:	2501      	movs	r5, #1
 800130a:	eb05 0080 	add.w	r0, r5, r0, lsl #2
 800130e:	00c0      	lsls	r0, r0, #3
 8001310:	f000 fab6 	bl	8001880 <WIZCHIP_READ>
 8001314:	f020 000f 	bic.w	r0, r0, #15
 8001318:	7030      	strb	r0, [r6, #0]
 800131a:	4628      	mov	r0, r5
 800131c:	bdf8      	pop	{r3, r4, r5, r6, r7, pc}
 800131e:	2501      	movs	r5, #1
 8001320:	eb05 0080 	add.w	r0, r5, r0, lsl #2
 8001324:	00c0      	lsls	r0, r0, #3
 8001326:	f500 50b0 	add.w	r0, r0, #5632	; 0x1600
 800132a:	f000 faa9 	bl	8001880 <WIZCHIP_READ>
 800132e:	e7f3      	b.n	8001318 <getsockopt+0x34>
 8001330:	2501      	movs	r5, #1
 8001332:	eb05 0080 	add.w	r0, r5, r0, lsl #2
 8001336:	00c0      	lsls	r0, r0, #3
 8001338:	f500 50a8 	add.w	r0, r0, #5376	; 0x1500
 800133c:	e7f5      	b.n	800132a <getsockopt+0x46>
 800133e:	2501      	movs	r5, #1
 8001340:	eb05 0480 	add.w	r4, r5, r0, lsl #2
 8001344:	00e4      	lsls	r4, r4, #3
 8001346:	f504 5090 	add.w	r0, r4, #4608	; 0x1200
 800134a:	f000 fa99 	bl	8001880 <WIZCHIP_READ>
 800134e:	4607      	mov	r7, r0
 8001350:	f504 5098 	add.w	r0, r4, #4864	; 0x1300
 8001354:	f000 fa94 	bl	8001880 <WIZCHIP_READ>
 8001358:	eb00 2007 	add.w	r0, r0, r7, lsl #8
 800135c:	8030      	strh	r0, [r6, #0]
 800135e:	e7dc      	b.n	800131a <getsockopt+0x36>
 8001360:	2204      	movs	r2, #4
 8001362:	2501      	movs	r5, #1
 8001364:	fb12 5000 	smlabb	r0, r2, r0, r5
 8001368:	00c0      	lsls	r0, r0, #3
 800136a:	4631      	mov	r1, r6
 800136c:	f500 6040 	add.w	r0, r0, #3072	; 0xc00
 8001370:	f000 fae6 	bl	8001940 <WIZCHIP_READ_BUF>
 8001374:	e7d1      	b.n	800131a <getsockopt+0x36>
 8001376:	2501      	movs	r5, #1
 8001378:	eb05 0480 	add.w	r4, r5, r0, lsl #2
 800137c:	00e4      	lsls	r4, r4, #3
 800137e:	f504 5080 	add.w	r0, r4, #4096	; 0x1000
 8001382:	f000 fa7d 	bl	8001880 <WIZCHIP_READ>
 8001386:	4607      	mov	r7, r0
 8001388:	f504 5088 	add.w	r0, r4, #4352	; 0x1100
 800138c:	e7e2      	b.n	8001354 <getsockopt+0x70>
 800138e:	0144      	lsls	r4, r0, #5
 8001390:	3408      	adds	r4, #8
 8001392:	4620      	mov	r0, r4
 8001394:	f000 fa74 	bl	8001880 <WIZCHIP_READ>
 8001398:	f000 050f 	and.w	r5, r0, #15
 800139c:	2d01      	cmp	r5, #1
 800139e:	d002      	beq.n	80013a6 <getsockopt+0xc2>
 80013a0:	f06f 0504 	mvn.w	r5, #4
 80013a4:	e7b9      	b.n	800131a <getsockopt+0x36>
 80013a6:	f504 503c 	add.w	r0, r4, #12032	; 0x2f00
 80013aa:	f000 fa69 	bl	8001880 <WIZCHIP_READ>
 80013ae:	e7d5      	b.n	800135c <getsockopt+0x78>
 80013b0:	f000 fb3a 	bl	8001a28 <getSn_TX_FSR>
 80013b4:	8030      	strh	r0, [r6, #0]
 80013b6:	2501      	movs	r5, #1
 80013b8:	e7af      	b.n	800131a <getsockopt+0x36>
 80013ba:	f000 fb58 	bl	8001a6e <getSn_RX_RSR>
 80013be:	e7f9      	b.n	80013b4 <getsockopt+0xd0>
 80013c0:	2501      	movs	r5, #1
 80013c2:	eb05 0080 	add.w	r0, r5, r0, lsl #2
 80013c6:	00c0      	lsls	r0, r0, #3
 80013c8:	f500 7040 	add.w	r0, r0, #768	; 0x300
 80013cc:	e7ad      	b.n	800132a <getsockopt+0x46>
 80013ce:	2501      	movs	r5, #1
 80013d0:	eb05 0080 	add.w	r0, r5, r0, lsl #2
 80013d4:	00c0      	lsls	r0, r0, #3
 80013d6:	f000 fa53 	bl	8001880 <WIZCHIP_READ>
 80013da:	07c3      	lsls	r3, r0, #31
 80013dc:	d503      	bpl.n	80013e6 <getsockopt+0x102>
 80013de:	4620      	mov	r0, r4
 80013e0:	f000 fb45 	bl	8001a6e <getSn_RX_RSR>
 80013e4:	e7ba      	b.n	800135c <getsockopt+0x78>
 80013e6:	4b0b      	ldr	r3, [pc, #44]	; (8001414 <getsockopt+0x130>)
 80013e8:	f833 3014 	ldrh.w	r3, [r3, r4, lsl #1]
 80013ec:	8033      	strh	r3, [r6, #0]
 80013ee:	e794      	b.n	800131a <getsockopt+0x36>
 80013f0:	2501      	movs	r5, #1
 80013f2:	eb05 0080 	add.w	r0, r5, r0, lsl #2
 80013f6:	00c0      	lsls	r0, r0, #3
 80013f8:	f000 fa42 	bl	8001880 <WIZCHIP_READ>
 80013fc:	42a8      	cmp	r0, r5
 80013fe:	d0cf      	beq.n	80013a0 <getsockopt+0xbc>
 8001400:	4b05      	ldr	r3, [pc, #20]	; (8001418 <getsockopt+0x134>)
 8001402:	5d1b      	ldrb	r3, [r3, r4]
 8001404:	7033      	strb	r3, [r6, #0]
 8001406:	e788      	b.n	800131a <getsockopt+0x36>
 8001408:	f04f 35ff 	mov.w	r5, #4294967295
 800140c:	e785      	b.n	800131a <getsockopt+0x36>
 800140e:	f06f 0501 	mvn.w	r5, #1
 8001412:	e782      	b.n	800131a <getsockopt+0x36>
 8001414:	20000458 	.word	0x20000458
 8001418:	20000450 	.word	0x20000450

0800141c <Get_state>:
 800141c:	4b01      	ldr	r3, [pc, #4]	; (8001424 <Get_state+0x8>)
 800141e:	7818      	ldrb	r0, [r3, #0]
 8001420:	4770      	bx	lr
 8001422:	bf00      	nop
 8001424:	20000006 	.word	0x20000006

08001428 <Set_state>:
 8001428:	4b01      	ldr	r3, [pc, #4]	; (8001430 <Set_state+0x8>)
 800142a:	7018      	strb	r0, [r3, #0]
 800142c:	4770      	bx	lr
 800142e:	bf00      	nop
 8001430:	20000006 	.word	0x20000006

08001434 <Initilisation_State_Handler>:
 8001434:	b510      	push	{r4, lr}
 8001436:	4c17      	ldr	r4, [pc, #92]	; (8001494 <Initilisation_State_Handler+0x60>)
 8001438:	2001      	movs	r0, #1
 800143a:	f7ff fff5 	bl	8001428 <Set_state>
 800143e:	f7ff f9f7 	bl	8000830 <Reset_event>
 8001442:	f7ff f969 	bl	8000718 <Init_Ethernet>
 8001446:	4621      	mov	r1, r4
 8001448:	200f      	movs	r0, #15
 800144a:	f000 fd31 	bl	8001eb0 <ctlwizchip>
 800144e:	7824      	ldrb	r4, [r4, #0]
 8001450:	b924      	cbnz	r4, 800145c <Initilisation_State_Handler+0x28>
 8001452:	e8bd 4010 	ldmia.w	sp!, {r4, lr}
 8001456:	2001      	movs	r0, #1
 8001458:	f7ff bfe6 	b.w	8001428 <Set_state>
 800145c:	2c01      	cmp	r4, #1
 800145e:	d117      	bne.n	8001490 <Initilisation_State_Handler+0x5c>
 8001460:	f44f 70fa 	mov.w	r0, #500	; 0x1f4
 8001464:	f000 fe60 	bl	8002128 <HAL_Delay>
 8001468:	2064      	movs	r0, #100	; 0x64
 800146a:	f000 fe5d 	bl	8002128 <HAL_Delay>
 800146e:	f7ff f9cb 	bl	8000808 <Refresh_Watchdog>
 8001472:	f7ff f99d 	bl	80007b0 <Ethernet_Connect>
 8001476:	2064      	movs	r0, #100	; 0x64
 8001478:	f000 fe56 	bl	8002128 <HAL_Delay>
 800147c:	4906      	ldr	r1, [pc, #24]	; (8001498 <Initilisation_State_Handler+0x64>)
 800147e:	2209      	movs	r2, #9
 8001480:	2000      	movs	r0, #0
 8001482:	f7ff fe37 	bl	80010f4 <send>
 8001486:	4620      	mov	r0, r4
 8001488:	e8bd 4010 	ldmia.w	sp!, {r4, lr}
 800148c:	f7ff b9ca 	b.w	8000824 <Set_event>
 8001490:	bd10      	pop	{r4, pc}
 8001492:	bf00      	nop
 8001494:	2000023e 	.word	0x2000023e
 8001498:	080044fc 	.word	0x080044fc

0800149c <Reset_State_Handler>:
 800149c:	b510      	push	{r4, lr}
 800149e:	2002      	movs	r0, #2
 80014a0:	f7ff ffc2 	bl	8001428 <Set_state>
 80014a4:	f7ff f9c4 	bl	8000830 <Reset_event>
 80014a8:	4915      	ldr	r1, [pc, #84]	; (8001500 <Reset_State_Handler+0x64>)
 80014aa:	4816      	ldr	r0, [pc, #88]	; (8001504 <Reset_State_Handler+0x68>)
 80014ac:	2304      	movs	r3, #4
 80014ae:	22c8      	movs	r2, #200	; 0xc8
 80014b0:	f7ff fc78 	bl	8000da4 <RingInit>
 80014b4:	4914      	ldr	r1, [pc, #80]	; (8001508 <Reset_State_Handler+0x6c>)
 80014b6:	4815      	ldr	r0, [pc, #84]	; (800150c <Reset_State_Handler+0x70>)
 80014b8:	2304      	movs	r3, #4
 80014ba:	22c8      	movs	r2, #200	; 0xc8
 80014bc:	f7ff fc72 	bl	8000da4 <RingInit>
 80014c0:	4913      	ldr	r1, [pc, #76]	; (8001510 <Reset_State_Handler+0x74>)
 80014c2:	4814      	ldr	r0, [pc, #80]	; (8001514 <Reset_State_Handler+0x78>)
 80014c4:	22c8      	movs	r2, #200	; 0xc8
 80014c6:	2304      	movs	r3, #4
 80014c8:	f7ff fc6c 	bl	8000da4 <RingInit>
 80014cc:	4b12      	ldr	r3, [pc, #72]	; (8001518 <Reset_State_Handler+0x7c>)
 80014ce:	2400      	movs	r4, #0
 80014d0:	601c      	str	r4, [r3, #0]
 80014d2:	4b12      	ldr	r3, [pc, #72]	; (800151c <Reset_State_Handler+0x80>)
 80014d4:	601c      	str	r4, [r3, #0]
 80014d6:	4b12      	ldr	r3, [pc, #72]	; (8001520 <Reset_State_Handler+0x84>)
 80014d8:	601c      	str	r4, [r3, #0]
 80014da:	f7ff f9cf 	bl	800087c <Timer2_Stop>
 80014de:	f7ff f9fb 	bl	80008d8 <Timer6_Stop>
 80014e2:	f7ff f9d1 	bl	8000888 <Timer2_DeInitilized>
 80014e6:	f7ff f9dd 	bl	80008a4 <Timer2_Initilized>
 80014ea:	4b0e      	ldr	r3, [pc, #56]	; (8001524 <Reset_State_Handler+0x88>)
 80014ec:	801c      	strh	r4, [r3, #0]
 80014ee:	4b0e      	ldr	r3, [pc, #56]	; (8001528 <Reset_State_Handler+0x8c>)
 80014f0:	801c      	strh	r4, [r3, #0]
 80014f2:	4b0e      	ldr	r3, [pc, #56]	; (800152c <Reset_State_Handler+0x90>)
 80014f4:	2002      	movs	r0, #2
 80014f6:	801c      	strh	r4, [r3, #0]
 80014f8:	e8bd 4010 	ldmia.w	sp!, {r4, lr}
 80014fc:	f7ff b992 	b.w	8000824 <Set_event>
 8001500:	20000b08 	.word	0x20000b08
 8001504:	20000ae8 	.word	0x20000ae8
 8001508:	200007c8 	.word	0x200007c8
 800150c:	200007a8 	.word	0x200007a8
 8001510:	20000488 	.word	0x20000488
 8001514:	20000468 	.word	0x20000468
 8001518:	200001d8 	.word	0x200001d8
 800151c:	200001d0 	.word	0x200001d0
 8001520:	200000c4 	.word	0x200000c4
 8001524:	200000c0 	.word	0x200000c0
 8001528:	200000cc 	.word	0x200000cc
 800152c:	200001ce 	.word	0x200001ce

08001530 <Idle_State_Handler>:
 8001530:	b508      	push	{r3, lr}
 8001532:	2003      	movs	r0, #3
 8001534:	f7ff ff78 	bl	8001428 <Set_state>
 8001538:	e8bd 4008 	ldmia.w	sp!, {r3, lr}
 800153c:	f7ff b978 	b.w	8000830 <Reset_event>

08001540 <WRSide_Train_Presence_State_Handler>:
 8001540:	b508      	push	{r3, lr}
 8001542:	4b05      	ldr	r3, [pc, #20]	; (8001558 <WRSide_Train_Presence_State_Handler+0x18>)
 8001544:	2b04      	cmp	r3, #4
 8001546:	d006      	beq.n	8001556 <WRSide_Train_Presence_State_Handler+0x16>
 8001548:	2004      	movs	r0, #4
 800154a:	f7ff ff6d 	bl	8001428 <Set_state>
 800154e:	e8bd 4008 	ldmia.w	sp!, {r3, lr}
 8001552:	f7ff b96d 	b.w	8000830 <Reset_event>
 8001556:	bd08      	pop	{r3, pc}
 8001558:	0800141d 	.word	0x0800141d

0800155c <WLSide_Train_Presence_State_Handler>:
 800155c:	b508      	push	{r3, lr}
 800155e:	4b05      	ldr	r3, [pc, #20]	; (8001574 <WLSide_Train_Presence_State_Handler+0x18>)
 8001560:	2b05      	cmp	r3, #5
 8001562:	d006      	beq.n	8001572 <WLSide_Train_Presence_State_Handler+0x16>
 8001564:	2005      	movs	r0, #5
 8001566:	f7ff ff5f 	bl	8001428 <Set_state>
 800156a:	e8bd 4008 	ldmia.w	sp!, {r3, lr}
 800156e:	f7ff b95f 	b.w	8000830 <Reset_event>
 8001572:	bd08      	pop	{r3, pc}
 8001574:	0800141d 	.word	0x0800141d

08001578 <Train_Exit_State_Handler>:
 8001578:	b508      	push	{r3, lr}
 800157a:	2006      	movs	r0, #6
 800157c:	f7ff ff54 	bl	8001428 <Set_state>
 8001580:	f7ff f956 	bl	8000830 <Reset_event>
 8001584:	e8bd 4008 	ldmia.w	sp!, {r3, lr}
 8001588:	2006      	movs	r0, #6
 800158a:	f7ff b94b 	b.w	8000824 <Set_event>

0800158e <Log_Data_State_Handler>:
 800158e:	b508      	push	{r3, lr}
 8001590:	2007      	movs	r0, #7
 8001592:	f7ff ff49 	bl	8001428 <Set_state>
 8001596:	f7ff f94b 	bl	8000830 <Reset_event>
 800159a:	f7fe ffe5 	bl	8000568 <Send_Data>
 800159e:	e8bd 4008 	ldmia.w	sp!, {r3, lr}
 80015a2:	2001      	movs	r0, #1
 80015a4:	f7ff b93e 	b.w	8000824 <Set_event>

080015a8 <HAL_MspInit>:
 80015a8:	4b0a      	ldr	r3, [pc, #40]	; (80015d4 <HAL_MspInit+0x2c>)
 80015aa:	699a      	ldr	r2, [r3, #24]
 80015ac:	f042 0201 	orr.w	r2, r2, #1
 80015b0:	619a      	str	r2, [r3, #24]
 80015b2:	699a      	ldr	r2, [r3, #24]
 80015b4:	b082      	sub	sp, #8
 80015b6:	f002 0201 	and.w	r2, r2, #1
 80015ba:	9200      	str	r2, [sp, #0]
 80015bc:	9a00      	ldr	r2, [sp, #0]
 80015be:	69da      	ldr	r2, [r3, #28]
 80015c0:	f042 5280 	orr.w	r2, r2, #268435456	; 0x10000000
 80015c4:	61da      	str	r2, [r3, #28]
 80015c6:	69db      	ldr	r3, [r3, #28]
 80015c8:	f003 5380 	and.w	r3, r3, #268435456	; 0x10000000
 80015cc:	9301      	str	r3, [sp, #4]
 80015ce:	9b01      	ldr	r3, [sp, #4]
 80015d0:	b002      	add	sp, #8
 80015d2:	4770      	bx	lr
 80015d4:	40021000 	.word	0x40021000

080015d8 <HAL_RTC_MspInit>:
 80015d8:	6802      	ldr	r2, [r0, #0]
 80015da:	4b07      	ldr	r3, [pc, #28]	; (80015f8 <HAL_RTC_MspInit+0x20>)
 80015dc:	429a      	cmp	r2, r3
 80015de:	d10a      	bne.n	80015f6 <HAL_RTC_MspInit+0x1e>
 80015e0:	f44f 4200 	mov.w	r2, #32768	; 0x8000
 80015e4:	fa92 f2a2 	rbit	r2, r2
 80015e8:	4b04      	ldr	r3, [pc, #16]	; (80015fc <HAL_RTC_MspInit+0x24>)
 80015ea:	fab2 f282 	clz	r2, r2
 80015ee:	4413      	add	r3, r2
 80015f0:	009b      	lsls	r3, r3, #2
 80015f2:	2201      	movs	r2, #1
 80015f4:	601a      	str	r2, [r3, #0]
 80015f6:	4770      	bx	lr
 80015f8:	40002800 	.word	0x40002800
 80015fc:	10908100 	.word	0x10908100

08001600 <HAL_SPI_MspInit>:
 8001600:	b570      	push	{r4, r5, r6, lr}
 8001602:	2214      	movs	r2, #20
 8001604:	b08a      	sub	sp, #40	; 0x28
 8001606:	4604      	mov	r4, r0
 8001608:	2100      	movs	r1, #0
 800160a:	eb0d 0002 	add.w	r0, sp, r2
 800160e:	f002 fdc7 	bl	80041a0 <memset>
 8001612:	6823      	ldr	r3, [r4, #0]
 8001614:	4a2d      	ldr	r2, [pc, #180]	; (80016cc <HAL_SPI_MspInit+0xcc>)
 8001616:	4293      	cmp	r3, r2
 8001618:	d137      	bne.n	800168a <HAL_SPI_MspInit+0x8a>
 800161a:	4b2d      	ldr	r3, [pc, #180]	; (80016d0 <HAL_SPI_MspInit+0xd0>)
 800161c:	482d      	ldr	r0, [pc, #180]	; (80016d4 <HAL_SPI_MspInit+0xd4>)
 800161e:	69da      	ldr	r2, [r3, #28]
 8001620:	f442 4280 	orr.w	r2, r2, #16384	; 0x4000
 8001624:	61da      	str	r2, [r3, #28]
 8001626:	69da      	ldr	r2, [r3, #28]
 8001628:	f402 4280 	and.w	r2, r2, #16384	; 0x4000
 800162c:	9200      	str	r2, [sp, #0]
 800162e:	9a00      	ldr	r2, [sp, #0]
 8001630:	695a      	ldr	r2, [r3, #20]
 8001632:	f442 2280 	orr.w	r2, r2, #262144	; 0x40000
 8001636:	615a      	str	r2, [r3, #20]
 8001638:	695a      	ldr	r2, [r3, #20]
 800163a:	f402 2280 	and.w	r2, r2, #262144	; 0x40000
 800163e:	9201      	str	r2, [sp, #4]
 8001640:	9a01      	ldr	r2, [sp, #4]
 8001642:	695a      	ldr	r2, [r3, #20]
 8001644:	f442 3200 	orr.w	r2, r2, #131072	; 0x20000
 8001648:	615a      	str	r2, [r3, #20]
 800164a:	695b      	ldr	r3, [r3, #20]
 800164c:	f403 3300 	and.w	r3, r3, #131072	; 0x20000
 8001650:	9302      	str	r3, [sp, #8]
 8001652:	9b02      	ldr	r3, [sp, #8]
 8001654:	2602      	movs	r6, #2
 8001656:	f44f 5300 	mov.w	r3, #8192	; 0x2000
 800165a:	2503      	movs	r5, #3
 800165c:	2405      	movs	r4, #5
 800165e:	a905      	add	r1, sp, #20
 8001660:	e9cd 3605 	strd	r3, r6, [sp, #20]
 8001664:	e9cd 5408 	strd	r5, r4, [sp, #32]
 8001668:	f000 fdec 	bl	8002244 <HAL_GPIO_Init>
 800166c:	f44f 6340 	mov.w	r3, #3072	; 0xc00
 8001670:	e9cd 3605 	strd	r3, r6, [sp, #20]
 8001674:	2300      	movs	r3, #0
 8001676:	e9cd 3507 	strd	r3, r5, [sp, #28]
 800167a:	9409      	str	r4, [sp, #36]	; 0x24
 800167c:	a905      	add	r1, sp, #20
 800167e:	f04f 4090 	mov.w	r0, #1207959552	; 0x48000000
 8001682:	f000 fddf 	bl	8002244 <HAL_GPIO_Init>
 8001686:	b00a      	add	sp, #40	; 0x28
 8001688:	bd70      	pop	{r4, r5, r6, pc}
 800168a:	4a13      	ldr	r2, [pc, #76]	; (80016d8 <HAL_SPI_MspInit+0xd8>)
 800168c:	4293      	cmp	r3, r2
 800168e:	d1fa      	bne.n	8001686 <HAL_SPI_MspInit+0x86>
 8001690:	4b0f      	ldr	r3, [pc, #60]	; (80016d0 <HAL_SPI_MspInit+0xd0>)
 8001692:	4810      	ldr	r0, [pc, #64]	; (80016d4 <HAL_SPI_MspInit+0xd4>)
 8001694:	69da      	ldr	r2, [r3, #28]
 8001696:	f442 4200 	orr.w	r2, r2, #32768	; 0x8000
 800169a:	61da      	str	r2, [r3, #28]
 800169c:	69da      	ldr	r2, [r3, #28]
 800169e:	f402 4200 	and.w	r2, r2, #32768	; 0x8000
 80016a2:	9203      	str	r2, [sp, #12]
 80016a4:	9a03      	ldr	r2, [sp, #12]
 80016a6:	695a      	ldr	r2, [r3, #20]
 80016a8:	f442 2280 	orr.w	r2, r2, #262144	; 0x40000
 80016ac:	615a      	str	r2, [r3, #20]
 80016ae:	695b      	ldr	r3, [r3, #20]
 80016b0:	f403 2380 	and.w	r3, r3, #262144	; 0x40000
 80016b4:	9304      	str	r3, [sp, #16]
 80016b6:	9b04      	ldr	r3, [sp, #16]
 80016b8:	2238      	movs	r2, #56	; 0x38
 80016ba:	2302      	movs	r3, #2
 80016bc:	2103      	movs	r1, #3
 80016be:	e9cd 2305 	strd	r2, r3, [sp, #20]
 80016c2:	2306      	movs	r3, #6
 80016c4:	e9cd 1308 	strd	r1, r3, [sp, #32]
 80016c8:	a905      	add	r1, sp, #20
 80016ca:	e7da      	b.n	8001682 <HAL_SPI_MspInit+0x82>
 80016cc:	40003800 	.word	0x40003800
 80016d0:	40021000 	.word	0x40021000
 80016d4:	48000400 	.word	0x48000400
 80016d8:	40003c00 	.word	0x40003c00

080016dc <HAL_TIM_Base_MspInit>:
 80016dc:	6803      	ldr	r3, [r0, #0]
 80016de:	f1b3 4f80 	cmp.w	r3, #1073741824	; 0x40000000
 80016e2:	b507      	push	{r0, r1, r2, lr}
 80016e4:	d10d      	bne.n	8001702 <HAL_TIM_Base_MspInit+0x26>
 80016e6:	f503 3304 	add.w	r3, r3, #135168	; 0x21000
 80016ea:	69da      	ldr	r2, [r3, #28]
 80016ec:	f042 0201 	orr.w	r2, r2, #1
 80016f0:	61da      	str	r2, [r3, #28]
 80016f2:	69db      	ldr	r3, [r3, #28]
 80016f4:	f003 0301 	and.w	r3, r3, #1
 80016f8:	9300      	str	r3, [sp, #0]
 80016fa:	9b00      	ldr	r3, [sp, #0]
 80016fc:	b003      	add	sp, #12
 80016fe:	f85d fb04 	ldr.w	pc, [sp], #4
 8001702:	4a0c      	ldr	r2, [pc, #48]	; (8001734 <HAL_TIM_Base_MspInit+0x58>)
 8001704:	4293      	cmp	r3, r2
 8001706:	d1f9      	bne.n	80016fc <HAL_TIM_Base_MspInit+0x20>
 8001708:	4b0b      	ldr	r3, [pc, #44]	; (8001738 <HAL_TIM_Base_MspInit+0x5c>)
 800170a:	69da      	ldr	r2, [r3, #28]
 800170c:	f042 0210 	orr.w	r2, r2, #16
 8001710:	61da      	str	r2, [r3, #28]
 8001712:	69db      	ldr	r3, [r3, #28]
 8001714:	2200      	movs	r2, #0
 8001716:	f003 0310 	and.w	r3, r3, #16
 800171a:	9301      	str	r3, [sp, #4]
 800171c:	4611      	mov	r1, r2
 800171e:	2036      	movs	r0, #54	; 0x36
 8001720:	9b01      	ldr	r3, [sp, #4]
 8001722:	f000 fd27 	bl	8002174 <HAL_NVIC_SetPriority>
 8001726:	2036      	movs	r0, #54	; 0x36
 8001728:	b003      	add	sp, #12
 800172a:	f85d eb04 	ldr.w	lr, [sp], #4
 800172e:	f000 bd53 	b.w	80021d8 <HAL_NVIC_EnableIRQ>
 8001732:	bf00      	nop
 8001734:	40001000 	.word	0x40001000
 8001738:	40021000 	.word	0x40021000

0800173c <HAL_TIM_Base_MspDeInit>:
 800173c:	6803      	ldr	r3, [r0, #0]
 800173e:	f1b3 4f80 	cmp.w	r3, #1073741824	; 0x40000000
 8001742:	d105      	bne.n	8001750 <HAL_TIM_Base_MspDeInit+0x14>
 8001744:	4a09      	ldr	r2, [pc, #36]	; (800176c <HAL_TIM_Base_MspDeInit+0x30>)
 8001746:	69d3      	ldr	r3, [r2, #28]
 8001748:	f023 0301 	bic.w	r3, r3, #1
 800174c:	61d3      	str	r3, [r2, #28]
 800174e:	4770      	bx	lr
 8001750:	4a07      	ldr	r2, [pc, #28]	; (8001770 <HAL_TIM_Base_MspDeInit+0x34>)
 8001752:	4293      	cmp	r3, r2
 8001754:	d108      	bne.n	8001768 <HAL_TIM_Base_MspDeInit+0x2c>
 8001756:	f502 3200 	add.w	r2, r2, #131072	; 0x20000
 800175a:	2036      	movs	r0, #54	; 0x36
 800175c:	69d3      	ldr	r3, [r2, #28]
 800175e:	f023 0310 	bic.w	r3, r3, #16
 8001762:	61d3      	str	r3, [r2, #28]
 8001764:	f000 bd46 	b.w	80021f4 <HAL_NVIC_DisableIRQ>
 8001768:	4770      	bx	lr
 800176a:	bf00      	nop
 800176c:	40021000 	.word	0x40021000
 8001770:	40001000 	.word	0x40001000

08001774 <HAL_UART_MspInit>:
 8001774:	b510      	push	{r4, lr}
 8001776:	4604      	mov	r4, r0
 8001778:	b088      	sub	sp, #32
 800177a:	2214      	movs	r2, #20
 800177c:	2100      	movs	r1, #0
 800177e:	a803      	add	r0, sp, #12
 8001780:	f002 fd0e 	bl	80041a0 <memset>
 8001784:	6822      	ldr	r2, [r4, #0]
 8001786:	4b13      	ldr	r3, [pc, #76]	; (80017d4 <HAL_UART_MspInit+0x60>)
 8001788:	429a      	cmp	r2, r3
 800178a:	d120      	bne.n	80017ce <HAL_UART_MspInit+0x5a>
 800178c:	f503 33e6 	add.w	r3, r3, #117760	; 0x1cc00
 8001790:	2103      	movs	r1, #3
 8001792:	69da      	ldr	r2, [r3, #28]
 8001794:	f442 3200 	orr.w	r2, r2, #131072	; 0x20000
 8001798:	61da      	str	r2, [r3, #28]
 800179a:	69da      	ldr	r2, [r3, #28]
 800179c:	f402 3200 	and.w	r2, r2, #131072	; 0x20000
 80017a0:	9201      	str	r2, [sp, #4]
 80017a2:	9a01      	ldr	r2, [sp, #4]
 80017a4:	695a      	ldr	r2, [r3, #20]
 80017a6:	f442 3200 	orr.w	r2, r2, #131072	; 0x20000
 80017aa:	615a      	str	r2, [r3, #20]
 80017ac:	695b      	ldr	r3, [r3, #20]
 80017ae:	f403 3300 	and.w	r3, r3, #131072	; 0x20000
 80017b2:	9302      	str	r3, [sp, #8]
 80017b4:	9b02      	ldr	r3, [sp, #8]
 80017b6:	220c      	movs	r2, #12
 80017b8:	2302      	movs	r3, #2
 80017ba:	e9cd 2303 	strd	r2, r3, [sp, #12]
 80017be:	2307      	movs	r3, #7
 80017c0:	e9cd 1306 	strd	r1, r3, [sp, #24]
 80017c4:	f04f 4090 	mov.w	r0, #1207959552	; 0x48000000
 80017c8:	a903      	add	r1, sp, #12
 80017ca:	f000 fd3b 	bl	8002244 <HAL_GPIO_Init>
 80017ce:	b008      	add	sp, #32
 80017d0:	bd10      	pop	{r4, pc}
 80017d2:	bf00      	nop
 80017d4:	40004400 	.word	0x40004400

080017d8 <NMI_Handler>:
 80017d8:	4770      	bx	lr

080017da <HardFault_Handler>:
 80017da:	e7fe      	b.n	80017da <HardFault_Handler>

080017dc <MemManage_Handler>:
 80017dc:	e7fe      	b.n	80017dc <MemManage_Handler>

080017de <BusFault_Handler>:
 80017de:	e7fe      	b.n	80017de <BusFault_Handler>

080017e0 <UsageFault_Handler>:
 80017e0:	e7fe      	b.n	80017e0 <UsageFault_Handler>

080017e2 <SVC_Handler>:
 80017e2:	4770      	bx	lr

080017e4 <DebugMon_Handler>:
 80017e4:	4770      	bx	lr

080017e6 <PendSV_Handler>:
 80017e6:	4770      	bx	lr

080017e8 <SysTick_Handler>:
 80017e8:	f000 bc8c 	b.w	8002104 <HAL_IncTick>

080017ec <EXTI0_IRQHandler>:
 80017ec:	2001      	movs	r0, #1
 80017ee:	f000 bdf5 	b.w	80023dc <HAL_GPIO_EXTI_IRQHandler>

080017f2 <EXTI1_IRQHandler>:
 80017f2:	2002      	movs	r0, #2
 80017f4:	f000 bdf2 	b.w	80023dc <HAL_GPIO_EXTI_IRQHandler>

080017f8 <EXTI9_5_IRQHandler>:
 80017f8:	2020      	movs	r0, #32
 80017fa:	f000 bdef 	b.w	80023dc <HAL_GPIO_EXTI_IRQHandler>
	...

08001800 <TIM6_DAC_IRQHandler>:
 8001800:	4b07      	ldr	r3, [pc, #28]	; (8001820 <TIM6_DAC_IRQHandler+0x20>)
 8001802:	691a      	ldr	r2, [r3, #16]
 8001804:	07d2      	lsls	r2, r2, #31
 8001806:	d507      	bpl.n	8001818 <TIM6_DAC_IRQHandler+0x18>
 8001808:	691a      	ldr	r2, [r3, #16]
 800180a:	f022 0201 	bic.w	r2, r2, #1
 800180e:	611a      	str	r2, [r3, #16]
 8001810:	4a04      	ldr	r2, [pc, #16]	; (8001824 <TIM6_DAC_IRQHandler+0x24>)
 8001812:	6813      	ldr	r3, [r2, #0]
 8001814:	3301      	adds	r3, #1
 8001816:	6013      	str	r3, [r2, #0]
 8001818:	4803      	ldr	r0, [pc, #12]	; (8001828 <TIM6_DAC_IRQHandler+0x28>)
 800181a:	f002 b8b2 	b.w	8003982 <HAL_TIM_IRQHandler>
 800181e:	bf00      	nop
 8001820:	40001000 	.word	0x40001000
 8001824:	20000244 	.word	0x20000244
 8001828:	2000037c 	.word	0x2000037c

0800182c <_sbrk>:
 800182c:	4a0b      	ldr	r2, [pc, #44]	; (800185c <_sbrk+0x30>)
 800182e:	6811      	ldr	r1, [r2, #0]
 8001830:	b510      	push	{r4, lr}
 8001832:	4603      	mov	r3, r0
 8001834:	b909      	cbnz	r1, 800183a <_sbrk+0xe>
 8001836:	490a      	ldr	r1, [pc, #40]	; (8001860 <_sbrk+0x34>)
 8001838:	6011      	str	r1, [r2, #0]
 800183a:	6810      	ldr	r0, [r2, #0]
 800183c:	4909      	ldr	r1, [pc, #36]	; (8001864 <_sbrk+0x38>)
 800183e:	4c0a      	ldr	r4, [pc, #40]	; (8001868 <_sbrk+0x3c>)
 8001840:	4403      	add	r3, r0
 8001842:	1b09      	subs	r1, r1, r4
 8001844:	428b      	cmp	r3, r1
 8001846:	d906      	bls.n	8001856 <_sbrk+0x2a>
 8001848:	f002 fc48 	bl	80040dc <__errno>
 800184c:	230c      	movs	r3, #12
 800184e:	6003      	str	r3, [r0, #0]
 8001850:	f04f 30ff 	mov.w	r0, #4294967295
 8001854:	bd10      	pop	{r4, pc}
 8001856:	6013      	str	r3, [r2, #0]
 8001858:	e7fc      	b.n	8001854 <_sbrk+0x28>
 800185a:	bf00      	nop
 800185c:	20000e28 	.word	0x20000e28
 8001860:	20000e48 	.word	0x20000e48
 8001864:	20004000 	.word	0x20004000
 8001868:	00000400 	.word	0x00000400

0800186c <SystemInit>:
 800186c:	4a03      	ldr	r2, [pc, #12]	; (800187c <SystemInit+0x10>)
 800186e:	f8d2 3088 	ldr.w	r3, [r2, #136]	; 0x88
 8001872:	f443 0370 	orr.w	r3, r3, #15728640	; 0xf00000
 8001876:	f8c2 3088 	str.w	r3, [r2, #136]	; 0x88
 800187a:	4770      	bx	lr
 800187c:	e000ed00 	.word	0xe000ed00

08001880 <WIZCHIP_READ>:
 8001880:	b57f      	push	{r0, r1, r2, r3, r4, r5, r6, lr}
 8001882:	4c15      	ldr	r4, [pc, #84]	; (80018d8 <WIZCHIP_READ+0x58>)
 8001884:	68e3      	ldr	r3, [r4, #12]
 8001886:	4605      	mov	r5, r0
 8001888:	4798      	blx	r3
 800188a:	6963      	ldr	r3, [r4, #20]
 800188c:	4798      	blx	r3
 800188e:	6a63      	ldr	r3, [r4, #36]	; 0x24
 8001890:	f3c5 4007 	ubfx	r0, r5, #16, #8
 8001894:	f3c5 2607 	ubfx	r6, r5, #8, #8
 8001898:	b2ed      	uxtb	r5, r5
 800189a:	b10b      	cbz	r3, 80018a0 <WIZCHIP_READ+0x20>
 800189c:	6aa3      	ldr	r3, [r4, #40]	; 0x28
 800189e:	b98b      	cbnz	r3, 80018c4 <WIZCHIP_READ+0x44>
 80018a0:	6a23      	ldr	r3, [r4, #32]
 80018a2:	4798      	blx	r3
 80018a4:	6a23      	ldr	r3, [r4, #32]
 80018a6:	4630      	mov	r0, r6
 80018a8:	4798      	blx	r3
 80018aa:	6a23      	ldr	r3, [r4, #32]
 80018ac:	4628      	mov	r0, r5
 80018ae:	4798      	blx	r3
 80018b0:	69e3      	ldr	r3, [r4, #28]
 80018b2:	4798      	blx	r3
 80018b4:	69a3      	ldr	r3, [r4, #24]
 80018b6:	9001      	str	r0, [sp, #4]
 80018b8:	4798      	blx	r3
 80018ba:	6923      	ldr	r3, [r4, #16]
 80018bc:	4798      	blx	r3
 80018be:	9801      	ldr	r0, [sp, #4]
 80018c0:	b004      	add	sp, #16
 80018c2:	bd70      	pop	{r4, r5, r6, pc}
 80018c4:	f88d 000c 	strb.w	r0, [sp, #12]
 80018c8:	f88d 600d 	strb.w	r6, [sp, #13]
 80018cc:	f88d 500e 	strb.w	r5, [sp, #14]
 80018d0:	2103      	movs	r1, #3
 80018d2:	a803      	add	r0, sp, #12
 80018d4:	4798      	blx	r3
 80018d6:	e7eb      	b.n	80018b0 <WIZCHIP_READ+0x30>
 80018d8:	2000000c 	.word	0x2000000c

080018dc <WIZCHIP_WRITE>:
 80018dc:	b5f7      	push	{r0, r1, r2, r4, r5, r6, r7, lr}
 80018de:	4c17      	ldr	r4, [pc, #92]	; (800193c <WIZCHIP_WRITE+0x60>)
 80018e0:	68e3      	ldr	r3, [r4, #12]
 80018e2:	4605      	mov	r5, r0
 80018e4:	460e      	mov	r6, r1
 80018e6:	4798      	blx	r3
 80018e8:	6963      	ldr	r3, [r4, #20]
 80018ea:	4798      	blx	r3
 80018ec:	6aa3      	ldr	r3, [r4, #40]	; 0x28
 80018ee:	f045 0704 	orr.w	r7, r5, #4
 80018f2:	f3c5 4007 	ubfx	r0, r5, #16, #8
 80018f6:	b2ff      	uxtb	r7, r7
 80018f8:	f3c5 2507 	ubfx	r5, r5, #8, #8
 80018fc:	b983      	cbnz	r3, 8001920 <WIZCHIP_WRITE+0x44>
 80018fe:	6a23      	ldr	r3, [r4, #32]
 8001900:	4798      	blx	r3
 8001902:	6a23      	ldr	r3, [r4, #32]
 8001904:	4628      	mov	r0, r5
 8001906:	4798      	blx	r3
 8001908:	6a23      	ldr	r3, [r4, #32]
 800190a:	4638      	mov	r0, r7
 800190c:	4798      	blx	r3
 800190e:	6a23      	ldr	r3, [r4, #32]
 8001910:	4630      	mov	r0, r6
 8001912:	4798      	blx	r3
 8001914:	69a3      	ldr	r3, [r4, #24]
 8001916:	4798      	blx	r3
 8001918:	6923      	ldr	r3, [r4, #16]
 800191a:	4798      	blx	r3
 800191c:	b003      	add	sp, #12
 800191e:	bdf0      	pop	{r4, r5, r6, r7, pc}
 8001920:	2104      	movs	r1, #4
 8001922:	f88d 0004 	strb.w	r0, [sp, #4]
 8001926:	f88d 5005 	strb.w	r5, [sp, #5]
 800192a:	f88d 7006 	strb.w	r7, [sp, #6]
 800192e:	f88d 6007 	strb.w	r6, [sp, #7]
 8001932:	eb0d 0001 	add.w	r0, sp, r1
 8001936:	4798      	blx	r3
 8001938:	e7ec      	b.n	8001914 <WIZCHIP_WRITE+0x38>
 800193a:	bf00      	nop
 800193c:	2000000c 	.word	0x2000000c

08001940 <WIZCHIP_READ_BUF>:
 8001940:	e92d 41f3 	stmdb	sp!, {r0, r1, r4, r5, r6, r7, r8, lr}
 8001944:	4c1a      	ldr	r4, [pc, #104]	; (80019b0 <WIZCHIP_READ_BUF+0x70>)
 8001946:	68e3      	ldr	r3, [r4, #12]
 8001948:	4605      	mov	r5, r0
 800194a:	460e      	mov	r6, r1
 800194c:	4617      	mov	r7, r2
 800194e:	4798      	blx	r3
 8001950:	6963      	ldr	r3, [r4, #20]
 8001952:	4798      	blx	r3
 8001954:	6a63      	ldr	r3, [r4, #36]	; 0x24
 8001956:	f3c5 4007 	ubfx	r0, r5, #16, #8
 800195a:	f3c5 2807 	ubfx	r8, r5, #8, #8
 800195e:	b2ed      	uxtb	r5, r5
 8001960:	b10b      	cbz	r3, 8001966 <WIZCHIP_READ_BUF+0x26>
 8001962:	6aa3      	ldr	r3, [r4, #40]	; 0x28
 8001964:	b9b3      	cbnz	r3, 8001994 <WIZCHIP_READ_BUF+0x54>
 8001966:	6a23      	ldr	r3, [r4, #32]
 8001968:	4798      	blx	r3
 800196a:	6a23      	ldr	r3, [r4, #32]
 800196c:	4640      	mov	r0, r8
 800196e:	4798      	blx	r3
 8001970:	6a23      	ldr	r3, [r4, #32]
 8001972:	4628      	mov	r0, r5
 8001974:	4798      	blx	r3
 8001976:	4437      	add	r7, r6
 8001978:	42b7      	cmp	r7, r6
 800197a:	d106      	bne.n	800198a <WIZCHIP_READ_BUF+0x4a>
 800197c:	69a3      	ldr	r3, [r4, #24]
 800197e:	4798      	blx	r3
 8001980:	6923      	ldr	r3, [r4, #16]
 8001982:	4798      	blx	r3
 8001984:	b002      	add	sp, #8
 8001986:	e8bd 81f0 	ldmia.w	sp!, {r4, r5, r6, r7, r8, pc}
 800198a:	69e3      	ldr	r3, [r4, #28]
 800198c:	4798      	blx	r3
 800198e:	f806 0b01 	strb.w	r0, [r6], #1
 8001992:	e7f1      	b.n	8001978 <WIZCHIP_READ_BUF+0x38>
 8001994:	f88d 0004 	strb.w	r0, [sp, #4]
 8001998:	f88d 8005 	strb.w	r8, [sp, #5]
 800199c:	a801      	add	r0, sp, #4
 800199e:	f88d 5006 	strb.w	r5, [sp, #6]
 80019a2:	2103      	movs	r1, #3
 80019a4:	4798      	blx	r3
 80019a6:	6a63      	ldr	r3, [r4, #36]	; 0x24
 80019a8:	4639      	mov	r1, r7
 80019aa:	4630      	mov	r0, r6
 80019ac:	4798      	blx	r3
 80019ae:	e7e5      	b.n	800197c <WIZCHIP_READ_BUF+0x3c>
 80019b0:	2000000c 	.word	0x2000000c

080019b4 <WIZCHIP_WRITE_BUF>:
 80019b4:	e92d 41f3 	stmdb	sp!, {r0, r1, r4, r5, r6, r7, r8, lr}
 80019b8:	4c1a      	ldr	r4, [pc, #104]	; (8001a24 <WIZCHIP_WRITE_BUF+0x70>)
 80019ba:	68e3      	ldr	r3, [r4, #12]
 80019bc:	4605      	mov	r5, r0
 80019be:	460f      	mov	r7, r1
 80019c0:	4690      	mov	r8, r2
 80019c2:	4798      	blx	r3
 80019c4:	6963      	ldr	r3, [r4, #20]
 80019c6:	4798      	blx	r3
 80019c8:	6aa3      	ldr	r3, [r4, #40]	; 0x28
 80019ca:	f045 0604 	orr.w	r6, r5, #4
 80019ce:	f3c5 4007 	ubfx	r0, r5, #16, #8
 80019d2:	b2f6      	uxtb	r6, r6
 80019d4:	f3c5 2507 	ubfx	r5, r5, #8, #8
 80019d8:	b9b3      	cbnz	r3, 8001a08 <WIZCHIP_WRITE_BUF+0x54>
 80019da:	6a23      	ldr	r3, [r4, #32]
 80019dc:	4798      	blx	r3
 80019de:	6a23      	ldr	r3, [r4, #32]
 80019e0:	4628      	mov	r0, r5
 80019e2:	4798      	blx	r3
 80019e4:	6a23      	ldr	r3, [r4, #32]
 80019e6:	4630      	mov	r0, r6
 80019e8:	4798      	blx	r3
 80019ea:	44b8      	add	r8, r7
 80019ec:	45b8      	cmp	r8, r7
 80019ee:	d106      	bne.n	80019fe <WIZCHIP_WRITE_BUF+0x4a>
 80019f0:	69a3      	ldr	r3, [r4, #24]
 80019f2:	4798      	blx	r3
 80019f4:	6923      	ldr	r3, [r4, #16]
 80019f6:	4798      	blx	r3
 80019f8:	b002      	add	sp, #8
 80019fa:	e8bd 81f0 	ldmia.w	sp!, {r4, r5, r6, r7, r8, pc}
 80019fe:	6a23      	ldr	r3, [r4, #32]
 8001a00:	f817 0b01 	ldrb.w	r0, [r7], #1
 8001a04:	4798      	blx	r3
 8001a06:	e7f1      	b.n	80019ec <WIZCHIP_WRITE_BUF+0x38>
 8001a08:	f88d 0004 	strb.w	r0, [sp, #4]
 8001a0c:	f88d 5005 	strb.w	r5, [sp, #5]
 8001a10:	a801      	add	r0, sp, #4
 8001a12:	f88d 6006 	strb.w	r6, [sp, #6]
 8001a16:	2103      	movs	r1, #3
 8001a18:	4798      	blx	r3
 8001a1a:	6aa3      	ldr	r3, [r4, #40]	; 0x28
 8001a1c:	4641      	mov	r1, r8
 8001a1e:	4638      	mov	r0, r7
 8001a20:	4798      	blx	r3
 8001a22:	e7e5      	b.n	80019f0 <WIZCHIP_WRITE_BUF+0x3c>
 8001a24:	2000000c 	.word	0x2000000c

08001a28 <getSn_TX_FSR>:
 8001a28:	e92d 41f0 	stmdb	sp!, {r4, r5, r6, r7, r8, lr}
 8001a2c:	0147      	lsls	r7, r0, #5
 8001a2e:	3708      	adds	r7, #8
 8001a30:	f507 5800 	add.w	r8, r7, #8192	; 0x2000
 8001a34:	2400      	movs	r4, #0
 8001a36:	f507 5704 	add.w	r7, r7, #8448	; 0x2100
 8001a3a:	4640      	mov	r0, r8
 8001a3c:	f7ff ff20 	bl	8001880 <WIZCHIP_READ>
 8001a40:	0200      	lsls	r0, r0, #8
 8001a42:	b285      	uxth	r5, r0
 8001a44:	4638      	mov	r0, r7
 8001a46:	f7ff ff1b 	bl	8001880 <WIZCHIP_READ>
 8001a4a:	4428      	add	r0, r5
 8001a4c:	b286      	uxth	r6, r0
 8001a4e:	b14e      	cbz	r6, 8001a64 <getSn_TX_FSR+0x3c>
 8001a50:	4640      	mov	r0, r8
 8001a52:	f7ff ff15 	bl	8001880 <WIZCHIP_READ>
 8001a56:	0200      	lsls	r0, r0, #8
 8001a58:	b285      	uxth	r5, r0
 8001a5a:	4638      	mov	r0, r7
 8001a5c:	f7ff ff10 	bl	8001880 <WIZCHIP_READ>
 8001a60:	4428      	add	r0, r5
 8001a62:	b284      	uxth	r4, r0
 8001a64:	42b4      	cmp	r4, r6
 8001a66:	d1e8      	bne.n	8001a3a <getSn_TX_FSR+0x12>
 8001a68:	4620      	mov	r0, r4
 8001a6a:	e8bd 81f0 	ldmia.w	sp!, {r4, r5, r6, r7, r8, pc}

08001a6e <getSn_RX_RSR>:
 8001a6e:	e92d 41f0 	stmdb	sp!, {r4, r5, r6, r7, r8, lr}
 8001a72:	0147      	lsls	r7, r0, #5
 8001a74:	3708      	adds	r7, #8
 8001a76:	f507 5818 	add.w	r8, r7, #9728	; 0x2600
 8001a7a:	2400      	movs	r4, #0
 8001a7c:	f507 571c 	add.w	r7, r7, #9984	; 0x2700
 8001a80:	4640      	mov	r0, r8
 8001a82:	f7ff fefd 	bl	8001880 <WIZCHIP_READ>
 8001a86:	0200      	lsls	r0, r0, #8
 8001a88:	b285      	uxth	r5, r0
 8001a8a:	4638      	mov	r0, r7
 8001a8c:	f7ff fef8 	bl	8001880 <WIZCHIP_READ>
 8001a90:	4428      	add	r0, r5
 8001a92:	b286      	uxth	r6, r0
 8001a94:	b14e      	cbz	r6, 8001aaa <getSn_RX_RSR+0x3c>
 8001a96:	4640      	mov	r0, r8
 8001a98:	f7ff fef2 	bl	8001880 <WIZCHIP_READ>
 8001a9c:	0200      	lsls	r0, r0, #8
 8001a9e:	b285      	uxth	r5, r0
 8001aa0:	4638      	mov	r0, r7
 8001aa2:	f7ff feed 	bl	8001880 <WIZCHIP_READ>
 8001aa6:	4428      	add	r0, r5
 8001aa8:	b284      	uxth	r4, r0
 8001aaa:	42b4      	cmp	r4, r6
 8001aac:	d1e8      	bne.n	8001a80 <getSn_RX_RSR+0x12>
 8001aae:	4620      	mov	r0, r4
 8001ab0:	e8bd 81f0 	ldmia.w	sp!, {r4, r5, r6, r7, r8, pc}

08001ab4 <wiz_send_data>:
 8001ab4:	e92d 41f3 	stmdb	sp!, {r0, r1, r4, r5, r6, r7, r8, lr}
 8001ab8:	4614      	mov	r4, r2
 8001aba:	9101      	str	r1, [sp, #4]
 8001abc:	b332      	cbz	r2, 8001b0c <wiz_send_data+0x58>
 8001abe:	0085      	lsls	r5, r0, #2
 8001ac0:	1c6f      	adds	r7, r5, #1
 8001ac2:	00ff      	lsls	r7, r7, #3
 8001ac4:	f507 5810 	add.w	r8, r7, #9216	; 0x2400
 8001ac8:	4640      	mov	r0, r8
 8001aca:	f7ff fed9 	bl	8001880 <WIZCHIP_READ>
 8001ace:	f507 5714 	add.w	r7, r7, #9472	; 0x2500
 8001ad2:	4606      	mov	r6, r0
 8001ad4:	4638      	mov	r0, r7
 8001ad6:	f7ff fed3 	bl	8001880 <WIZCHIP_READ>
 8001ada:	eb00 2006 	add.w	r0, r0, r6, lsl #8
 8001ade:	b286      	uxth	r6, r0
 8001ae0:	3502      	adds	r5, #2
 8001ae2:	0230      	lsls	r0, r6, #8
 8001ae4:	4622      	mov	r2, r4
 8001ae6:	9901      	ldr	r1, [sp, #4]
 8001ae8:	eb00 00c5 	add.w	r0, r0, r5, lsl #3
 8001aec:	f7ff ff62 	bl	80019b4 <WIZCHIP_WRITE_BUF>
 8001af0:	19a1      	adds	r1, r4, r6
 8001af2:	b28c      	uxth	r4, r1
 8001af4:	4640      	mov	r0, r8
 8001af6:	f3c1 2107 	ubfx	r1, r1, #8, #8
 8001afa:	f7ff feef 	bl	80018dc <WIZCHIP_WRITE>
 8001afe:	b2e1      	uxtb	r1, r4
 8001b00:	4638      	mov	r0, r7
 8001b02:	b002      	add	sp, #8
 8001b04:	e8bd 41f0 	ldmia.w	sp!, {r4, r5, r6, r7, r8, lr}
 8001b08:	f7ff bee8 	b.w	80018dc <WIZCHIP_WRITE>
 8001b0c:	b002      	add	sp, #8
 8001b0e:	e8bd 81f0 	ldmia.w	sp!, {r4, r5, r6, r7, r8, pc}

08001b12 <wiz_recv_data>:
 8001b12:	e92d 41f3 	stmdb	sp!, {r0, r1, r4, r5, r6, r7, r8, lr}
 8001b16:	4614      	mov	r4, r2
 8001b18:	9101      	str	r1, [sp, #4]
 8001b1a:	b332      	cbz	r2, 8001b6a <wiz_recv_data+0x58>
 8001b1c:	0085      	lsls	r5, r0, #2
 8001b1e:	1c6f      	adds	r7, r5, #1
 8001b20:	00ff      	lsls	r7, r7, #3
 8001b22:	f507 5820 	add.w	r8, r7, #10240	; 0x2800
 8001b26:	4640      	mov	r0, r8
 8001b28:	f7ff feaa 	bl	8001880 <WIZCHIP_READ>
 8001b2c:	f507 5724 	add.w	r7, r7, #10496	; 0x2900
 8001b30:	4606      	mov	r6, r0
 8001b32:	4638      	mov	r0, r7
 8001b34:	f7ff fea4 	bl	8001880 <WIZCHIP_READ>
 8001b38:	eb00 2006 	add.w	r0, r0, r6, lsl #8
 8001b3c:	b286      	uxth	r6, r0
 8001b3e:	3503      	adds	r5, #3
 8001b40:	0230      	lsls	r0, r6, #8
 8001b42:	4622      	mov	r2, r4
 8001b44:	9901      	ldr	r1, [sp, #4]
 8001b46:	eb00 00c5 	add.w	r0, r0, r5, lsl #3
 8001b4a:	f7ff fef9 	bl	8001940 <WIZCHIP_READ_BUF>
 8001b4e:	19a1      	adds	r1, r4, r6
 8001b50:	b28c      	uxth	r4, r1
 8001b52:	4640      	mov	r0, r8
 8001b54:	f3c1 2107 	ubfx	r1, r1, #8, #8
 8001b58:	f7ff fec0 	bl	80018dc <WIZCHIP_WRITE>
 8001b5c:	b2e1      	uxtb	r1, r4
 8001b5e:	4638      	mov	r0, r7
 8001b60:	b002      	add	sp, #8
 8001b62:	e8bd 41f0 	ldmia.w	sp!, {r4, r5, r6, r7, r8, lr}
 8001b66:	f7ff beb9 	b.w	80018dc <WIZCHIP_WRITE>
 8001b6a:	b002      	add	sp, #8
 8001b6c:	e8bd 81f0 	ldmia.w	sp!, {r4, r5, r6, r7, r8, pc}

08001b70 <wizchip_cris_enter>:
 8001b70:	4770      	bx	lr

08001b72 <wizchip_bus_readdata>:
 8001b72:	7800      	ldrb	r0, [r0, #0]
 8001b74:	4770      	bx	lr

08001b76 <wizchip_bus_writedata>:
 8001b76:	7001      	strb	r1, [r0, #0]
 8001b78:	4770      	bx	lr

08001b7a <wizchip_spi_readbyte>:
 8001b7a:	2000      	movs	r0, #0
 8001b7c:	4770      	bx	lr

08001b7e <wizchip_spi_writebyte>:
 8001b7e:	4770      	bx	lr

08001b80 <wizchip_cris_exit>:
 8001b80:	4770      	bx	lr

08001b82 <wizchip_cs_select>:
 8001b82:	4770      	bx	lr

08001b84 <wizchip_cs_deselect>:
 8001b84:	4770      	bx	lr
	...

08001b88 <reg_wizchip_cs_cbfunc>:
 8001b88:	4b05      	ldr	r3, [pc, #20]	; (8001ba0 <reg_wizchip_cs_cbfunc+0x18>)
 8001b8a:	b100      	cbz	r0, 8001b8e <reg_wizchip_cs_cbfunc+0x6>
 8001b8c:	b921      	cbnz	r1, 8001b98 <reg_wizchip_cs_cbfunc+0x10>
 8001b8e:	4a05      	ldr	r2, [pc, #20]	; (8001ba4 <reg_wizchip_cs_cbfunc+0x1c>)
 8001b90:	615a      	str	r2, [r3, #20]
 8001b92:	4a05      	ldr	r2, [pc, #20]	; (8001ba8 <reg_wizchip_cs_cbfunc+0x20>)
 8001b94:	619a      	str	r2, [r3, #24]
 8001b96:	4770      	bx	lr
 8001b98:	e9c3 0105 	strd	r0, r1, [r3, #20]
 8001b9c:	4770      	bx	lr
 8001b9e:	bf00      	nop
 8001ba0:	2000000c 	.word	0x2000000c
 8001ba4:	08001b83 	.word	0x08001b83
 8001ba8:	08001b85 	.word	0x08001b85

08001bac <reg_wizchip_spi_cbfunc>:
 8001bac:	4b07      	ldr	r3, [pc, #28]	; (8001bcc <reg_wizchip_spi_cbfunc+0x20>)
 8001bae:	881a      	ldrh	r2, [r3, #0]
 8001bb0:	0592      	lsls	r2, r2, #22
 8001bb2:	d400      	bmi.n	8001bb6 <reg_wizchip_spi_cbfunc+0xa>
 8001bb4:	e7fe      	b.n	8001bb4 <reg_wizchip_spi_cbfunc+0x8>
 8001bb6:	b100      	cbz	r0, 8001bba <reg_wizchip_spi_cbfunc+0xe>
 8001bb8:	b921      	cbnz	r1, 8001bc4 <reg_wizchip_spi_cbfunc+0x18>
 8001bba:	4a05      	ldr	r2, [pc, #20]	; (8001bd0 <reg_wizchip_spi_cbfunc+0x24>)
 8001bbc:	61da      	str	r2, [r3, #28]
 8001bbe:	4a05      	ldr	r2, [pc, #20]	; (8001bd4 <reg_wizchip_spi_cbfunc+0x28>)
 8001bc0:	621a      	str	r2, [r3, #32]
 8001bc2:	4770      	bx	lr
 8001bc4:	e9c3 0107 	strd	r0, r1, [r3, #28]
 8001bc8:	4770      	bx	lr
 8001bca:	bf00      	nop
 8001bcc:	2000000c 	.word	0x2000000c
 8001bd0:	08001b7b 	.word	0x08001b7b
 8001bd4:	08001b7f 	.word	0x08001b7f

08001bd8 <wizchip_sw_reset>:
 8001bd8:	b57f      	push	{r0, r1, r2, r3, r4, r5, r6, lr}
 8001bda:	2206      	movs	r2, #6
 8001bdc:	a904      	add	r1, sp, #16
 8001bde:	f44f 6010 	mov.w	r0, #2304	; 0x900
 8001be2:	f7ff fead 	bl	8001940 <WIZCHIP_READ_BUF>
 8001be6:	2204      	movs	r2, #4
 8001be8:	eb0d 0102 	add.w	r1, sp, r2
 8001bec:	f44f 7080 	mov.w	r0, #256	; 0x100
 8001bf0:	f7ff fea6 	bl	8001940 <WIZCHIP_READ_BUF>
 8001bf4:	a902      	add	r1, sp, #8
 8001bf6:	2204      	movs	r2, #4
 8001bf8:	f44f 60a0 	mov.w	r0, #1280	; 0x500
 8001bfc:	f7ff fea0 	bl	8001940 <WIZCHIP_READ_BUF>
 8001c00:	2204      	movs	r2, #4
 8001c02:	a903      	add	r1, sp, #12
 8001c04:	f44f 6070 	mov.w	r0, #3840	; 0xf00
 8001c08:	f7ff fe9a 	bl	8001940 <WIZCHIP_READ_BUF>
 8001c0c:	2180      	movs	r1, #128	; 0x80
 8001c0e:	2000      	movs	r0, #0
 8001c10:	f7ff fe64 	bl	80018dc <WIZCHIP_WRITE>
 8001c14:	2000      	movs	r0, #0
 8001c16:	f7ff fe33 	bl	8001880 <WIZCHIP_READ>
 8001c1a:	a904      	add	r1, sp, #16
 8001c1c:	2206      	movs	r2, #6
 8001c1e:	f44f 6010 	mov.w	r0, #2304	; 0x900
 8001c22:	f7ff fec7 	bl	80019b4 <WIZCHIP_WRITE_BUF>
 8001c26:	2204      	movs	r2, #4
 8001c28:	eb0d 0102 	add.w	r1, sp, r2
 8001c2c:	f44f 7080 	mov.w	r0, #256	; 0x100
 8001c30:	f7ff fec0 	bl	80019b4 <WIZCHIP_WRITE_BUF>
 8001c34:	a902      	add	r1, sp, #8
 8001c36:	2204      	movs	r2, #4
 8001c38:	f44f 60a0 	mov.w	r0, #1280	; 0x500
 8001c3c:	f7ff feba 	bl	80019b4 <WIZCHIP_WRITE_BUF>
 8001c40:	2204      	movs	r2, #4
 8001c42:	a903      	add	r1, sp, #12
 8001c44:	f44f 6070 	mov.w	r0, #3840	; 0xf00
 8001c48:	f7ff feb4 	bl	80019b4 <WIZCHIP_WRITE_BUF>
 8001c4c:	b007      	add	sp, #28
 8001c4e:	f85d fb04 	ldr.w	pc, [sp], #4

08001c52 <wizchip_init>:
 8001c52:	b5f8      	push	{r3, r4, r5, r6, r7, lr}
 8001c54:	4605      	mov	r5, r0
 8001c56:	460c      	mov	r4, r1
 8001c58:	f7ff ffbe 	bl	8001bd8 <wizchip_sw_reset>
 8001c5c:	b1bd      	cbz	r5, 8001c8e <wizchip_init+0x3c>
 8001c5e:	1e6e      	subs	r6, r5, #1
 8001c60:	4632      	mov	r2, r6
 8001c62:	3507      	adds	r5, #7
 8001c64:	2300      	movs	r3, #0
 8001c66:	f812 1f01 	ldrb.w	r1, [r2, #1]!
 8001c6a:	440b      	add	r3, r1
 8001c6c:	b25b      	sxtb	r3, r3
 8001c6e:	2b10      	cmp	r3, #16
 8001c70:	dc29      	bgt.n	8001cc6 <wizchip_init+0x74>
 8001c72:	42aa      	cmp	r2, r5
 8001c74:	d1f7      	bne.n	8001c66 <wizchip_init+0x14>
 8001c76:	f641 7508 	movw	r5, #7944	; 0x1f08
 8001c7a:	f242 0708 	movw	r7, #8200	; 0x2008
 8001c7e:	4628      	mov	r0, r5
 8001c80:	f816 1f01 	ldrb.w	r1, [r6, #1]!
 8001c84:	3520      	adds	r5, #32
 8001c86:	f7ff fe29 	bl	80018dc <WIZCHIP_WRITE>
 8001c8a:	42bd      	cmp	r5, r7
 8001c8c:	d1f7      	bne.n	8001c7e <wizchip_init+0x2c>
 8001c8e:	b90c      	cbnz	r4, 8001c94 <wizchip_init+0x42>
 8001c90:	2000      	movs	r0, #0
 8001c92:	bdf8      	pop	{r3, r4, r5, r6, r7, pc}
 8001c94:	1e65      	subs	r5, r4, #1
 8001c96:	462a      	mov	r2, r5
 8001c98:	3407      	adds	r4, #7
 8001c9a:	2300      	movs	r3, #0
 8001c9c:	f812 1f01 	ldrb.w	r1, [r2, #1]!
 8001ca0:	440b      	add	r3, r1
 8001ca2:	b25b      	sxtb	r3, r3
 8001ca4:	2b10      	cmp	r3, #16
 8001ca6:	dc0e      	bgt.n	8001cc6 <wizchip_init+0x74>
 8001ca8:	4294      	cmp	r4, r2
 8001caa:	d1f7      	bne.n	8001c9c <wizchip_init+0x4a>
 8001cac:	f641 6408 	movw	r4, #7688	; 0x1e08
 8001cb0:	f641 7608 	movw	r6, #7944	; 0x1f08
 8001cb4:	4620      	mov	r0, r4
 8001cb6:	f815 1f01 	ldrb.w	r1, [r5, #1]!
 8001cba:	3420      	adds	r4, #32
 8001cbc:	f7ff fe0e 	bl	80018dc <WIZCHIP_WRITE>
 8001cc0:	42b4      	cmp	r4, r6
 8001cc2:	d1f7      	bne.n	8001cb4 <wizchip_init+0x62>
 8001cc4:	e7e4      	b.n	8001c90 <wizchip_init+0x3e>
 8001cc6:	f04f 30ff 	mov.w	r0, #4294967295
 8001cca:	e7e2      	b.n	8001c92 <wizchip_init+0x40>

08001ccc <wizchip_clrinterrupt>:
 8001ccc:	b538      	push	{r3, r4, r5, lr}
 8001cce:	f000 01f0 	and.w	r1, r0, #240	; 0xf0
 8001cd2:	0a05      	lsrs	r5, r0, #8
 8001cd4:	f44f 50a8 	mov.w	r0, #5376	; 0x1500
 8001cd8:	f7ff fe00 	bl	80018dc <WIZCHIP_WRITE>
 8001cdc:	2400      	movs	r4, #0
 8001cde:	fa45 f304 	asr.w	r3, r5, r4
 8001ce2:	07db      	lsls	r3, r3, #31
 8001ce4:	d505      	bpl.n	8001cf2 <wizchip_clrinterrupt+0x26>
 8001ce6:	0160      	lsls	r0, r4, #5
 8001ce8:	211f      	movs	r1, #31
 8001cea:	f500 7002 	add.w	r0, r0, #520	; 0x208
 8001cee:	f7ff fdf5 	bl	80018dc <WIZCHIP_WRITE>
 8001cf2:	3401      	adds	r4, #1
 8001cf4:	2c08      	cmp	r4, #8
 8001cf6:	d1f2      	bne.n	8001cde <wizchip_clrinterrupt+0x12>
 8001cf8:	bd38      	pop	{r3, r4, r5, pc}

08001cfa <wizchip_getinterrupt>:
 8001cfa:	b510      	push	{r4, lr}
 8001cfc:	f44f 50a8 	mov.w	r0, #5376	; 0x1500
 8001d00:	f7ff fdbe 	bl	8001880 <WIZCHIP_READ>
 8001d04:	4604      	mov	r4, r0
 8001d06:	f44f 50b8 	mov.w	r0, #5888	; 0x1700
 8001d0a:	f7ff fdb9 	bl	8001880 <WIZCHIP_READ>
 8001d0e:	0203      	lsls	r3, r0, #8
 8001d10:	b29b      	uxth	r3, r3
 8001d12:	f004 00f0 	and.w	r0, r4, #240	; 0xf0
 8001d16:	4418      	add	r0, r3
 8001d18:	b280      	uxth	r0, r0
 8001d1a:	bd10      	pop	{r4, pc}

08001d1c <wizchip_setinterruptmask>:
 8001d1c:	b510      	push	{r4, lr}
 8001d1e:	b2c1      	uxtb	r1, r0
 8001d20:	4604      	mov	r4, r0
 8001d22:	f44f 50b0 	mov.w	r0, #5632	; 0x1600
 8001d26:	f7ff fdd9 	bl	80018dc <WIZCHIP_WRITE>
 8001d2a:	0a21      	lsrs	r1, r4, #8
 8001d2c:	f44f 50c0 	mov.w	r0, #6144	; 0x1800
 8001d30:	e8bd 4010 	ldmia.w	sp!, {r4, lr}
 8001d34:	f7ff bdd2 	b.w	80018dc <WIZCHIP_WRITE>

08001d38 <wizchip_getinterruptmask>:
 8001d38:	b510      	push	{r4, lr}
 8001d3a:	f44f 50b0 	mov.w	r0, #5632	; 0x1600
 8001d3e:	f7ff fd9f 	bl	8001880 <WIZCHIP_READ>
 8001d42:	4604      	mov	r4, r0
 8001d44:	f44f 50c0 	mov.w	r0, #6144	; 0x1800
 8001d48:	f7ff fd9a 	bl	8001880 <WIZCHIP_READ>
 8001d4c:	eb04 2000 	add.w	r0, r4, r0, lsl #8
 8001d50:	b280      	uxth	r0, r0
 8001d52:	bd10      	pop	{r4, pc}

08001d54 <wizphy_getphylink>:
 8001d54:	b508      	push	{r3, lr}
 8001d56:	f44f 5038 	mov.w	r0, #11776	; 0x2e00
 8001d5a:	f7ff fd91 	bl	8001880 <WIZCHIP_READ>
 8001d5e:	f000 0001 	and.w	r0, r0, #1
 8001d62:	bd08      	pop	{r3, pc}

08001d64 <wizphy_getphypmode>:
 8001d64:	b508      	push	{r3, lr}
 8001d66:	f44f 5038 	mov.w	r0, #11776	; 0x2e00
 8001d6a:	f7ff fd89 	bl	8001880 <WIZCHIP_READ>
 8001d6e:	f000 0038 	and.w	r0, r0, #56	; 0x38
 8001d72:	f1a0 0330 	sub.w	r3, r0, #48	; 0x30
 8001d76:	4258      	negs	r0, r3
 8001d78:	4158      	adcs	r0, r3
 8001d7a:	bd08      	pop	{r3, pc}

08001d7c <wizphy_reset>:
 8001d7c:	b508      	push	{r3, lr}
 8001d7e:	f44f 5038 	mov.w	r0, #11776	; 0x2e00
 8001d82:	f7ff fd7d 	bl	8001880 <WIZCHIP_READ>
 8001d86:	f000 017f 	and.w	r1, r0, #127	; 0x7f
 8001d8a:	f44f 5038 	mov.w	r0, #11776	; 0x2e00
 8001d8e:	f7ff fda5 	bl	80018dc <WIZCHIP_WRITE>
 8001d92:	f44f 5038 	mov.w	r0, #11776	; 0x2e00
 8001d96:	f7ff fd73 	bl	8001880 <WIZCHIP_READ>
 8001d9a:	f060 007f 	orn	r0, r0, #127	; 0x7f
 8001d9e:	b2c1      	uxtb	r1, r0
 8001da0:	e8bd 4008 	ldmia.w	sp!, {r3, lr}
 8001da4:	f44f 5038 	mov.w	r0, #11776	; 0x2e00
 8001da8:	f7ff bd98 	b.w	80018dc <WIZCHIP_WRITE>

08001dac <wizphy_setphyconf>:
 8001dac:	b508      	push	{r3, lr}
 8001dae:	7803      	ldrb	r3, [r0, #0]
 8001db0:	2b01      	cmp	r3, #1
 8001db2:	7843      	ldrb	r3, [r0, #1]
 8001db4:	bf0c      	ite	eq
 8001db6:	2140      	moveq	r1, #64	; 0x40
 8001db8:	2100      	movne	r1, #0
 8001dba:	2b01      	cmp	r3, #1
 8001dbc:	d109      	bne.n	8001dd2 <wizphy_setphyconf+0x26>
 8001dbe:	f041 0138 	orr.w	r1, r1, #56	; 0x38
 8001dc2:	f44f 5038 	mov.w	r0, #11776	; 0x2e00
 8001dc6:	f7ff fd89 	bl	80018dc <WIZCHIP_WRITE>
 8001dca:	e8bd 4008 	ldmia.w	sp!, {r3, lr}
 8001dce:	f7ff bfd5 	b.w	8001d7c <wizphy_reset>
 8001dd2:	78c2      	ldrb	r2, [r0, #3]
 8001dd4:	7883      	ldrb	r3, [r0, #2]
 8001dd6:	2a01      	cmp	r2, #1
 8001dd8:	d106      	bne.n	8001de8 <wizphy_setphyconf+0x3c>
 8001dda:	2b01      	cmp	r3, #1
 8001ddc:	bf0c      	ite	eq
 8001dde:	f041 0118 	orreq.w	r1, r1, #24
 8001de2:	f041 0108 	orrne.w	r1, r1, #8
 8001de6:	e7ec      	b.n	8001dc2 <wizphy_setphyconf+0x16>
 8001de8:	2b01      	cmp	r3, #1
 8001dea:	bf08      	it	eq
 8001dec:	f041 0110 	orreq.w	r1, r1, #16
 8001df0:	e7e7      	b.n	8001dc2 <wizphy_setphyconf+0x16>

08001df2 <wizphy_getphyconf>:
 8001df2:	b510      	push	{r4, lr}
 8001df4:	4604      	mov	r4, r0
 8001df6:	f44f 5038 	mov.w	r0, #11776	; 0x2e00
 8001dfa:	f7ff fd41 	bl	8001880 <WIZCHIP_READ>
 8001dfe:	f000 0338 	and.w	r3, r0, #56	; 0x38
 8001e02:	f3c0 1280 	ubfx	r2, r0, #6, #1
 8001e06:	2b20      	cmp	r3, #32
 8001e08:	7022      	strb	r2, [r4, #0]
 8001e0a:	d001      	beq.n	8001e10 <wizphy_getphyconf+0x1e>
 8001e0c:	2b38      	cmp	r3, #56	; 0x38
 8001e0e:	d11d      	bne.n	8001e4c <wizphy_getphyconf+0x5a>
 8001e10:	2201      	movs	r2, #1
 8001e12:	7062      	strb	r2, [r4, #1]
 8001e14:	f1a3 0210 	sub.w	r2, r3, #16
 8001e18:	b2d2      	uxtb	r2, r2
 8001e1a:	2a10      	cmp	r2, #16
 8001e1c:	d818      	bhi.n	8001e50 <wizphy_getphyconf+0x5e>
 8001e1e:	2101      	movs	r1, #1
 8001e20:	fa01 f202 	lsl.w	r2, r1, r2
 8001e24:	f002 3201 	and.w	r2, r2, #16843009	; 0x1010101
 8001e28:	f022 7280 	bic.w	r2, r2, #16777216	; 0x1000000
 8001e2c:	b182      	cbz	r2, 8001e50 <wizphy_getphyconf+0x5e>
 8001e2e:	70a1      	strb	r1, [r4, #2]
 8001e30:	3b08      	subs	r3, #8
 8001e32:	b2db      	uxtb	r3, r3
 8001e34:	2b18      	cmp	r3, #24
 8001e36:	d80e      	bhi.n	8001e56 <wizphy_getphyconf+0x64>
 8001e38:	2201      	movs	r2, #1
 8001e3a:	fa02 f303 	lsl.w	r3, r2, r3
 8001e3e:	f003 3301 	and.w	r3, r3, #16843009	; 0x1010101
 8001e42:	f423 7380 	bic.w	r3, r3, #256	; 0x100
 8001e46:	b133      	cbz	r3, 8001e56 <wizphy_getphyconf+0x64>
 8001e48:	70e2      	strb	r2, [r4, #3]
 8001e4a:	bd10      	pop	{r4, pc}
 8001e4c:	2200      	movs	r2, #0
 8001e4e:	e7e0      	b.n	8001e12 <wizphy_getphyconf+0x20>
 8001e50:	2200      	movs	r2, #0
 8001e52:	70a2      	strb	r2, [r4, #2]
 8001e54:	e7ec      	b.n	8001e30 <wizphy_getphyconf+0x3e>
 8001e56:	2300      	movs	r3, #0
 8001e58:	70e3      	strb	r3, [r4, #3]
 8001e5a:	e7f6      	b.n	8001e4a <wizphy_getphyconf+0x58>

08001e5c <wizphy_setphypmode>:
 8001e5c:	b510      	push	{r4, lr}
 8001e5e:	4604      	mov	r4, r0
 8001e60:	f44f 5038 	mov.w	r0, #11776	; 0x2e00
 8001e64:	f7ff fd0c 	bl	8001880 <WIZCHIP_READ>
 8001e68:	0643      	lsls	r3, r0, #25
 8001e6a:	d51d      	bpl.n	8001ea8 <wizphy_setphypmode+0x4c>
 8001e6c:	f000 01c7 	and.w	r1, r0, #199	; 0xc7
 8001e70:	2c01      	cmp	r4, #1
 8001e72:	bf0c      	ite	eq
 8001e74:	f041 0130 	orreq.w	r1, r1, #48	; 0x30
 8001e78:	f041 0138 	orrne.w	r1, r1, #56	; 0x38
 8001e7c:	f44f 5038 	mov.w	r0, #11776	; 0x2e00
 8001e80:	f7ff fd2c 	bl	80018dc <WIZCHIP_WRITE>
 8001e84:	f7ff ff7a 	bl	8001d7c <wizphy_reset>
 8001e88:	f44f 5038 	mov.w	r0, #11776	; 0x2e00
 8001e8c:	f7ff fcf8 	bl	8001880 <WIZCHIP_READ>
 8001e90:	2c01      	cmp	r4, #1
 8001e92:	d106      	bne.n	8001ea2 <wizphy_setphypmode+0x46>
 8001e94:	f010 0f30 	tst.w	r0, #48	; 0x30
 8001e98:	bf0c      	ite	eq
 8001e9a:	f04f 30ff 	moveq.w	r0, #4294967295
 8001e9e:	2000      	movne	r0, #0
 8001ea0:	bd10      	pop	{r4, pc}
 8001ea2:	f010 0f38 	tst.w	r0, #56	; 0x38
 8001ea6:	e7f7      	b.n	8001e98 <wizphy_setphypmode+0x3c>
 8001ea8:	f04f 30ff 	mov.w	r0, #4294967295
 8001eac:	e7f8      	b.n	8001ea0 <wizphy_setphypmode+0x44>
	...

08001eb0 <ctlwizchip>:
 8001eb0:	b538      	push	{r3, r4, r5, lr}
 8001eb2:	460c      	mov	r4, r1
 8001eb4:	280f      	cmp	r0, #15
 8001eb6:	d863      	bhi.n	8001f80 <ctlwizchip+0xd0>
 8001eb8:	e8df f000 	tbb	[pc, r0]
 8001ebc:	13170c08 	.word	0x13170c08
 8001ec0:	2e221f1b 	.word	0x2e221f1b
 8001ec4:	4f4b483a 	.word	0x4f4b483a
 8001ec8:	5f58530a 	.word	0x5f58530a
 8001ecc:	f7ff fe84 	bl	8001bd8 <wizchip_sw_reset>
 8001ed0:	2000      	movs	r0, #0
 8001ed2:	e03a      	b.n	8001f4a <ctlwizchip+0x9a>
 8001ed4:	b101      	cbz	r1, 8001ed8 <ctlwizchip+0x28>
 8001ed6:	3108      	adds	r1, #8
 8001ed8:	4620      	mov	r0, r4
 8001eda:	e8bd 4038 	ldmia.w	sp!, {r3, r4, r5, lr}
 8001ede:	f7ff beb8 	b.w	8001c52 <wizchip_init>
 8001ee2:	8808      	ldrh	r0, [r1, #0]
 8001ee4:	f7ff fef2 	bl	8001ccc <wizchip_clrinterrupt>
 8001ee8:	e7f2      	b.n	8001ed0 <ctlwizchip+0x20>
 8001eea:	f7ff ff06 	bl	8001cfa <wizchip_getinterrupt>
 8001eee:	8020      	strh	r0, [r4, #0]
 8001ef0:	e7ee      	b.n	8001ed0 <ctlwizchip+0x20>
 8001ef2:	8808      	ldrh	r0, [r1, #0]
 8001ef4:	f7ff ff12 	bl	8001d1c <wizchip_setinterruptmask>
 8001ef8:	e7ea      	b.n	8001ed0 <ctlwizchip+0x20>
 8001efa:	f7ff ff1d 	bl	8001d38 <wizchip_getinterruptmask>
 8001efe:	e7f6      	b.n	8001eee <ctlwizchip+0x3e>
 8001f00:	8809      	ldrh	r1, [r1, #0]
 8001f02:	f44f 5098 	mov.w	r0, #4864	; 0x1300
 8001f06:	0a09      	lsrs	r1, r1, #8
 8001f08:	f7ff fce8 	bl	80018dc <WIZCHIP_WRITE>
 8001f0c:	7821      	ldrb	r1, [r4, #0]
 8001f0e:	f44f 50a0 	mov.w	r0, #5120	; 0x1400
 8001f12:	f7ff fce3 	bl	80018dc <WIZCHIP_WRITE>
 8001f16:	e7db      	b.n	8001ed0 <ctlwizchip+0x20>
 8001f18:	f44f 5098 	mov.w	r0, #4864	; 0x1300
 8001f1c:	f7ff fcb0 	bl	8001880 <WIZCHIP_READ>
 8001f20:	4605      	mov	r5, r0
 8001f22:	f44f 50a0 	mov.w	r0, #5120	; 0x1400
 8001f26:	f7ff fcab 	bl	8001880 <WIZCHIP_READ>
 8001f2a:	eb00 2005 	add.w	r0, r0, r5, lsl #8
 8001f2e:	e7de      	b.n	8001eee <ctlwizchip+0x3e>
 8001f30:	4b15      	ldr	r3, [pc, #84]	; (8001f88 <ctlwizchip+0xd8>)
 8001f32:	789a      	ldrb	r2, [r3, #2]
 8001f34:	700a      	strb	r2, [r1, #0]
 8001f36:	78da      	ldrb	r2, [r3, #3]
 8001f38:	704a      	strb	r2, [r1, #1]
 8001f3a:	791a      	ldrb	r2, [r3, #4]
 8001f3c:	708a      	strb	r2, [r1, #2]
 8001f3e:	795a      	ldrb	r2, [r3, #5]
 8001f40:	70ca      	strb	r2, [r1, #3]
 8001f42:	799b      	ldrb	r3, [r3, #6]
 8001f44:	710b      	strb	r3, [r1, #4]
 8001f46:	2000      	movs	r0, #0
 8001f48:	7148      	strb	r0, [r1, #5]
 8001f4a:	bd38      	pop	{r3, r4, r5, pc}
 8001f4c:	f7ff ff16 	bl	8001d7c <wizphy_reset>
 8001f50:	e7be      	b.n	8001ed0 <ctlwizchip+0x20>
 8001f52:	4608      	mov	r0, r1
 8001f54:	f7ff ff2a 	bl	8001dac <wizphy_setphyconf>
 8001f58:	e7ba      	b.n	8001ed0 <ctlwizchip+0x20>
 8001f5a:	4608      	mov	r0, r1
 8001f5c:	f7ff ff49 	bl	8001df2 <wizphy_getphyconf>
 8001f60:	e7b6      	b.n	8001ed0 <ctlwizchip+0x20>
 8001f62:	e8bd 4038 	ldmia.w	sp!, {r3, r4, r5, lr}
 8001f66:	7808      	ldrb	r0, [r1, #0]
 8001f68:	f7ff bf78 	b.w	8001e5c <wizphy_setphypmode>
 8001f6c:	f7ff fefa 	bl	8001d64 <wizphy_getphypmode>
 8001f70:	b2c0      	uxtb	r0, r0
 8001f72:	28ff      	cmp	r0, #255	; 0xff
 8001f74:	d004      	beq.n	8001f80 <ctlwizchip+0xd0>
 8001f76:	7020      	strb	r0, [r4, #0]
 8001f78:	e7aa      	b.n	8001ed0 <ctlwizchip+0x20>
 8001f7a:	f7ff feeb 	bl	8001d54 <wizphy_getphylink>
 8001f7e:	e7f7      	b.n	8001f70 <ctlwizchip+0xc0>
 8001f80:	f04f 30ff 	mov.w	r0, #4294967295
 8001f84:	e7e1      	b.n	8001f4a <ctlwizchip+0x9a>
 8001f86:	bf00      	nop
 8001f88:	2000000c 	.word	0x2000000c

08001f8c <wizchip_setnetinfo>:
 8001f8c:	b510      	push	{r4, lr}
 8001f8e:	4601      	mov	r1, r0
 8001f90:	4604      	mov	r4, r0
 8001f92:	2206      	movs	r2, #6
 8001f94:	f44f 6010 	mov.w	r0, #2304	; 0x900
 8001f98:	f7ff fd0c 	bl	80019b4 <WIZCHIP_WRITE_BUF>
 8001f9c:	2204      	movs	r2, #4
 8001f9e:	f104 010e 	add.w	r1, r4, #14
 8001fa2:	f44f 7080 	mov.w	r0, #256	; 0x100
 8001fa6:	f7ff fd05 	bl	80019b4 <WIZCHIP_WRITE_BUF>
 8001faa:	2204      	movs	r2, #4
 8001fac:	f104 010a 	add.w	r1, r4, #10
 8001fb0:	f44f 60a0 	mov.w	r0, #1280	; 0x500
 8001fb4:	f7ff fcfe 	bl	80019b4 <WIZCHIP_WRITE_BUF>
 8001fb8:	2204      	movs	r2, #4
 8001fba:	1da1      	adds	r1, r4, #6
 8001fbc:	f44f 6070 	mov.w	r0, #3840	; 0xf00
 8001fc0:	f7ff fcf8 	bl	80019b4 <WIZCHIP_WRITE_BUF>
 8001fc4:	4b06      	ldr	r3, [pc, #24]	; (8001fe0 <wizchip_setnetinfo+0x54>)
 8001fc6:	7ca2      	ldrb	r2, [r4, #18]
 8001fc8:	701a      	strb	r2, [r3, #0]
 8001fca:	7ce2      	ldrb	r2, [r4, #19]
 8001fcc:	705a      	strb	r2, [r3, #1]
 8001fce:	7d22      	ldrb	r2, [r4, #20]
 8001fd0:	709a      	strb	r2, [r3, #2]
 8001fd2:	7d62      	ldrb	r2, [r4, #21]
 8001fd4:	70da      	strb	r2, [r3, #3]
 8001fd6:	4b03      	ldr	r3, [pc, #12]	; (8001fe4 <wizchip_setnetinfo+0x58>)
 8001fd8:	7da2      	ldrb	r2, [r4, #22]
 8001fda:	701a      	strb	r2, [r3, #0]
 8001fdc:	bd10      	pop	{r4, pc}
 8001fde:	bf00      	nop
 8001fe0:	20000e2d 	.word	0x20000e2d
 8001fe4:	20000e2c 	.word	0x20000e2c

08001fe8 <wizchip_getnetinfo>:
 8001fe8:	b510      	push	{r4, lr}
 8001fea:	4601      	mov	r1, r0
 8001fec:	4604      	mov	r4, r0
 8001fee:	2206      	movs	r2, #6
 8001ff0:	f44f 6010 	mov.w	r0, #2304	; 0x900
 8001ff4:	f7ff fca4 	bl	8001940 <WIZCHIP_READ_BUF>
 8001ff8:	2204      	movs	r2, #4
 8001ffa:	f104 010e 	add.w	r1, r4, #14
 8001ffe:	f44f 7080 	mov.w	r0, #256	; 0x100
 8002002:	f7ff fc9d 	bl	8001940 <WIZCHIP_READ_BUF>
 8002006:	2204      	movs	r2, #4
 8002008:	f104 010a 	add.w	r1, r4, #10
 800200c:	f44f 60a0 	mov.w	r0, #1280	; 0x500
 8002010:	f7ff fc96 	bl	8001940 <WIZCHIP_READ_BUF>
 8002014:	2204      	movs	r2, #4
 8002016:	1da1      	adds	r1, r4, #6
 8002018:	f44f 6070 	mov.w	r0, #3840	; 0xf00
 800201c:	f7ff fc90 	bl	8001940 <WIZCHIP_READ_BUF>
 8002020:	4b06      	ldr	r3, [pc, #24]	; (800203c <wizchip_getnetinfo+0x54>)
 8002022:	781a      	ldrb	r2, [r3, #0]
 8002024:	74a2      	strb	r2, [r4, #18]
 8002026:	785a      	ldrb	r2, [r3, #1]
 8002028:	74e2      	strb	r2, [r4, #19]
 800202a:	789a      	ldrb	r2, [r3, #2]
 800202c:	78db      	ldrb	r3, [r3, #3]
 800202e:	7563      	strb	r3, [r4, #21]
 8002030:	4b03      	ldr	r3, [pc, #12]	; (8002040 <wizchip_getnetinfo+0x58>)
 8002032:	7522      	strb	r2, [r4, #20]
 8002034:	781b      	ldrb	r3, [r3, #0]
 8002036:	75a3      	strb	r3, [r4, #22]
 8002038:	bd10      	pop	{r4, pc}
 800203a:	bf00      	nop
 800203c:	20000e2d 	.word	0x20000e2d
 8002040:	20000e2c 	.word	0x20000e2c

08002044 <Reset_Handler>:
 8002044:	f8df d034 	ldr.w	sp, [pc, #52]	; 800207c <LoopForever+0x2>
 8002048:	480d      	ldr	r0, [pc, #52]	; (8002080 <LoopForever+0x6>)
 800204a:	490e      	ldr	r1, [pc, #56]	; (8002084 <LoopForever+0xa>)
 800204c:	4a0e      	ldr	r2, [pc, #56]	; (8002088 <LoopForever+0xe>)
 800204e:	2300      	movs	r3, #0
 8002050:	e002      	b.n	8002058 <LoopCopyDataInit>

08002052 <CopyDataInit>:
 8002052:	58d4      	ldr	r4, [r2, r3]
 8002054:	50c4      	str	r4, [r0, r3]
 8002056:	3304      	adds	r3, #4

08002058 <LoopCopyDataInit>:
 8002058:	18c4      	adds	r4, r0, r3
 800205a:	428c      	cmp	r4, r1
 800205c:	d3f9      	bcc.n	8002052 <CopyDataInit>
 800205e:	4a0b      	ldr	r2, [pc, #44]	; (800208c <LoopForever+0x12>)
 8002060:	4c0b      	ldr	r4, [pc, #44]	; (8002090 <LoopForever+0x16>)
 8002062:	2300      	movs	r3, #0
 8002064:	e001      	b.n	800206a <LoopFillZerobss>

08002066 <FillZerobss>:
 8002066:	6013      	str	r3, [r2, #0]
 8002068:	3204      	adds	r2, #4

0800206a <LoopFillZerobss>:
 800206a:	42a2      	cmp	r2, r4
 800206c:	d3fb      	bcc.n	8002066 <FillZerobss>
 800206e:	f7ff fbfd 	bl	800186c <SystemInit>
 8002072:	f002 f839 	bl	80040e8 <__libc_init_array>
 8002076:	f7fe fc7f 	bl	8000978 <main>

0800207a <LoopForever>:
 800207a:	e7fe      	b.n	800207a <LoopForever>
 800207c:	20004000 	.word	0x20004000
 8002080:	20000000 	.word	0x20000000
 8002084:	200000a4 	.word	0x200000a4
 8002088:	08004570 	.word	0x08004570
 800208c:	200000a4 	.word	0x200000a4
 8002090:	20000e48 	.word	0x20000e48

08002094 <ADC1_IRQHandler>:
 8002094:	e7fe      	b.n	8002094 <ADC1_IRQHandler>
	...

08002098 <HAL_InitTick>:
 8002098:	b538      	push	{r3, r4, r5, lr}
 800209a:	4a0e      	ldr	r2, [pc, #56]	; (80020d4 <HAL_InitTick+0x3c>)
 800209c:	4b0e      	ldr	r3, [pc, #56]	; (80020d8 <HAL_InitTick+0x40>)
 800209e:	4605      	mov	r5, r0
 80020a0:	7818      	ldrb	r0, [r3, #0]
 80020a2:	f44f 737a 	mov.w	r3, #1000	; 0x3e8
 80020a6:	fbb3 f3f0 	udiv	r3, r3, r0
 80020aa:	6810      	ldr	r0, [r2, #0]
 80020ac:	fbb0 f0f3 	udiv	r0, r0, r3
 80020b0:	f000 f8b4 	bl	800221c <HAL_SYSTICK_Config>
 80020b4:	4604      	mov	r4, r0
 80020b6:	b958      	cbnz	r0, 80020d0 <HAL_InitTick+0x38>
 80020b8:	2d0f      	cmp	r5, #15
 80020ba:	d809      	bhi.n	80020d0 <HAL_InitTick+0x38>
 80020bc:	4602      	mov	r2, r0
 80020be:	4629      	mov	r1, r5
 80020c0:	f04f 30ff 	mov.w	r0, #4294967295
 80020c4:	f000 f856 	bl	8002174 <HAL_NVIC_SetPriority>
 80020c8:	4b04      	ldr	r3, [pc, #16]	; (80020dc <HAL_InitTick+0x44>)
 80020ca:	4620      	mov	r0, r4
 80020cc:	601d      	str	r5, [r3, #0]
 80020ce:	bd38      	pop	{r3, r4, r5, pc}
 80020d0:	2001      	movs	r0, #1
 80020d2:	e7fc      	b.n	80020ce <HAL_InitTick+0x36>
 80020d4:	20000008 	.word	0x20000008
 80020d8:	20000038 	.word	0x20000038
 80020dc:	2000003c 	.word	0x2000003c

080020e0 <HAL_Init>:
 80020e0:	4a07      	ldr	r2, [pc, #28]	; (8002100 <HAL_Init+0x20>)
 80020e2:	b508      	push	{r3, lr}
 80020e4:	6813      	ldr	r3, [r2, #0]
 80020e6:	f043 0310 	orr.w	r3, r3, #16
 80020ea:	6013      	str	r3, [r2, #0]
 80020ec:	2003      	movs	r0, #3
 80020ee:	f000 f82f 	bl	8002150 <HAL_NVIC_SetPriorityGrouping>
 80020f2:	2000      	movs	r0, #0
 80020f4:	f7ff ffd0 	bl	8002098 <HAL_InitTick>
 80020f8:	f7ff fa56 	bl	80015a8 <HAL_MspInit>
 80020fc:	2000      	movs	r0, #0
 80020fe:	bd08      	pop	{r3, pc}
 8002100:	40022000 	.word	0x40022000

08002104 <HAL_IncTick>:
 8002104:	4a03      	ldr	r2, [pc, #12]	; (8002114 <HAL_IncTick+0x10>)
 8002106:	4b04      	ldr	r3, [pc, #16]	; (8002118 <HAL_IncTick+0x14>)
 8002108:	6811      	ldr	r1, [r2, #0]
 800210a:	781b      	ldrb	r3, [r3, #0]
 800210c:	440b      	add	r3, r1
 800210e:	6013      	str	r3, [r2, #0]
 8002110:	4770      	bx	lr
 8002112:	bf00      	nop
 8002114:	20000e34 	.word	0x20000e34
 8002118:	20000038 	.word	0x20000038

0800211c <HAL_GetTick>:
 800211c:	4b01      	ldr	r3, [pc, #4]	; (8002124 <HAL_GetTick+0x8>)
 800211e:	6818      	ldr	r0, [r3, #0]
 8002120:	4770      	bx	lr
 8002122:	bf00      	nop
 8002124:	20000e34 	.word	0x20000e34

08002128 <HAL_Delay>:
 8002128:	b538      	push	{r3, r4, r5, lr}
 800212a:	4604      	mov	r4, r0
 800212c:	f7ff fff6 	bl	800211c <HAL_GetTick>
 8002130:	1c63      	adds	r3, r4, #1
 8002132:	bf1c      	itt	ne
 8002134:	4b05      	ldrne	r3, [pc, #20]	; (800214c <HAL_Delay+0x24>)
 8002136:	781b      	ldrbne	r3, [r3, #0]
 8002138:	4605      	mov	r5, r0
 800213a:	bf18      	it	ne
 800213c:	18e4      	addne	r4, r4, r3
 800213e:	f7ff ffed 	bl	800211c <HAL_GetTick>
 8002142:	1b43      	subs	r3, r0, r5
 8002144:	42a3      	cmp	r3, r4
 8002146:	d3fa      	bcc.n	800213e <HAL_Delay+0x16>
 8002148:	bd38      	pop	{r3, r4, r5, pc}
 800214a:	bf00      	nop
 800214c:	20000038 	.word	0x20000038

08002150 <HAL_NVIC_SetPriorityGrouping>:
 8002150:	4907      	ldr	r1, [pc, #28]	; (8002170 <HAL_NVIC_SetPriorityGrouping+0x20>)
 8002152:	68ca      	ldr	r2, [r1, #12]
 8002154:	f422 62e0 	bic.w	r2, r2, #1792	; 0x700
 8002158:	0203      	lsls	r3, r0, #8
 800215a:	0412      	lsls	r2, r2, #16
 800215c:	f403 63e0 	and.w	r3, r3, #1792	; 0x700
 8002160:	0c12      	lsrs	r2, r2, #16
 8002162:	4313      	orrs	r3, r2
 8002164:	f043 63bf 	orr.w	r3, r3, #100139008	; 0x5f80000
 8002168:	f443 3300 	orr.w	r3, r3, #131072	; 0x20000
 800216c:	60cb      	str	r3, [r1, #12]
 800216e:	4770      	bx	lr
 8002170:	e000ed00 	.word	0xe000ed00

08002174 <HAL_NVIC_SetPriority>:
 8002174:	4b16      	ldr	r3, [pc, #88]	; (80021d0 <HAL_NVIC_SetPriority+0x5c>)
 8002176:	b530      	push	{r4, r5, lr}
 8002178:	68dc      	ldr	r4, [r3, #12]
 800217a:	f3c4 2402 	ubfx	r4, r4, #8, #3
 800217e:	f1c4 0507 	rsb	r5, r4, #7
 8002182:	1d23      	adds	r3, r4, #4
 8002184:	2d04      	cmp	r5, #4
 8002186:	bf28      	it	cs
 8002188:	2504      	movcs	r5, #4
 800218a:	2b06      	cmp	r3, #6
 800218c:	f04f 33ff 	mov.w	r3, #4294967295
 8002190:	bf8c      	ite	hi
 8002192:	3c03      	subhi	r4, #3
 8002194:	2400      	movls	r4, #0
 8002196:	fa03 f505 	lsl.w	r5, r3, r5
 800219a:	ea21 0105 	bic.w	r1, r1, r5
 800219e:	40a3      	lsls	r3, r4
 80021a0:	ea22 0203 	bic.w	r2, r2, r3
 80021a4:	40a1      	lsls	r1, r4
 80021a6:	2800      	cmp	r0, #0
 80021a8:	ea41 0302 	orr.w	r3, r1, r2
 80021ac:	bfac      	ite	ge
 80021ae:	f100 4060 	addge.w	r0, r0, #3758096384	; 0xe0000000
 80021b2:	4a08      	ldrlt	r2, [pc, #32]	; (80021d4 <HAL_NVIC_SetPriority+0x60>)
 80021b4:	ea4f 1303 	mov.w	r3, r3, lsl #4
 80021b8:	bfb8      	it	lt
 80021ba:	f000 000f 	andlt.w	r0, r0, #15
 80021be:	b2db      	uxtb	r3, r3
 80021c0:	bfaa      	itet	ge
 80021c2:	f500 4061 	addge.w	r0, r0, #57600	; 0xe100
 80021c6:	5413      	strblt	r3, [r2, r0]
 80021c8:	f880 3300 	strbge.w	r3, [r0, #768]	; 0x300
 80021cc:	bd30      	pop	{r4, r5, pc}
 80021ce:	bf00      	nop
 80021d0:	e000ed00 	.word	0xe000ed00
 80021d4:	e000ed14 	.word	0xe000ed14

080021d8 <HAL_NVIC_EnableIRQ>:
 80021d8:	2800      	cmp	r0, #0
 80021da:	db08      	blt.n	80021ee <HAL_NVIC_EnableIRQ+0x16>
 80021dc:	0942      	lsrs	r2, r0, #5
 80021de:	2301      	movs	r3, #1
 80021e0:	f000 001f 	and.w	r0, r0, #31
 80021e4:	fa03 f000 	lsl.w	r0, r3, r0
 80021e8:	4b01      	ldr	r3, [pc, #4]	; (80021f0 <HAL_NVIC_EnableIRQ+0x18>)
 80021ea:	f843 0022 	str.w	r0, [r3, r2, lsl #2]
 80021ee:	4770      	bx	lr
 80021f0:	e000e100 	.word	0xe000e100

080021f4 <HAL_NVIC_DisableIRQ>:
 80021f4:	2800      	cmp	r0, #0
 80021f6:	db0d      	blt.n	8002214 <HAL_NVIC_DisableIRQ+0x20>
 80021f8:	0943      	lsrs	r3, r0, #5
 80021fa:	2201      	movs	r2, #1
 80021fc:	f000 001f 	and.w	r0, r0, #31
 8002200:	fa02 f000 	lsl.w	r0, r2, r0
 8002204:	3320      	adds	r3, #32
 8002206:	4a04      	ldr	r2, [pc, #16]	; (8002218 <HAL_NVIC_DisableIRQ+0x24>)
 8002208:	f842 0023 	str.w	r0, [r2, r3, lsl #2]
 800220c:	f3bf 8f4f 	dsb	sy
 8002210:	f3bf 8f6f 	isb	sy
 8002214:	4770      	bx	lr
 8002216:	bf00      	nop
 8002218:	e000e100 	.word	0xe000e100

0800221c <HAL_SYSTICK_Config>:
 800221c:	3801      	subs	r0, #1
 800221e:	f1b0 7f80 	cmp.w	r0, #16777216	; 0x1000000
 8002222:	d20b      	bcs.n	800223c <HAL_SYSTICK_Config+0x20>
 8002224:	f04f 23e0 	mov.w	r3, #3758153728	; 0xe000e000
 8002228:	4a05      	ldr	r2, [pc, #20]	; (8002240 <HAL_SYSTICK_Config+0x24>)
 800222a:	6158      	str	r0, [r3, #20]
 800222c:	21f0      	movs	r1, #240	; 0xf0
 800222e:	f882 1023 	strb.w	r1, [r2, #35]	; 0x23
 8002232:	2000      	movs	r0, #0
 8002234:	2207      	movs	r2, #7
 8002236:	6198      	str	r0, [r3, #24]
 8002238:	611a      	str	r2, [r3, #16]
 800223a:	4770      	bx	lr
 800223c:	2001      	movs	r0, #1
 800223e:	4770      	bx	lr
 8002240:	e000ed00 	.word	0xe000ed00

08002244 <HAL_GPIO_Init>:
 8002244:	e92d 4ff7 	stmdb	sp!, {r0, r1, r2, r4, r5, r6, r7, r8, r9, sl, fp, lr}
 8002248:	f8df 9170 	ldr.w	r9, [pc, #368]	; 80023bc <HAL_GPIO_Init+0x178>
 800224c:	4c59      	ldr	r4, [pc, #356]	; (80023b4 <HAL_GPIO_Init+0x170>)
 800224e:	2300      	movs	r3, #0
 8002250:	680a      	ldr	r2, [r1, #0]
 8002252:	fa32 f503 	lsrs.w	r5, r2, r3
 8002256:	d102      	bne.n	800225e <HAL_GPIO_Init+0x1a>
 8002258:	b003      	add	sp, #12
 800225a:	e8bd 8ff0 	ldmia.w	sp!, {r4, r5, r6, r7, r8, r9, sl, fp, pc}
 800225e:	2501      	movs	r5, #1
 8002260:	fa05 f803 	lsl.w	r8, r5, r3
 8002264:	ea18 0202 	ands.w	r2, r8, r2
 8002268:	f000 809c 	beq.w	80023a4 <HAL_GPIO_Init+0x160>
 800226c:	684e      	ldr	r6, [r1, #4]
 800226e:	2703      	movs	r7, #3
 8002270:	f006 0503 	and.w	r5, r6, #3
 8002274:	ea4f 0e43 	mov.w	lr, r3, lsl #1
 8002278:	fa07 fc0e 	lsl.w	ip, r7, lr
 800227c:	1e6f      	subs	r7, r5, #1
 800227e:	2f01      	cmp	r7, #1
 8002280:	ea6f 0c0c 	mvn.w	ip, ip
 8002284:	d834      	bhi.n	80022f0 <HAL_GPIO_Init+0xac>
 8002286:	6887      	ldr	r7, [r0, #8]
 8002288:	ea07 0a0c 	and.w	sl, r7, ip
 800228c:	68cf      	ldr	r7, [r1, #12]
 800228e:	fa07 f70e 	lsl.w	r7, r7, lr
 8002292:	ea47 070a 	orr.w	r7, r7, sl
 8002296:	6087      	str	r7, [r0, #8]
 8002298:	6847      	ldr	r7, [r0, #4]
 800229a:	ea27 0808 	bic.w	r8, r7, r8
 800229e:	f3c6 1700 	ubfx	r7, r6, #4, #1
 80022a2:	409f      	lsls	r7, r3
 80022a4:	ea47 0708 	orr.w	r7, r7, r8
 80022a8:	6047      	str	r7, [r0, #4]
 80022aa:	68c7      	ldr	r7, [r0, #12]
 80022ac:	ea07 080c 	and.w	r8, r7, ip
 80022b0:	688f      	ldr	r7, [r1, #8]
 80022b2:	fa07 f70e 	lsl.w	r7, r7, lr
 80022b6:	ea47 0708 	orr.w	r7, r7, r8
 80022ba:	2d02      	cmp	r5, #2
 80022bc:	60c7      	str	r7, [r0, #12]
 80022be:	d119      	bne.n	80022f4 <HAL_GPIO_Init+0xb0>
 80022c0:	ea4f 08d3 	mov.w	r8, r3, lsr #3
 80022c4:	eb00 0888 	add.w	r8, r0, r8, lsl #2
 80022c8:	f003 0a07 	and.w	sl, r3, #7
 80022cc:	f8d8 7020 	ldr.w	r7, [r8, #32]
 80022d0:	ea4f 0a8a 	mov.w	sl, sl, lsl #2
 80022d4:	f04f 0b0f 	mov.w	fp, #15
 80022d8:	fa0b fb0a 	lsl.w	fp, fp, sl
 80022dc:	ea27 0b0b 	bic.w	fp, r7, fp
 80022e0:	690f      	ldr	r7, [r1, #16]
 80022e2:	fa07 f70a 	lsl.w	r7, r7, sl
 80022e6:	ea47 070b 	orr.w	r7, r7, fp
 80022ea:	f8c8 7020 	str.w	r7, [r8, #32]
 80022ee:	e001      	b.n	80022f4 <HAL_GPIO_Init+0xb0>
 80022f0:	2d03      	cmp	r5, #3
 80022f2:	d1da      	bne.n	80022aa <HAL_GPIO_Init+0x66>
 80022f4:	6807      	ldr	r7, [r0, #0]
 80022f6:	fa05 f50e 	lsl.w	r5, r5, lr
 80022fa:	ea07 070c 	and.w	r7, r7, ip
 80022fe:	432f      	orrs	r7, r5
 8002300:	f416 3f40 	tst.w	r6, #196608	; 0x30000
 8002304:	6007      	str	r7, [r0, #0]
 8002306:	d04d      	beq.n	80023a4 <HAL_GPIO_Init+0x160>
 8002308:	f8d9 5018 	ldr.w	r5, [r9, #24]
 800230c:	f045 0501 	orr.w	r5, r5, #1
 8002310:	f8c9 5018 	str.w	r5, [r9, #24]
 8002314:	f8d9 5018 	ldr.w	r5, [r9, #24]
 8002318:	f023 0703 	bic.w	r7, r3, #3
 800231c:	f107 4780 	add.w	r7, r7, #1073741824	; 0x40000000
 8002320:	f005 0501 	and.w	r5, r5, #1
 8002324:	f507 3780 	add.w	r7, r7, #65536	; 0x10000
 8002328:	9501      	str	r5, [sp, #4]
 800232a:	f003 0c03 	and.w	ip, r3, #3
 800232e:	9d01      	ldr	r5, [sp, #4]
 8002330:	68bd      	ldr	r5, [r7, #8]
 8002332:	ea4f 0c8c 	mov.w	ip, ip, lsl #2
 8002336:	f04f 0e0f 	mov.w	lr, #15
 800233a:	fa0e fe0c 	lsl.w	lr, lr, ip
 800233e:	f1b0 4f90 	cmp.w	r0, #1207959552	; 0x48000000
 8002342:	ea25 0e0e 	bic.w	lr, r5, lr
 8002346:	d02f      	beq.n	80023a8 <HAL_GPIO_Init+0x164>
 8002348:	4d1b      	ldr	r5, [pc, #108]	; (80023b8 <HAL_GPIO_Init+0x174>)
 800234a:	42a8      	cmp	r0, r5
 800234c:	d02e      	beq.n	80023ac <HAL_GPIO_Init+0x168>
 800234e:	f505 6580 	add.w	r5, r5, #1024	; 0x400
 8002352:	42a8      	cmp	r0, r5
 8002354:	d02c      	beq.n	80023b0 <HAL_GPIO_Init+0x16c>
 8002356:	f505 6580 	add.w	r5, r5, #1024	; 0x400
 800235a:	42a8      	cmp	r0, r5
 800235c:	bf0c      	ite	eq
 800235e:	2503      	moveq	r5, #3
 8002360:	2505      	movne	r5, #5
 8002362:	fa05 f50c 	lsl.w	r5, r5, ip
 8002366:	ea45 050e 	orr.w	r5, r5, lr
 800236a:	60bd      	str	r5, [r7, #8]
 800236c:	6825      	ldr	r5, [r4, #0]
 800236e:	43d7      	mvns	r7, r2
 8002370:	f416 3f80 	tst.w	r6, #65536	; 0x10000
 8002374:	bf0c      	ite	eq
 8002376:	403d      	andeq	r5, r7
 8002378:	4315      	orrne	r5, r2
 800237a:	6025      	str	r5, [r4, #0]
 800237c:	6865      	ldr	r5, [r4, #4]
 800237e:	f416 3f00 	tst.w	r6, #131072	; 0x20000
 8002382:	bf0c      	ite	eq
 8002384:	403d      	andeq	r5, r7
 8002386:	4315      	orrne	r5, r2
 8002388:	6065      	str	r5, [r4, #4]
 800238a:	68a5      	ldr	r5, [r4, #8]
 800238c:	f416 1f80 	tst.w	r6, #1048576	; 0x100000
 8002390:	bf0c      	ite	eq
 8002392:	403d      	andeq	r5, r7
 8002394:	4315      	orrne	r5, r2
 8002396:	60a5      	str	r5, [r4, #8]
 8002398:	68e5      	ldr	r5, [r4, #12]
 800239a:	02b6      	lsls	r6, r6, #10
 800239c:	bf54      	ite	pl
 800239e:	403d      	andpl	r5, r7
 80023a0:	4315      	orrmi	r5, r2
 80023a2:	60e5      	str	r5, [r4, #12]
 80023a4:	3301      	adds	r3, #1
 80023a6:	e753      	b.n	8002250 <HAL_GPIO_Init+0xc>
 80023a8:	2500      	movs	r5, #0
 80023aa:	e7da      	b.n	8002362 <HAL_GPIO_Init+0x11e>
 80023ac:	2501      	movs	r5, #1
 80023ae:	e7d8      	b.n	8002362 <HAL_GPIO_Init+0x11e>
 80023b0:	2502      	movs	r5, #2
 80023b2:	e7d6      	b.n	8002362 <HAL_GPIO_Init+0x11e>
 80023b4:	40010400 	.word	0x40010400
 80023b8:	48000400 	.word	0x48000400
 80023bc:	40021000 	.word	0x40021000

080023c0 <HAL_GPIO_WritePin>:
 80023c0:	b10a      	cbz	r2, 80023c6 <HAL_GPIO_WritePin+0x6>
 80023c2:	6181      	str	r1, [r0, #24]
 80023c4:	4770      	bx	lr
 80023c6:	6281      	str	r1, [r0, #40]	; 0x28
 80023c8:	4770      	bx	lr

080023ca <HAL_GPIO_TogglePin>:
 80023ca:	6943      	ldr	r3, [r0, #20]
 80023cc:	ea01 0203 	and.w	r2, r1, r3
 80023d0:	ea21 0103 	bic.w	r1, r1, r3
 80023d4:	ea41 4102 	orr.w	r1, r1, r2, lsl #16
 80023d8:	6181      	str	r1, [r0, #24]
 80023da:	4770      	bx	lr

080023dc <HAL_GPIO_EXTI_IRQHandler>:
 80023dc:	4a04      	ldr	r2, [pc, #16]	; (80023f0 <HAL_GPIO_EXTI_IRQHandler+0x14>)
 80023de:	6951      	ldr	r1, [r2, #20]
 80023e0:	4201      	tst	r1, r0
 80023e2:	b508      	push	{r3, lr}
 80023e4:	d002      	beq.n	80023ec <HAL_GPIO_EXTI_IRQHandler+0x10>
 80023e6:	6150      	str	r0, [r2, #20]
 80023e8:	f7fe fc98 	bl	8000d1c <HAL_GPIO_EXTI_Callback>
 80023ec:	bd08      	pop	{r3, pc}
 80023ee:	bf00      	nop
 80023f0:	40010400 	.word	0x40010400

080023f4 <HAL_PWR_EnableBkUpAccess>:
 80023f4:	4a02      	ldr	r2, [pc, #8]	; (8002400 <HAL_PWR_EnableBkUpAccess+0xc>)
 80023f6:	6813      	ldr	r3, [r2, #0]
 80023f8:	f443 7380 	orr.w	r3, r3, #256	; 0x100
 80023fc:	6013      	str	r3, [r2, #0]
 80023fe:	4770      	bx	lr
 8002400:	40007000 	.word	0x40007000

08002404 <HAL_RCC_OscConfig>:
 8002404:	e92d 43f7 	stmdb	sp!, {r0, r1, r2, r4, r5, r6, r7, r8, r9, lr}
 8002408:	4605      	mov	r5, r0
 800240a:	2800      	cmp	r0, #0
 800240c:	d035      	beq.n	800247a <HAL_RCC_OscConfig+0x76>
 800240e:	6803      	ldr	r3, [r0, #0]
 8002410:	07da      	lsls	r2, r3, #31
 8002412:	d411      	bmi.n	8002438 <HAL_RCC_OscConfig+0x34>
 8002414:	682b      	ldr	r3, [r5, #0]
 8002416:	079b      	lsls	r3, r3, #30
 8002418:	f100 8088 	bmi.w	800252c <HAL_RCC_OscConfig+0x128>
 800241c:	682b      	ldr	r3, [r5, #0]
 800241e:	071c      	lsls	r4, r3, #28
 8002420:	f100 80f8 	bmi.w	8002614 <HAL_RCC_OscConfig+0x210>
 8002424:	682b      	ldr	r3, [r5, #0]
 8002426:	0758      	lsls	r0, r3, #29
 8002428:	f100 8146 	bmi.w	80026b8 <HAL_RCC_OscConfig+0x2b4>
 800242c:	69e8      	ldr	r0, [r5, #28]
 800242e:	2800      	cmp	r0, #0
 8002430:	f040 81d4 	bne.w	80027dc <HAL_RCC_OscConfig+0x3d8>
 8002434:	2000      	movs	r0, #0
 8002436:	e04b      	b.n	80024d0 <HAL_RCC_OscConfig+0xcc>
 8002438:	4c9d      	ldr	r4, [pc, #628]	; (80026b0 <HAL_RCC_OscConfig+0x2ac>)
 800243a:	6863      	ldr	r3, [r4, #4]
 800243c:	f003 030c 	and.w	r3, r3, #12
 8002440:	2b04      	cmp	r3, #4
 8002442:	d007      	beq.n	8002454 <HAL_RCC_OscConfig+0x50>
 8002444:	6863      	ldr	r3, [r4, #4]
 8002446:	f003 030c 	and.w	r3, r3, #12
 800244a:	2b08      	cmp	r3, #8
 800244c:	d117      	bne.n	800247e <HAL_RCC_OscConfig+0x7a>
 800244e:	6863      	ldr	r3, [r4, #4]
 8002450:	03df      	lsls	r7, r3, #15
 8002452:	d514      	bpl.n	800247e <HAL_RCC_OscConfig+0x7a>
 8002454:	f44f 3300 	mov.w	r3, #131072	; 0x20000
 8002458:	fa93 f2a3 	rbit	r2, r3
 800245c:	6821      	ldr	r1, [r4, #0]
 800245e:	fa93 f3a3 	rbit	r3, r3
 8002462:	fab3 f383 	clz	r3, r3
 8002466:	f003 031f 	and.w	r3, r3, #31
 800246a:	2201      	movs	r2, #1
 800246c:	fa02 f303 	lsl.w	r3, r2, r3
 8002470:	420b      	tst	r3, r1
 8002472:	d0cf      	beq.n	8002414 <HAL_RCC_OscConfig+0x10>
 8002474:	686b      	ldr	r3, [r5, #4]
 8002476:	2b00      	cmp	r3, #0
 8002478:	d1cc      	bne.n	8002414 <HAL_RCC_OscConfig+0x10>
 800247a:	2001      	movs	r0, #1
 800247c:	e028      	b.n	80024d0 <HAL_RCC_OscConfig+0xcc>
 800247e:	686a      	ldr	r2, [r5, #4]
 8002480:	f5b2 3f80 	cmp.w	r2, #65536	; 0x10000
 8002484:	d127      	bne.n	80024d6 <HAL_RCC_OscConfig+0xd2>
 8002486:	6823      	ldr	r3, [r4, #0]
 8002488:	f443 3380 	orr.w	r3, r3, #65536	; 0x10000
 800248c:	6023      	str	r3, [r4, #0]
 800248e:	6ae3      	ldr	r3, [r4, #44]	; 0x2c
 8002490:	68a9      	ldr	r1, [r5, #8]
 8002492:	f023 030f 	bic.w	r3, r3, #15
 8002496:	430b      	orrs	r3, r1
 8002498:	62e3      	str	r3, [r4, #44]	; 0x2c
 800249a:	b362      	cbz	r2, 80024f6 <HAL_RCC_OscConfig+0xf2>
 800249c:	f7ff fe3e 	bl	800211c <HAL_GetTick>
 80024a0:	f44f 3700 	mov.w	r7, #131072	; 0x20000
 80024a4:	4606      	mov	r6, r0
 80024a6:	f04f 0801 	mov.w	r8, #1
 80024aa:	fa97 f3a7 	rbit	r3, r7
 80024ae:	6822      	ldr	r2, [r4, #0]
 80024b0:	fa97 f3a7 	rbit	r3, r7
 80024b4:	fab3 f383 	clz	r3, r3
 80024b8:	f003 031f 	and.w	r3, r3, #31
 80024bc:	fa08 f303 	lsl.w	r3, r8, r3
 80024c0:	4213      	tst	r3, r2
 80024c2:	d1a7      	bne.n	8002414 <HAL_RCC_OscConfig+0x10>
 80024c4:	f7ff fe2a 	bl	800211c <HAL_GetTick>
 80024c8:	1b83      	subs	r3, r0, r6
 80024ca:	2b64      	cmp	r3, #100	; 0x64
 80024cc:	d9ed      	bls.n	80024aa <HAL_RCC_OscConfig+0xa6>
 80024ce:	2003      	movs	r0, #3
 80024d0:	b003      	add	sp, #12
 80024d2:	e8bd 83f0 	ldmia.w	sp!, {r4, r5, r6, r7, r8, r9, pc}
 80024d6:	6823      	ldr	r3, [r4, #0]
 80024d8:	b932      	cbnz	r2, 80024e8 <HAL_RCC_OscConfig+0xe4>
 80024da:	f423 3380 	bic.w	r3, r3, #65536	; 0x10000
 80024de:	6023      	str	r3, [r4, #0]
 80024e0:	6823      	ldr	r3, [r4, #0]
 80024e2:	f423 2380 	bic.w	r3, r3, #262144	; 0x40000
 80024e6:	e7d1      	b.n	800248c <HAL_RCC_OscConfig+0x88>
 80024e8:	f5b2 2fa0 	cmp.w	r2, #327680	; 0x50000
 80024ec:	d1f5      	bne.n	80024da <HAL_RCC_OscConfig+0xd6>
 80024ee:	f443 2380 	orr.w	r3, r3, #262144	; 0x40000
 80024f2:	6023      	str	r3, [r4, #0]
 80024f4:	e7c7      	b.n	8002486 <HAL_RCC_OscConfig+0x82>
 80024f6:	f7ff fe11 	bl	800211c <HAL_GetTick>
 80024fa:	f44f 3700 	mov.w	r7, #131072	; 0x20000
 80024fe:	4606      	mov	r6, r0
 8002500:	f04f 0801 	mov.w	r8, #1
 8002504:	fa97 f3a7 	rbit	r3, r7
 8002508:	6822      	ldr	r2, [r4, #0]
 800250a:	fa97 f3a7 	rbit	r3, r7
 800250e:	fab3 f383 	clz	r3, r3
 8002512:	f003 031f 	and.w	r3, r3, #31
 8002516:	fa08 f303 	lsl.w	r3, r8, r3
 800251a:	4213      	tst	r3, r2
 800251c:	f43f af7a 	beq.w	8002414 <HAL_RCC_OscConfig+0x10>
 8002520:	f7ff fdfc 	bl	800211c <HAL_GetTick>
 8002524:	1b83      	subs	r3, r0, r6
 8002526:	2b64      	cmp	r3, #100	; 0x64
 8002528:	d9ec      	bls.n	8002504 <HAL_RCC_OscConfig+0x100>
 800252a:	e7d0      	b.n	80024ce <HAL_RCC_OscConfig+0xca>
 800252c:	4c60      	ldr	r4, [pc, #384]	; (80026b0 <HAL_RCC_OscConfig+0x2ac>)
 800252e:	6863      	ldr	r3, [r4, #4]
 8002530:	f013 0f0c 	tst.w	r3, #12
 8002534:	d007      	beq.n	8002546 <HAL_RCC_OscConfig+0x142>
 8002536:	6863      	ldr	r3, [r4, #4]
 8002538:	f003 030c 	and.w	r3, r3, #12
 800253c:	2b08      	cmp	r3, #8
 800253e:	d121      	bne.n	8002584 <HAL_RCC_OscConfig+0x180>
 8002540:	6863      	ldr	r3, [r4, #4]
 8002542:	03de      	lsls	r6, r3, #15
 8002544:	d41e      	bmi.n	8002584 <HAL_RCC_OscConfig+0x180>
 8002546:	2302      	movs	r3, #2
 8002548:	fa93 f2a3 	rbit	r2, r3
 800254c:	6821      	ldr	r1, [r4, #0]
 800254e:	fa93 f3a3 	rbit	r3, r3
 8002552:	fab3 f383 	clz	r3, r3
 8002556:	f003 031f 	and.w	r3, r3, #31
 800255a:	2201      	movs	r2, #1
 800255c:	fa02 f303 	lsl.w	r3, r2, r3
 8002560:	420b      	tst	r3, r1
 8002562:	d002      	beq.n	800256a <HAL_RCC_OscConfig+0x166>
 8002564:	692b      	ldr	r3, [r5, #16]
 8002566:	4293      	cmp	r3, r2
 8002568:	d187      	bne.n	800247a <HAL_RCC_OscConfig+0x76>
 800256a:	6821      	ldr	r1, [r4, #0]
 800256c:	23f8      	movs	r3, #248	; 0xf8
 800256e:	fa93 f3a3 	rbit	r3, r3
 8002572:	fab3 f283 	clz	r2, r3
 8002576:	696b      	ldr	r3, [r5, #20]
 8002578:	4093      	lsls	r3, r2
 800257a:	f021 02f8 	bic.w	r2, r1, #248	; 0xf8
 800257e:	4313      	orrs	r3, r2
 8002580:	6023      	str	r3, [r4, #0]
 8002582:	e74b      	b.n	800241c <HAL_RCC_OscConfig+0x18>
 8002584:	692a      	ldr	r2, [r5, #16]
 8002586:	2601      	movs	r6, #1
 8002588:	b30a      	cbz	r2, 80025ce <HAL_RCC_OscConfig+0x1ca>
 800258a:	fa96 f3a6 	rbit	r3, r6
 800258e:	fab3 f383 	clz	r3, r3
 8002592:	f103 5384 	add.w	r3, r3, #276824064	; 0x10800000
 8002596:	f503 1384 	add.w	r3, r3, #1081344	; 0x108000
 800259a:	009b      	lsls	r3, r3, #2
 800259c:	f04f 0802 	mov.w	r8, #2
 80025a0:	601e      	str	r6, [r3, #0]
 80025a2:	f7ff fdbb 	bl	800211c <HAL_GetTick>
 80025a6:	4607      	mov	r7, r0
 80025a8:	fa98 f3a8 	rbit	r3, r8
 80025ac:	6822      	ldr	r2, [r4, #0]
 80025ae:	fa98 f3a8 	rbit	r3, r8
 80025b2:	fab3 f383 	clz	r3, r3
 80025b6:	f003 031f 	and.w	r3, r3, #31
 80025ba:	fa06 f303 	lsl.w	r3, r6, r3
 80025be:	4213      	tst	r3, r2
 80025c0:	d1d3      	bne.n	800256a <HAL_RCC_OscConfig+0x166>
 80025c2:	f7ff fdab 	bl	800211c <HAL_GetTick>
 80025c6:	1bc3      	subs	r3, r0, r7
 80025c8:	2b02      	cmp	r3, #2
 80025ca:	d9ed      	bls.n	80025a8 <HAL_RCC_OscConfig+0x1a4>
 80025cc:	e77f      	b.n	80024ce <HAL_RCC_OscConfig+0xca>
 80025ce:	fa96 f3a6 	rbit	r3, r6
 80025d2:	fab3 f383 	clz	r3, r3
 80025d6:	f103 5384 	add.w	r3, r3, #276824064	; 0x10800000
 80025da:	f503 1384 	add.w	r3, r3, #1081344	; 0x108000
 80025de:	009b      	lsls	r3, r3, #2
 80025e0:	f04f 0802 	mov.w	r8, #2
 80025e4:	601a      	str	r2, [r3, #0]
 80025e6:	f7ff fd99 	bl	800211c <HAL_GetTick>
 80025ea:	4607      	mov	r7, r0
 80025ec:	fa98 f3a8 	rbit	r3, r8
 80025f0:	6822      	ldr	r2, [r4, #0]
 80025f2:	fa98 f3a8 	rbit	r3, r8
 80025f6:	fab3 f383 	clz	r3, r3
 80025fa:	f003 031f 	and.w	r3, r3, #31
 80025fe:	fa06 f303 	lsl.w	r3, r6, r3
 8002602:	4213      	tst	r3, r2
 8002604:	f43f af0a 	beq.w	800241c <HAL_RCC_OscConfig+0x18>
 8002608:	f7ff fd88 	bl	800211c <HAL_GetTick>
 800260c:	1bc3      	subs	r3, r0, r7
 800260e:	2b02      	cmp	r3, #2
 8002610:	d9ec      	bls.n	80025ec <HAL_RCC_OscConfig+0x1e8>
 8002612:	e75c      	b.n	80024ce <HAL_RCC_OscConfig+0xca>
 8002614:	69aa      	ldr	r2, [r5, #24]
 8002616:	4e26      	ldr	r6, [pc, #152]	; (80026b0 <HAL_RCC_OscConfig+0x2ac>)
 8002618:	4926      	ldr	r1, [pc, #152]	; (80026b4 <HAL_RCC_OscConfig+0x2b0>)
 800261a:	2401      	movs	r4, #1
 800261c:	b31a      	cbz	r2, 8002666 <HAL_RCC_OscConfig+0x262>
 800261e:	fa94 f3a4 	rbit	r3, r4
 8002622:	fab3 f383 	clz	r3, r3
 8002626:	440b      	add	r3, r1
 8002628:	009b      	lsls	r3, r3, #2
 800262a:	2702      	movs	r7, #2
 800262c:	601c      	str	r4, [r3, #0]
 800262e:	f7ff fd75 	bl	800211c <HAL_GetTick>
 8002632:	4680      	mov	r8, r0
 8002634:	fa97 f3a7 	rbit	r3, r7
 8002638:	fa97 f3a7 	rbit	r3, r7
 800263c:	fa97 f3a7 	rbit	r3, r7
 8002640:	6a72      	ldr	r2, [r6, #36]	; 0x24
 8002642:	fa97 f3a7 	rbit	r3, r7
 8002646:	fab3 f383 	clz	r3, r3
 800264a:	f003 031f 	and.w	r3, r3, #31
 800264e:	fa04 f303 	lsl.w	r3, r4, r3
 8002652:	4213      	tst	r3, r2
 8002654:	f47f aee6 	bne.w	8002424 <HAL_RCC_OscConfig+0x20>
 8002658:	f7ff fd60 	bl	800211c <HAL_GetTick>
 800265c:	eba0 0308 	sub.w	r3, r0, r8
 8002660:	2b02      	cmp	r3, #2
 8002662:	d9e7      	bls.n	8002634 <HAL_RCC_OscConfig+0x230>
 8002664:	e733      	b.n	80024ce <HAL_RCC_OscConfig+0xca>
 8002666:	fa94 f3a4 	rbit	r3, r4
 800266a:	fab3 f383 	clz	r3, r3
 800266e:	440b      	add	r3, r1
 8002670:	009b      	lsls	r3, r3, #2
 8002672:	2702      	movs	r7, #2
 8002674:	601a      	str	r2, [r3, #0]
 8002676:	f7ff fd51 	bl	800211c <HAL_GetTick>
 800267a:	4680      	mov	r8, r0
 800267c:	fa97 f3a7 	rbit	r3, r7
 8002680:	fa97 f3a7 	rbit	r3, r7
 8002684:	fa97 f3a7 	rbit	r3, r7
 8002688:	6a72      	ldr	r2, [r6, #36]	; 0x24
 800268a:	fa97 f3a7 	rbit	r3, r7
 800268e:	fab3 f383 	clz	r3, r3
 8002692:	f003 031f 	and.w	r3, r3, #31
 8002696:	fa04 f303 	lsl.w	r3, r4, r3
 800269a:	4213      	tst	r3, r2
 800269c:	f43f aec2 	beq.w	8002424 <HAL_RCC_OscConfig+0x20>
 80026a0:	f7ff fd3c 	bl	800211c <HAL_GetTick>
 80026a4:	eba0 0308 	sub.w	r3, r0, r8
 80026a8:	2b02      	cmp	r3, #2
 80026aa:	d9e7      	bls.n	800267c <HAL_RCC_OscConfig+0x278>
 80026ac:	e70f      	b.n	80024ce <HAL_RCC_OscConfig+0xca>
 80026ae:	bf00      	nop
 80026b0:	40021000 	.word	0x40021000
 80026b4:	10908120 	.word	0x10908120
 80026b8:	4c91      	ldr	r4, [pc, #580]	; (8002900 <HAL_RCC_OscConfig+0x4fc>)
 80026ba:	69e3      	ldr	r3, [r4, #28]
 80026bc:	00d9      	lsls	r1, r3, #3
 80026be:	d433      	bmi.n	8002728 <HAL_RCC_OscConfig+0x324>
 80026c0:	69e3      	ldr	r3, [r4, #28]
 80026c2:	f043 5380 	orr.w	r3, r3, #268435456	; 0x10000000
 80026c6:	61e3      	str	r3, [r4, #28]
 80026c8:	69e3      	ldr	r3, [r4, #28]
 80026ca:	f003 5380 	and.w	r3, r3, #268435456	; 0x10000000
 80026ce:	9301      	str	r3, [sp, #4]
 80026d0:	9b01      	ldr	r3, [sp, #4]
 80026d2:	2601      	movs	r6, #1
 80026d4:	4f8b      	ldr	r7, [pc, #556]	; (8002904 <HAL_RCC_OscConfig+0x500>)
 80026d6:	683b      	ldr	r3, [r7, #0]
 80026d8:	05da      	lsls	r2, r3, #23
 80026da:	d527      	bpl.n	800272c <HAL_RCC_OscConfig+0x328>
 80026dc:	68eb      	ldr	r3, [r5, #12]
 80026de:	2b01      	cmp	r3, #1
 80026e0:	d135      	bne.n	800274e <HAL_RCC_OscConfig+0x34a>
 80026e2:	6a23      	ldr	r3, [r4, #32]
 80026e4:	f043 0301 	orr.w	r3, r3, #1
 80026e8:	6223      	str	r3, [r4, #32]
 80026ea:	f7ff fd17 	bl	800211c <HAL_GetTick>
 80026ee:	2702      	movs	r7, #2
 80026f0:	4680      	mov	r8, r0
 80026f2:	f04f 0901 	mov.w	r9, #1
 80026f6:	fa97 f3a7 	rbit	r3, r7
 80026fa:	fa97 f3a7 	rbit	r3, r7
 80026fe:	2b00      	cmp	r3, #0
 8002700:	d064      	beq.n	80027cc <HAL_RCC_OscConfig+0x3c8>
 8002702:	6a22      	ldr	r2, [r4, #32]
 8002704:	fa97 f3a7 	rbit	r3, r7
 8002708:	fab3 f383 	clz	r3, r3
 800270c:	f003 031f 	and.w	r3, r3, #31
 8002710:	fa09 f303 	lsl.w	r3, r9, r3
 8002714:	4213      	tst	r3, r2
 8002716:	d050      	beq.n	80027ba <HAL_RCC_OscConfig+0x3b6>
 8002718:	2e00      	cmp	r6, #0
 800271a:	f43f ae87 	beq.w	800242c <HAL_RCC_OscConfig+0x28>
 800271e:	69e3      	ldr	r3, [r4, #28]
 8002720:	f023 5380 	bic.w	r3, r3, #268435456	; 0x10000000
 8002724:	61e3      	str	r3, [r4, #28]
 8002726:	e681      	b.n	800242c <HAL_RCC_OscConfig+0x28>
 8002728:	2600      	movs	r6, #0
 800272a:	e7d3      	b.n	80026d4 <HAL_RCC_OscConfig+0x2d0>
 800272c:	683b      	ldr	r3, [r7, #0]
 800272e:	f443 7380 	orr.w	r3, r3, #256	; 0x100
 8002732:	603b      	str	r3, [r7, #0]
 8002734:	f7ff fcf2 	bl	800211c <HAL_GetTick>
 8002738:	4680      	mov	r8, r0
 800273a:	683b      	ldr	r3, [r7, #0]
 800273c:	05db      	lsls	r3, r3, #23
 800273e:	d4cd      	bmi.n	80026dc <HAL_RCC_OscConfig+0x2d8>
 8002740:	f7ff fcec 	bl	800211c <HAL_GetTick>
 8002744:	eba0 0008 	sub.w	r0, r0, r8
 8002748:	2864      	cmp	r0, #100	; 0x64
 800274a:	d9f6      	bls.n	800273a <HAL_RCC_OscConfig+0x336>
 800274c:	e6bf      	b.n	80024ce <HAL_RCC_OscConfig+0xca>
 800274e:	bb33      	cbnz	r3, 800279e <HAL_RCC_OscConfig+0x39a>
 8002750:	6a23      	ldr	r3, [r4, #32]
 8002752:	f023 0301 	bic.w	r3, r3, #1
 8002756:	6223      	str	r3, [r4, #32]
 8002758:	6a23      	ldr	r3, [r4, #32]
 800275a:	f023 0304 	bic.w	r3, r3, #4
 800275e:	6223      	str	r3, [r4, #32]
 8002760:	f7ff fcdc 	bl	800211c <HAL_GetTick>
 8002764:	2702      	movs	r7, #2
 8002766:	4680      	mov	r8, r0
 8002768:	f04f 0901 	mov.w	r9, #1
 800276c:	fa97 f3a7 	rbit	r3, r7
 8002770:	fa97 f3a7 	rbit	r3, r7
 8002774:	b373      	cbz	r3, 80027d4 <HAL_RCC_OscConfig+0x3d0>
 8002776:	6a22      	ldr	r2, [r4, #32]
 8002778:	fa97 f3a7 	rbit	r3, r7
 800277c:	fab3 f383 	clz	r3, r3
 8002780:	f003 031f 	and.w	r3, r3, #31
 8002784:	fa09 f303 	lsl.w	r3, r9, r3
 8002788:	4213      	tst	r3, r2
 800278a:	d0c5      	beq.n	8002718 <HAL_RCC_OscConfig+0x314>
 800278c:	f7ff fcc6 	bl	800211c <HAL_GetTick>
 8002790:	f241 3388 	movw	r3, #5000	; 0x1388
 8002794:	eba0 0008 	sub.w	r0, r0, r8
 8002798:	4298      	cmp	r0, r3
 800279a:	d9e7      	bls.n	800276c <HAL_RCC_OscConfig+0x368>
 800279c:	e697      	b.n	80024ce <HAL_RCC_OscConfig+0xca>
 800279e:	2b05      	cmp	r3, #5
 80027a0:	6a23      	ldr	r3, [r4, #32]
 80027a2:	d103      	bne.n	80027ac <HAL_RCC_OscConfig+0x3a8>
 80027a4:	f043 0304 	orr.w	r3, r3, #4
 80027a8:	6223      	str	r3, [r4, #32]
 80027aa:	e79a      	b.n	80026e2 <HAL_RCC_OscConfig+0x2de>
 80027ac:	f023 0301 	bic.w	r3, r3, #1
 80027b0:	6223      	str	r3, [r4, #32]
 80027b2:	6a23      	ldr	r3, [r4, #32]
 80027b4:	f023 0304 	bic.w	r3, r3, #4
 80027b8:	e796      	b.n	80026e8 <HAL_RCC_OscConfig+0x2e4>
 80027ba:	f7ff fcaf 	bl	800211c <HAL_GetTick>
 80027be:	f241 3388 	movw	r3, #5000	; 0x1388
 80027c2:	eba0 0008 	sub.w	r0, r0, r8
 80027c6:	4298      	cmp	r0, r3
 80027c8:	d995      	bls.n	80026f6 <HAL_RCC_OscConfig+0x2f2>
 80027ca:	e680      	b.n	80024ce <HAL_RCC_OscConfig+0xca>
 80027cc:	fa97 f3a7 	rbit	r3, r7
 80027d0:	6a62      	ldr	r2, [r4, #36]	; 0x24
 80027d2:	e797      	b.n	8002704 <HAL_RCC_OscConfig+0x300>
 80027d4:	fa97 f3a7 	rbit	r3, r7
 80027d8:	6a62      	ldr	r2, [r4, #36]	; 0x24
 80027da:	e7cd      	b.n	8002778 <HAL_RCC_OscConfig+0x374>
 80027dc:	4c48      	ldr	r4, [pc, #288]	; (8002900 <HAL_RCC_OscConfig+0x4fc>)
 80027de:	6863      	ldr	r3, [r4, #4]
 80027e0:	f003 030c 	and.w	r3, r3, #12
 80027e4:	2b08      	cmp	r3, #8
 80027e6:	d07a      	beq.n	80028de <HAL_RCC_OscConfig+0x4da>
 80027e8:	2802      	cmp	r0, #2
 80027ea:	f04f 7380 	mov.w	r3, #16777216	; 0x1000000
 80027ee:	d151      	bne.n	8002894 <HAL_RCC_OscConfig+0x490>
 80027f0:	fa93 f3a3 	rbit	r3, r3
 80027f4:	fab3 f383 	clz	r3, r3
 80027f8:	f103 5384 	add.w	r3, r3, #276824064	; 0x10800000
 80027fc:	f503 1384 	add.w	r3, r3, #1081344	; 0x108000
 8002800:	009b      	lsls	r3, r3, #2
 8002802:	2200      	movs	r2, #0
 8002804:	601a      	str	r2, [r3, #0]
 8002806:	f7ff fc89 	bl	800211c <HAL_GetTick>
 800280a:	f04f 7800 	mov.w	r8, #33554432	; 0x2000000
 800280e:	4607      	mov	r7, r0
 8002810:	2601      	movs	r6, #1
 8002812:	fa98 f3a8 	rbit	r3, r8
 8002816:	6822      	ldr	r2, [r4, #0]
 8002818:	fa98 f3a8 	rbit	r3, r8
 800281c:	fab3 f383 	clz	r3, r3
 8002820:	f003 031f 	and.w	r3, r3, #31
 8002824:	fa06 f303 	lsl.w	r3, r6, r3
 8002828:	4213      	tst	r3, r2
 800282a:	d12d      	bne.n	8002888 <HAL_RCC_OscConfig+0x484>
 800282c:	e9d5 1308 	ldrd	r1, r3, [r5, #32]
 8002830:	6862      	ldr	r2, [r4, #4]
 8002832:	430b      	orrs	r3, r1
 8002834:	f422 1274 	bic.w	r2, r2, #3997696	; 0x3d0000
 8002838:	4313      	orrs	r3, r2
 800283a:	6063      	str	r3, [r4, #4]
 800283c:	f04f 7380 	mov.w	r3, #16777216	; 0x1000000
 8002840:	fa93 f3a3 	rbit	r3, r3
 8002844:	fab3 f383 	clz	r3, r3
 8002848:	f103 5384 	add.w	r3, r3, #276824064	; 0x10800000
 800284c:	f503 1384 	add.w	r3, r3, #1081344	; 0x108000
 8002850:	009b      	lsls	r3, r3, #2
 8002852:	2701      	movs	r7, #1
 8002854:	601e      	str	r6, [r3, #0]
 8002856:	f7ff fc61 	bl	800211c <HAL_GetTick>
 800285a:	f04f 7600 	mov.w	r6, #33554432	; 0x2000000
 800285e:	4605      	mov	r5, r0
 8002860:	fa96 f3a6 	rbit	r3, r6
 8002864:	6822      	ldr	r2, [r4, #0]
 8002866:	fa96 f3a6 	rbit	r3, r6
 800286a:	fab3 f383 	clz	r3, r3
 800286e:	f003 031f 	and.w	r3, r3, #31
 8002872:	fa07 f303 	lsl.w	r3, r7, r3
 8002876:	4213      	tst	r3, r2
 8002878:	f47f addc 	bne.w	8002434 <HAL_RCC_OscConfig+0x30>
 800287c:	f7ff fc4e 	bl	800211c <HAL_GetTick>
 8002880:	1b40      	subs	r0, r0, r5
 8002882:	2802      	cmp	r0, #2
 8002884:	d9ec      	bls.n	8002860 <HAL_RCC_OscConfig+0x45c>
 8002886:	e622      	b.n	80024ce <HAL_RCC_OscConfig+0xca>
 8002888:	f7ff fc48 	bl	800211c <HAL_GetTick>
 800288c:	1bc3      	subs	r3, r0, r7
 800288e:	2b02      	cmp	r3, #2
 8002890:	d9bf      	bls.n	8002812 <HAL_RCC_OscConfig+0x40e>
 8002892:	e61c      	b.n	80024ce <HAL_RCC_OscConfig+0xca>
 8002894:	fa93 f3a3 	rbit	r3, r3
 8002898:	fab3 f383 	clz	r3, r3
 800289c:	f103 5384 	add.w	r3, r3, #276824064	; 0x10800000
 80028a0:	f503 1384 	add.w	r3, r3, #1081344	; 0x108000
 80028a4:	009b      	lsls	r3, r3, #2
 80028a6:	2200      	movs	r2, #0
 80028a8:	601a      	str	r2, [r3, #0]
 80028aa:	f7ff fc37 	bl	800211c <HAL_GetTick>
 80028ae:	f04f 7600 	mov.w	r6, #33554432	; 0x2000000
 80028b2:	4605      	mov	r5, r0
 80028b4:	2701      	movs	r7, #1
 80028b6:	fa96 f3a6 	rbit	r3, r6
 80028ba:	6822      	ldr	r2, [r4, #0]
 80028bc:	fa96 f3a6 	rbit	r3, r6
 80028c0:	fab3 f383 	clz	r3, r3
 80028c4:	f003 031f 	and.w	r3, r3, #31
 80028c8:	fa07 f303 	lsl.w	r3, r7, r3
 80028cc:	4213      	tst	r3, r2
 80028ce:	f43f adb1 	beq.w	8002434 <HAL_RCC_OscConfig+0x30>
 80028d2:	f7ff fc23 	bl	800211c <HAL_GetTick>
 80028d6:	1b40      	subs	r0, r0, r5
 80028d8:	2802      	cmp	r0, #2
 80028da:	d9ec      	bls.n	80028b6 <HAL_RCC_OscConfig+0x4b2>
 80028dc:	e5f7      	b.n	80024ce <HAL_RCC_OscConfig+0xca>
 80028de:	2801      	cmp	r0, #1
 80028e0:	f43f adf6 	beq.w	80024d0 <HAL_RCC_OscConfig+0xcc>
 80028e4:	6863      	ldr	r3, [r4, #4]
 80028e6:	6a2a      	ldr	r2, [r5, #32]
 80028e8:	f403 3180 	and.w	r1, r3, #65536	; 0x10000
 80028ec:	4291      	cmp	r1, r2
 80028ee:	f47f adc4 	bne.w	800247a <HAL_RCC_OscConfig+0x76>
 80028f2:	6a6a      	ldr	r2, [r5, #36]	; 0x24
 80028f4:	f403 1370 	and.w	r3, r3, #3932160	; 0x3c0000
 80028f8:	4293      	cmp	r3, r2
 80028fa:	f43f ad9b 	beq.w	8002434 <HAL_RCC_OscConfig+0x30>
 80028fe:	e5bc      	b.n	800247a <HAL_RCC_OscConfig+0x76>
 8002900:	40021000 	.word	0x40021000
 8002904:	40007000 	.word	0x40007000

08002908 <HAL_RCC_GetSysClockFreq>:
 8002908:	b510      	push	{r4, lr}
 800290a:	4c15      	ldr	r4, [pc, #84]	; (8002960 <HAL_RCC_GetSysClockFreq+0x58>)
 800290c:	6861      	ldr	r1, [r4, #4]
 800290e:	f001 030c 	and.w	r3, r1, #12
 8002912:	2b04      	cmp	r3, #4
 8002914:	d020      	beq.n	8002958 <HAL_RCC_GetSysClockFreq+0x50>
 8002916:	2b08      	cmp	r3, #8
 8002918:	d120      	bne.n	800295c <HAL_RCC_GetSysClockFreq+0x54>
 800291a:	f44f 1370 	mov.w	r3, #3932160	; 0x3c0000
 800291e:	fa93 f3a3 	rbit	r3, r3
 8002922:	f401 1270 	and.w	r2, r1, #3932160	; 0x3c0000
 8002926:	fab3 f383 	clz	r3, r3
 800292a:	fa22 f303 	lsr.w	r3, r2, r3
 800292e:	4a0d      	ldr	r2, [pc, #52]	; (8002964 <HAL_RCC_GetSysClockFreq+0x5c>)
 8002930:	5cd0      	ldrb	r0, [r2, r3]
 8002932:	6ae3      	ldr	r3, [r4, #44]	; 0x2c
 8002934:	220f      	movs	r2, #15
 8002936:	fa92 f2a2 	rbit	r2, r2
 800293a:	fab2 f282 	clz	r2, r2
 800293e:	f003 030f 	and.w	r3, r3, #15
 8002942:	40d3      	lsrs	r3, r2
 8002944:	4a08      	ldr	r2, [pc, #32]	; (8002968 <HAL_RCC_GetSysClockFreq+0x60>)
 8002946:	5cd2      	ldrb	r2, [r2, r3]
 8002948:	03cb      	lsls	r3, r1, #15
 800294a:	bf4a      	itet	mi
 800294c:	4b07      	ldrmi	r3, [pc, #28]	; (800296c <HAL_RCC_GetSysClockFreq+0x64>)
 800294e:	4b08      	ldrpl	r3, [pc, #32]	; (8002970 <HAL_RCC_GetSysClockFreq+0x68>)
 8002950:	fbb3 f3f2 	udivmi	r3, r3, r2
 8002954:	4358      	muls	r0, r3
 8002956:	bd10      	pop	{r4, pc}
 8002958:	4804      	ldr	r0, [pc, #16]	; (800296c <HAL_RCC_GetSysClockFreq+0x64>)
 800295a:	e7fc      	b.n	8002956 <HAL_RCC_GetSysClockFreq+0x4e>
 800295c:	4805      	ldr	r0, [pc, #20]	; (8002974 <HAL_RCC_GetSysClockFreq+0x6c>)
 800295e:	e7fa      	b.n	8002956 <HAL_RCC_GetSysClockFreq+0x4e>
 8002960:	40021000 	.word	0x40021000
 8002964:	0800451e 	.word	0x0800451e
 8002968:	0800452e 	.word	0x0800452e
 800296c:	017d7840 	.word	0x017d7840
 8002970:	003d0900 	.word	0x003d0900
 8002974:	007a1200 	.word	0x007a1200

08002978 <HAL_RCC_ClockConfig>:
 8002978:	e92d 41f0 	stmdb	sp!, {r4, r5, r6, r7, r8, lr}
 800297c:	460d      	mov	r5, r1
 800297e:	4604      	mov	r4, r0
 8002980:	b910      	cbnz	r0, 8002988 <HAL_RCC_ClockConfig+0x10>
 8002982:	2001      	movs	r0, #1
 8002984:	e8bd 81f0 	ldmia.w	sp!, {r4, r5, r6, r7, r8, pc}
 8002988:	4a4c      	ldr	r2, [pc, #304]	; (8002abc <HAL_RCC_ClockConfig+0x144>)
 800298a:	6813      	ldr	r3, [r2, #0]
 800298c:	f003 0307 	and.w	r3, r3, #7
 8002990:	428b      	cmp	r3, r1
 8002992:	d32e      	bcc.n	80029f2 <HAL_RCC_ClockConfig+0x7a>
 8002994:	6822      	ldr	r2, [r4, #0]
 8002996:	0791      	lsls	r1, r2, #30
 8002998:	d436      	bmi.n	8002a08 <HAL_RCC_ClockConfig+0x90>
 800299a:	07d2      	lsls	r2, r2, #31
 800299c:	d43c      	bmi.n	8002a18 <HAL_RCC_ClockConfig+0xa0>
 800299e:	4a47      	ldr	r2, [pc, #284]	; (8002abc <HAL_RCC_ClockConfig+0x144>)
 80029a0:	6813      	ldr	r3, [r2, #0]
 80029a2:	f003 0307 	and.w	r3, r3, #7
 80029a6:	42ab      	cmp	r3, r5
 80029a8:	d874      	bhi.n	8002a94 <HAL_RCC_ClockConfig+0x11c>
 80029aa:	6822      	ldr	r2, [r4, #0]
 80029ac:	4d44      	ldr	r5, [pc, #272]	; (8002ac0 <HAL_RCC_ClockConfig+0x148>)
 80029ae:	f012 0f04 	tst.w	r2, #4
 80029b2:	d17b      	bne.n	8002aac <HAL_RCC_ClockConfig+0x134>
 80029b4:	0713      	lsls	r3, r2, #28
 80029b6:	d506      	bpl.n	80029c6 <HAL_RCC_ClockConfig+0x4e>
 80029b8:	686b      	ldr	r3, [r5, #4]
 80029ba:	6922      	ldr	r2, [r4, #16]
 80029bc:	f423 5360 	bic.w	r3, r3, #14336	; 0x3800
 80029c0:	ea43 03c2 	orr.w	r3, r3, r2, lsl #3
 80029c4:	606b      	str	r3, [r5, #4]
 80029c6:	f7ff ff9f 	bl	8002908 <HAL_RCC_GetSysClockFreq>
 80029ca:	686b      	ldr	r3, [r5, #4]
 80029cc:	22f0      	movs	r2, #240	; 0xf0
 80029ce:	fa92 f2a2 	rbit	r2, r2
 80029d2:	fab2 f282 	clz	r2, r2
 80029d6:	f003 03f0 	and.w	r3, r3, #240	; 0xf0
 80029da:	40d3      	lsrs	r3, r2
 80029dc:	4a39      	ldr	r2, [pc, #228]	; (8002ac4 <HAL_RCC_ClockConfig+0x14c>)
 80029de:	5cd3      	ldrb	r3, [r2, r3]
 80029e0:	40d8      	lsrs	r0, r3
 80029e2:	4b39      	ldr	r3, [pc, #228]	; (8002ac8 <HAL_RCC_ClockConfig+0x150>)
 80029e4:	6018      	str	r0, [r3, #0]
 80029e6:	4b39      	ldr	r3, [pc, #228]	; (8002acc <HAL_RCC_ClockConfig+0x154>)
 80029e8:	6818      	ldr	r0, [r3, #0]
 80029ea:	f7ff fb55 	bl	8002098 <HAL_InitTick>
 80029ee:	2000      	movs	r0, #0
 80029f0:	e7c8      	b.n	8002984 <HAL_RCC_ClockConfig+0xc>
 80029f2:	6813      	ldr	r3, [r2, #0]
 80029f4:	f023 0307 	bic.w	r3, r3, #7
 80029f8:	430b      	orrs	r3, r1
 80029fa:	6013      	str	r3, [r2, #0]
 80029fc:	6813      	ldr	r3, [r2, #0]
 80029fe:	f003 0307 	and.w	r3, r3, #7
 8002a02:	428b      	cmp	r3, r1
 8002a04:	d1bd      	bne.n	8002982 <HAL_RCC_ClockConfig+0xa>
 8002a06:	e7c5      	b.n	8002994 <HAL_RCC_ClockConfig+0x1c>
 8002a08:	492d      	ldr	r1, [pc, #180]	; (8002ac0 <HAL_RCC_ClockConfig+0x148>)
 8002a0a:	68a0      	ldr	r0, [r4, #8]
 8002a0c:	684b      	ldr	r3, [r1, #4]
 8002a0e:	f023 03f0 	bic.w	r3, r3, #240	; 0xf0
 8002a12:	4303      	orrs	r3, r0
 8002a14:	604b      	str	r3, [r1, #4]
 8002a16:	e7c0      	b.n	800299a <HAL_RCC_ClockConfig+0x22>
 8002a18:	6862      	ldr	r2, [r4, #4]
 8002a1a:	4e29      	ldr	r6, [pc, #164]	; (8002ac0 <HAL_RCC_ClockConfig+0x148>)
 8002a1c:	2a01      	cmp	r2, #1
 8002a1e:	d126      	bne.n	8002a6e <HAL_RCC_ClockConfig+0xf6>
 8002a20:	f44f 3300 	mov.w	r3, #131072	; 0x20000
 8002a24:	fa93 f1a3 	rbit	r1, r3
 8002a28:	6831      	ldr	r1, [r6, #0]
 8002a2a:	fa93 f3a3 	rbit	r3, r3
 8002a2e:	fab3 f383 	clz	r3, r3
 8002a32:	f003 031f 	and.w	r3, r3, #31
 8002a36:	fa02 f303 	lsl.w	r3, r2, r3
 8002a3a:	420b      	tst	r3, r1
 8002a3c:	d0a1      	beq.n	8002982 <HAL_RCC_ClockConfig+0xa>
 8002a3e:	6873      	ldr	r3, [r6, #4]
 8002a40:	f023 0303 	bic.w	r3, r3, #3
 8002a44:	431a      	orrs	r2, r3
 8002a46:	6072      	str	r2, [r6, #4]
 8002a48:	f7ff fb68 	bl	800211c <HAL_GetTick>
 8002a4c:	f241 3888 	movw	r8, #5000	; 0x1388
 8002a50:	4607      	mov	r7, r0
 8002a52:	6873      	ldr	r3, [r6, #4]
 8002a54:	6862      	ldr	r2, [r4, #4]
 8002a56:	f003 030c 	and.w	r3, r3, #12
 8002a5a:	ebb3 0f82 	cmp.w	r3, r2, lsl #2
 8002a5e:	d09e      	beq.n	800299e <HAL_RCC_ClockConfig+0x26>
 8002a60:	f7ff fb5c 	bl	800211c <HAL_GetTick>
 8002a64:	1bc0      	subs	r0, r0, r7
 8002a66:	4540      	cmp	r0, r8
 8002a68:	d9f3      	bls.n	8002a52 <HAL_RCC_ClockConfig+0xda>
 8002a6a:	2003      	movs	r0, #3
 8002a6c:	e78a      	b.n	8002984 <HAL_RCC_ClockConfig+0xc>
 8002a6e:	2a02      	cmp	r2, #2
 8002a70:	bf0c      	ite	eq
 8002a72:	f04f 7300 	moveq.w	r3, #33554432	; 0x2000000
 8002a76:	2302      	movne	r3, #2
 8002a78:	fa93 f1a3 	rbit	r1, r3
 8002a7c:	6830      	ldr	r0, [r6, #0]
 8002a7e:	fa93 f3a3 	rbit	r3, r3
 8002a82:	fab3 f383 	clz	r3, r3
 8002a86:	f003 031f 	and.w	r3, r3, #31
 8002a8a:	2101      	movs	r1, #1
 8002a8c:	fa01 f303 	lsl.w	r3, r1, r3
 8002a90:	4203      	tst	r3, r0
 8002a92:	e7d3      	b.n	8002a3c <HAL_RCC_ClockConfig+0xc4>
 8002a94:	6813      	ldr	r3, [r2, #0]
 8002a96:	f023 0307 	bic.w	r3, r3, #7
 8002a9a:	432b      	orrs	r3, r5
 8002a9c:	6013      	str	r3, [r2, #0]
 8002a9e:	6813      	ldr	r3, [r2, #0]
 8002aa0:	f003 0307 	and.w	r3, r3, #7
 8002aa4:	42ab      	cmp	r3, r5
 8002aa6:	f47f af6c 	bne.w	8002982 <HAL_RCC_ClockConfig+0xa>
 8002aaa:	e77e      	b.n	80029aa <HAL_RCC_ClockConfig+0x32>
 8002aac:	686b      	ldr	r3, [r5, #4]
 8002aae:	68e1      	ldr	r1, [r4, #12]
 8002ab0:	f423 63e0 	bic.w	r3, r3, #1792	; 0x700
 8002ab4:	430b      	orrs	r3, r1
 8002ab6:	606b      	str	r3, [r5, #4]
 8002ab8:	e77c      	b.n	80029b4 <HAL_RCC_ClockConfig+0x3c>
 8002aba:	bf00      	nop
 8002abc:	40022000 	.word	0x40022000
 8002ac0:	40021000 	.word	0x40021000
 8002ac4:	08004506 	.word	0x08004506
 8002ac8:	20000008 	.word	0x20000008
 8002acc:	2000003c 	.word	0x2000003c

08002ad0 <HAL_RCC_GetPCLK1Freq>:
 8002ad0:	4b08      	ldr	r3, [pc, #32]	; (8002af4 <HAL_RCC_GetPCLK1Freq+0x24>)
 8002ad2:	f44f 62e0 	mov.w	r2, #1792	; 0x700
 8002ad6:	685b      	ldr	r3, [r3, #4]
 8002ad8:	fa92 f2a2 	rbit	r2, r2
 8002adc:	fab2 f282 	clz	r2, r2
 8002ae0:	f403 63e0 	and.w	r3, r3, #1792	; 0x700
 8002ae4:	40d3      	lsrs	r3, r2
 8002ae6:	4a04      	ldr	r2, [pc, #16]	; (8002af8 <HAL_RCC_GetPCLK1Freq+0x28>)
 8002ae8:	5cd3      	ldrb	r3, [r2, r3]
 8002aea:	4a04      	ldr	r2, [pc, #16]	; (8002afc <HAL_RCC_GetPCLK1Freq+0x2c>)
 8002aec:	6810      	ldr	r0, [r2, #0]
 8002aee:	40d8      	lsrs	r0, r3
 8002af0:	4770      	bx	lr
 8002af2:	bf00      	nop
 8002af4:	40021000 	.word	0x40021000
 8002af8:	08004516 	.word	0x08004516
 8002afc:	20000008 	.word	0x20000008

08002b00 <HAL_RCC_GetPCLK2Freq>:
 8002b00:	4b08      	ldr	r3, [pc, #32]	; (8002b24 <HAL_RCC_GetPCLK2Freq+0x24>)
 8002b02:	f44f 5260 	mov.w	r2, #14336	; 0x3800
 8002b06:	685b      	ldr	r3, [r3, #4]
 8002b08:	fa92 f2a2 	rbit	r2, r2
 8002b0c:	fab2 f282 	clz	r2, r2
 8002b10:	f403 5360 	and.w	r3, r3, #14336	; 0x3800
 8002b14:	40d3      	lsrs	r3, r2
 8002b16:	4a04      	ldr	r2, [pc, #16]	; (8002b28 <HAL_RCC_GetPCLK2Freq+0x28>)
 8002b18:	5cd3      	ldrb	r3, [r2, r3]
 8002b1a:	4a04      	ldr	r2, [pc, #16]	; (8002b2c <HAL_RCC_GetPCLK2Freq+0x2c>)
 8002b1c:	6810      	ldr	r0, [r2, #0]
 8002b1e:	40d8      	lsrs	r0, r3
 8002b20:	4770      	bx	lr
 8002b22:	bf00      	nop
 8002b24:	40021000 	.word	0x40021000
 8002b28:	08004516 	.word	0x08004516
 8002b2c:	20000008 	.word	0x20000008

08002b30 <HAL_RCCEx_PeriphCLKConfig>:
 8002b30:	6803      	ldr	r3, [r0, #0]
 8002b32:	e92d 43f7 	stmdb	sp!, {r0, r1, r2, r4, r5, r6, r7, r8, r9, lr}
 8002b36:	03dd      	lsls	r5, r3, #15
 8002b38:	4604      	mov	r4, r0
 8002b3a:	d521      	bpl.n	8002b80 <HAL_RCCEx_PeriphCLKConfig+0x50>
 8002b3c:	4d6d      	ldr	r5, [pc, #436]	; (8002cf4 <HAL_RCCEx_PeriphCLKConfig+0x1c4>)
 8002b3e:	69eb      	ldr	r3, [r5, #28]
 8002b40:	00d8      	lsls	r0, r3, #3
 8002b42:	d47d      	bmi.n	8002c40 <HAL_RCCEx_PeriphCLKConfig+0x110>
 8002b44:	69eb      	ldr	r3, [r5, #28]
 8002b46:	f043 5380 	orr.w	r3, r3, #268435456	; 0x10000000
 8002b4a:	61eb      	str	r3, [r5, #28]
 8002b4c:	69eb      	ldr	r3, [r5, #28]
 8002b4e:	f003 5380 	and.w	r3, r3, #268435456	; 0x10000000
 8002b52:	9301      	str	r3, [sp, #4]
 8002b54:	9b01      	ldr	r3, [sp, #4]
 8002b56:	2601      	movs	r6, #1
 8002b58:	4f67      	ldr	r7, [pc, #412]	; (8002cf8 <HAL_RCCEx_PeriphCLKConfig+0x1c8>)
 8002b5a:	683b      	ldr	r3, [r7, #0]
 8002b5c:	05d9      	lsls	r1, r3, #23
 8002b5e:	d571      	bpl.n	8002c44 <HAL_RCCEx_PeriphCLKConfig+0x114>
 8002b60:	6a2b      	ldr	r3, [r5, #32]
 8002b62:	f413 7340 	ands.w	r3, r3, #768	; 0x300
 8002b66:	f040 8081 	bne.w	8002c6c <HAL_RCCEx_PeriphCLKConfig+0x13c>
 8002b6a:	6a2b      	ldr	r3, [r5, #32]
 8002b6c:	6862      	ldr	r2, [r4, #4]
 8002b6e:	f423 7340 	bic.w	r3, r3, #768	; 0x300
 8002b72:	4313      	orrs	r3, r2
 8002b74:	622b      	str	r3, [r5, #32]
 8002b76:	b11e      	cbz	r6, 8002b80 <HAL_RCCEx_PeriphCLKConfig+0x50>
 8002b78:	69eb      	ldr	r3, [r5, #28]
 8002b7a:	f023 5380 	bic.w	r3, r3, #268435456	; 0x10000000
 8002b7e:	61eb      	str	r3, [r5, #28]
 8002b80:	6823      	ldr	r3, [r4, #0]
 8002b82:	07d8      	lsls	r0, r3, #31
 8002b84:	d506      	bpl.n	8002b94 <HAL_RCCEx_PeriphCLKConfig+0x64>
 8002b86:	495b      	ldr	r1, [pc, #364]	; (8002cf4 <HAL_RCCEx_PeriphCLKConfig+0x1c4>)
 8002b88:	68a0      	ldr	r0, [r4, #8]
 8002b8a:	6b0a      	ldr	r2, [r1, #48]	; 0x30
 8002b8c:	f022 0203 	bic.w	r2, r2, #3
 8002b90:	4302      	orrs	r2, r0
 8002b92:	630a      	str	r2, [r1, #48]	; 0x30
 8002b94:	0699      	lsls	r1, r3, #26
 8002b96:	d506      	bpl.n	8002ba6 <HAL_RCCEx_PeriphCLKConfig+0x76>
 8002b98:	4956      	ldr	r1, [pc, #344]	; (8002cf4 <HAL_RCCEx_PeriphCLKConfig+0x1c4>)
 8002b9a:	68e0      	ldr	r0, [r4, #12]
 8002b9c:	6b0a      	ldr	r2, [r1, #48]	; 0x30
 8002b9e:	f022 0210 	bic.w	r2, r2, #16
 8002ba2:	4302      	orrs	r2, r0
 8002ba4:	630a      	str	r2, [r1, #48]	; 0x30
 8002ba6:	065a      	lsls	r2, r3, #25
 8002ba8:	d506      	bpl.n	8002bb8 <HAL_RCCEx_PeriphCLKConfig+0x88>
 8002baa:	4952      	ldr	r1, [pc, #328]	; (8002cf4 <HAL_RCCEx_PeriphCLKConfig+0x1c4>)
 8002bac:	6920      	ldr	r0, [r4, #16]
 8002bae:	6b0a      	ldr	r2, [r1, #48]	; 0x30
 8002bb0:	f022 0220 	bic.w	r2, r2, #32
 8002bb4:	4302      	orrs	r2, r0
 8002bb6:	630a      	str	r2, [r1, #48]	; 0x30
 8002bb8:	041f      	lsls	r7, r3, #16
 8002bba:	d506      	bpl.n	8002bca <HAL_RCCEx_PeriphCLKConfig+0x9a>
 8002bbc:	494d      	ldr	r1, [pc, #308]	; (8002cf4 <HAL_RCCEx_PeriphCLKConfig+0x1c4>)
 8002bbe:	6960      	ldr	r0, [r4, #20]
 8002bc0:	6b0a      	ldr	r2, [r1, #48]	; 0x30
 8002bc2:	f022 0240 	bic.w	r2, r2, #64	; 0x40
 8002bc6:	4302      	orrs	r2, r0
 8002bc8:	630a      	str	r2, [r1, #48]	; 0x30
 8002bca:	059e      	lsls	r6, r3, #22
 8002bcc:	d506      	bpl.n	8002bdc <HAL_RCCEx_PeriphCLKConfig+0xac>
 8002bce:	4949      	ldr	r1, [pc, #292]	; (8002cf4 <HAL_RCCEx_PeriphCLKConfig+0x1c4>)
 8002bd0:	69e0      	ldr	r0, [r4, #28]
 8002bd2:	684a      	ldr	r2, [r1, #4]
 8002bd4:	f422 0200 	bic.w	r2, r2, #8388608	; 0x800000
 8002bd8:	4302      	orrs	r2, r0
 8002bda:	604a      	str	r2, [r1, #4]
 8002bdc:	061d      	lsls	r5, r3, #24
 8002bde:	d506      	bpl.n	8002bee <HAL_RCCEx_PeriphCLKConfig+0xbe>
 8002be0:	4944      	ldr	r1, [pc, #272]	; (8002cf4 <HAL_RCCEx_PeriphCLKConfig+0x1c4>)
 8002be2:	69a0      	ldr	r0, [r4, #24]
 8002be4:	6aca      	ldr	r2, [r1, #44]	; 0x2c
 8002be6:	f422 72f8 	bic.w	r2, r2, #496	; 0x1f0
 8002bea:	4302      	orrs	r2, r0
 8002bec:	62ca      	str	r2, [r1, #44]	; 0x2c
 8002bee:	04d8      	lsls	r0, r3, #19
 8002bf0:	d506      	bpl.n	8002c00 <HAL_RCCEx_PeriphCLKConfig+0xd0>
 8002bf2:	4940      	ldr	r1, [pc, #256]	; (8002cf4 <HAL_RCCEx_PeriphCLKConfig+0x1c4>)
 8002bf4:	6a20      	ldr	r0, [r4, #32]
 8002bf6:	6b0a      	ldr	r2, [r1, #48]	; 0x30
 8002bf8:	f422 7280 	bic.w	r2, r2, #256	; 0x100
 8002bfc:	4302      	orrs	r2, r0
 8002bfe:	630a      	str	r2, [r1, #48]	; 0x30
 8002c00:	0359      	lsls	r1, r3, #13
 8002c02:	d506      	bpl.n	8002c12 <HAL_RCCEx_PeriphCLKConfig+0xe2>
 8002c04:	493b      	ldr	r1, [pc, #236]	; (8002cf4 <HAL_RCCEx_PeriphCLKConfig+0x1c4>)
 8002c06:	6a60      	ldr	r0, [r4, #36]	; 0x24
 8002c08:	6b0a      	ldr	r2, [r1, #48]	; 0x30
 8002c0a:	f422 6280 	bic.w	r2, r2, #1024	; 0x400
 8002c0e:	4302      	orrs	r2, r0
 8002c10:	630a      	str	r2, [r1, #48]	; 0x30
 8002c12:	031a      	lsls	r2, r3, #12
 8002c14:	d506      	bpl.n	8002c24 <HAL_RCCEx_PeriphCLKConfig+0xf4>
 8002c16:	4937      	ldr	r1, [pc, #220]	; (8002cf4 <HAL_RCCEx_PeriphCLKConfig+0x1c4>)
 8002c18:	6aa0      	ldr	r0, [r4, #40]	; 0x28
 8002c1a:	6b0a      	ldr	r2, [r1, #48]	; 0x30
 8002c1c:	f422 6200 	bic.w	r2, r2, #2048	; 0x800
 8002c20:	4302      	orrs	r2, r0
 8002c22:	630a      	str	r2, [r1, #48]	; 0x30
 8002c24:	f413 1380 	ands.w	r3, r3, #1048576	; 0x100000
 8002c28:	bf1f      	itttt	ne
 8002c2a:	4a32      	ldrne	r2, [pc, #200]	; (8002cf4 <HAL_RCCEx_PeriphCLKConfig+0x1c4>)
 8002c2c:	6ae1      	ldrne	r1, [r4, #44]	; 0x2c
 8002c2e:	6b13      	ldrne	r3, [r2, #48]	; 0x30
 8002c30:	f423 5300 	bicne.w	r3, r3, #8192	; 0x2000
 8002c34:	bf1d      	ittte	ne
 8002c36:	430b      	orrne	r3, r1
 8002c38:	6313      	strne	r3, [r2, #48]	; 0x30
 8002c3a:	2000      	movne	r0, #0
 8002c3c:	4618      	moveq	r0, r3
 8002c3e:	e012      	b.n	8002c66 <HAL_RCCEx_PeriphCLKConfig+0x136>
 8002c40:	2600      	movs	r6, #0
 8002c42:	e789      	b.n	8002b58 <HAL_RCCEx_PeriphCLKConfig+0x28>
 8002c44:	683b      	ldr	r3, [r7, #0]
 8002c46:	f443 7380 	orr.w	r3, r3, #256	; 0x100
 8002c4a:	603b      	str	r3, [r7, #0]
 8002c4c:	f7ff fa66 	bl	800211c <HAL_GetTick>
 8002c50:	4680      	mov	r8, r0
 8002c52:	683b      	ldr	r3, [r7, #0]
 8002c54:	05da      	lsls	r2, r3, #23
 8002c56:	d483      	bmi.n	8002b60 <HAL_RCCEx_PeriphCLKConfig+0x30>
 8002c58:	f7ff fa60 	bl	800211c <HAL_GetTick>
 8002c5c:	eba0 0008 	sub.w	r0, r0, r8
 8002c60:	2864      	cmp	r0, #100	; 0x64
 8002c62:	d9f6      	bls.n	8002c52 <HAL_RCCEx_PeriphCLKConfig+0x122>
 8002c64:	2003      	movs	r0, #3
 8002c66:	b003      	add	sp, #12
 8002c68:	e8bd 83f0 	ldmia.w	sp!, {r4, r5, r6, r7, r8, r9, pc}
 8002c6c:	6862      	ldr	r2, [r4, #4]
 8002c6e:	f402 7240 	and.w	r2, r2, #768	; 0x300
 8002c72:	429a      	cmp	r2, r3
 8002c74:	f43f af79 	beq.w	8002b6a <HAL_RCCEx_PeriphCLKConfig+0x3a>
 8002c78:	6a29      	ldr	r1, [r5, #32]
 8002c7a:	f44f 3380 	mov.w	r3, #65536	; 0x10000
 8002c7e:	f421 7040 	bic.w	r0, r1, #768	; 0x300
 8002c82:	fa93 f2a3 	rbit	r2, r3
 8002c86:	f8df c074 	ldr.w	ip, [pc, #116]	; 8002cfc <HAL_RCCEx_PeriphCLKConfig+0x1cc>
 8002c8a:	fab2 f282 	clz	r2, r2
 8002c8e:	4462      	add	r2, ip
 8002c90:	0092      	lsls	r2, r2, #2
 8002c92:	2701      	movs	r7, #1
 8002c94:	6017      	str	r7, [r2, #0]
 8002c96:	fa93 f3a3 	rbit	r3, r3
 8002c9a:	fab3 f383 	clz	r3, r3
 8002c9e:	4463      	add	r3, ip
 8002ca0:	009b      	lsls	r3, r3, #2
 8002ca2:	2200      	movs	r2, #0
 8002ca4:	601a      	str	r2, [r3, #0]
 8002ca6:	07cb      	lsls	r3, r1, #31
 8002ca8:	6228      	str	r0, [r5, #32]
 8002caa:	f57f af5e 	bpl.w	8002b6a <HAL_RCCEx_PeriphCLKConfig+0x3a>
 8002cae:	f7ff fa35 	bl	800211c <HAL_GetTick>
 8002cb2:	f04f 0802 	mov.w	r8, #2
 8002cb6:	4681      	mov	r9, r0
 8002cb8:	fa98 f3a8 	rbit	r3, r8
 8002cbc:	fa98 f3a8 	rbit	r3, r8
 8002cc0:	b1a3      	cbz	r3, 8002cec <HAL_RCCEx_PeriphCLKConfig+0x1bc>
 8002cc2:	6a2a      	ldr	r2, [r5, #32]
 8002cc4:	fa98 f3a8 	rbit	r3, r8
 8002cc8:	fab3 f383 	clz	r3, r3
 8002ccc:	f003 031f 	and.w	r3, r3, #31
 8002cd0:	fa07 f303 	lsl.w	r3, r7, r3
 8002cd4:	4213      	tst	r3, r2
 8002cd6:	f47f af48 	bne.w	8002b6a <HAL_RCCEx_PeriphCLKConfig+0x3a>
 8002cda:	f7ff fa1f 	bl	800211c <HAL_GetTick>
 8002cde:	f241 3388 	movw	r3, #5000	; 0x1388
 8002ce2:	eba0 0009 	sub.w	r0, r0, r9
 8002ce6:	4298      	cmp	r0, r3
 8002ce8:	d9e6      	bls.n	8002cb8 <HAL_RCCEx_PeriphCLKConfig+0x188>
 8002cea:	e7bb      	b.n	8002c64 <HAL_RCCEx_PeriphCLKConfig+0x134>
 8002cec:	fa98 f3a8 	rbit	r3, r8
 8002cf0:	6a6a      	ldr	r2, [r5, #36]	; 0x24
 8002cf2:	e7e7      	b.n	8002cc4 <HAL_RCCEx_PeriphCLKConfig+0x194>
 8002cf4:	40021000 	.word	0x40021000
 8002cf8:	40007000 	.word	0x40007000
 8002cfc:	10908100 	.word	0x10908100

08002d00 <HAL_RTC_WaitForSynchro>:
 8002d00:	6802      	ldr	r2, [r0, #0]
 8002d02:	b538      	push	{r3, r4, r5, lr}
 8002d04:	68d3      	ldr	r3, [r2, #12]
 8002d06:	f023 03a0 	bic.w	r3, r3, #160	; 0xa0
 8002d0a:	60d3      	str	r3, [r2, #12]
 8002d0c:	4604      	mov	r4, r0
 8002d0e:	f7ff fa05 	bl	800211c <HAL_GetTick>
 8002d12:	4605      	mov	r5, r0
 8002d14:	6823      	ldr	r3, [r4, #0]
 8002d16:	68db      	ldr	r3, [r3, #12]
 8002d18:	069b      	lsls	r3, r3, #26
 8002d1a:	d501      	bpl.n	8002d20 <HAL_RTC_WaitForSynchro+0x20>
 8002d1c:	2000      	movs	r0, #0
 8002d1e:	bd38      	pop	{r3, r4, r5, pc}
 8002d20:	f7ff f9fc 	bl	800211c <HAL_GetTick>
 8002d24:	1b40      	subs	r0, r0, r5
 8002d26:	f5b0 7f7a 	cmp.w	r0, #1000	; 0x3e8
 8002d2a:	d9f3      	bls.n	8002d14 <HAL_RTC_WaitForSynchro+0x14>
 8002d2c:	2003      	movs	r0, #3
 8002d2e:	e7f6      	b.n	8002d1e <HAL_RTC_WaitForSynchro+0x1e>

08002d30 <RTC_EnterInitMode>:
 8002d30:	b538      	push	{r3, r4, r5, lr}
 8002d32:	6803      	ldr	r3, [r0, #0]
 8002d34:	68da      	ldr	r2, [r3, #12]
 8002d36:	0652      	lsls	r2, r2, #25
 8002d38:	4604      	mov	r4, r0
 8002d3a:	d501      	bpl.n	8002d40 <RTC_EnterInitMode+0x10>
 8002d3c:	2000      	movs	r0, #0
 8002d3e:	bd38      	pop	{r3, r4, r5, pc}
 8002d40:	f04f 32ff 	mov.w	r2, #4294967295
 8002d44:	60da      	str	r2, [r3, #12]
 8002d46:	f7ff f9e9 	bl	800211c <HAL_GetTick>
 8002d4a:	4605      	mov	r5, r0
 8002d4c:	6823      	ldr	r3, [r4, #0]
 8002d4e:	68db      	ldr	r3, [r3, #12]
 8002d50:	065b      	lsls	r3, r3, #25
 8002d52:	d4f3      	bmi.n	8002d3c <RTC_EnterInitMode+0xc>
 8002d54:	f7ff f9e2 	bl	800211c <HAL_GetTick>
 8002d58:	1b40      	subs	r0, r0, r5
 8002d5a:	f5b0 7f7a 	cmp.w	r0, #1000	; 0x3e8
 8002d5e:	d9f5      	bls.n	8002d4c <RTC_EnterInitMode+0x1c>
 8002d60:	2003      	movs	r0, #3
 8002d62:	e7ec      	b.n	8002d3e <RTC_EnterInitMode+0xe>

08002d64 <HAL_RTC_Init>:
 8002d64:	b538      	push	{r3, r4, r5, lr}
 8002d66:	4604      	mov	r4, r0
 8002d68:	b1b8      	cbz	r0, 8002d9a <HAL_RTC_Init+0x36>
 8002d6a:	7f43      	ldrb	r3, [r0, #29]
 8002d6c:	f003 02ff 	and.w	r2, r3, #255	; 0xff
 8002d70:	b913      	cbnz	r3, 8002d78 <HAL_RTC_Init+0x14>
 8002d72:	7702      	strb	r2, [r0, #28]
 8002d74:	f7fe fc30 	bl	80015d8 <HAL_RTC_MspInit>
 8002d78:	2302      	movs	r3, #2
 8002d7a:	7763      	strb	r3, [r4, #29]
 8002d7c:	6823      	ldr	r3, [r4, #0]
 8002d7e:	22ca      	movs	r2, #202	; 0xca
 8002d80:	625a      	str	r2, [r3, #36]	; 0x24
 8002d82:	2253      	movs	r2, #83	; 0x53
 8002d84:	625a      	str	r2, [r3, #36]	; 0x24
 8002d86:	4620      	mov	r0, r4
 8002d88:	f7ff ffd2 	bl	8002d30 <RTC_EnterInitMode>
 8002d8c:	6823      	ldr	r3, [r4, #0]
 8002d8e:	4605      	mov	r5, r0
 8002d90:	b128      	cbz	r0, 8002d9e <HAL_RTC_Init+0x3a>
 8002d92:	22ff      	movs	r2, #255	; 0xff
 8002d94:	625a      	str	r2, [r3, #36]	; 0x24
 8002d96:	2304      	movs	r3, #4
 8002d98:	7763      	strb	r3, [r4, #29]
 8002d9a:	2501      	movs	r5, #1
 8002d9c:	e02e      	b.n	8002dfc <HAL_RTC_Init+0x98>
 8002d9e:	689a      	ldr	r2, [r3, #8]
 8002da0:	6920      	ldr	r0, [r4, #16]
 8002da2:	f422 02e0 	bic.w	r2, r2, #7340032	; 0x700000
 8002da6:	f022 0240 	bic.w	r2, r2, #64	; 0x40
 8002daa:	609a      	str	r2, [r3, #8]
 8002dac:	6862      	ldr	r2, [r4, #4]
 8002dae:	6899      	ldr	r1, [r3, #8]
 8002db0:	4302      	orrs	r2, r0
 8002db2:	6960      	ldr	r0, [r4, #20]
 8002db4:	4302      	orrs	r2, r0
 8002db6:	430a      	orrs	r2, r1
 8002db8:	609a      	str	r2, [r3, #8]
 8002dba:	68e2      	ldr	r2, [r4, #12]
 8002dbc:	611a      	str	r2, [r3, #16]
 8002dbe:	691a      	ldr	r2, [r3, #16]
 8002dc0:	68a1      	ldr	r1, [r4, #8]
 8002dc2:	ea42 4201 	orr.w	r2, r2, r1, lsl #16
 8002dc6:	611a      	str	r2, [r3, #16]
 8002dc8:	68da      	ldr	r2, [r3, #12]
 8002dca:	f022 0280 	bic.w	r2, r2, #128	; 0x80
 8002dce:	60da      	str	r2, [r3, #12]
 8002dd0:	689b      	ldr	r3, [r3, #8]
 8002dd2:	069b      	lsls	r3, r3, #26
 8002dd4:	d405      	bmi.n	8002de2 <HAL_RTC_Init+0x7e>
 8002dd6:	4620      	mov	r0, r4
 8002dd8:	f7ff ff92 	bl	8002d00 <HAL_RTC_WaitForSynchro>
 8002ddc:	b108      	cbz	r0, 8002de2 <HAL_RTC_Init+0x7e>
 8002dde:	6823      	ldr	r3, [r4, #0]
 8002de0:	e7d7      	b.n	8002d92 <HAL_RTC_Init+0x2e>
 8002de2:	6823      	ldr	r3, [r4, #0]
 8002de4:	69a1      	ldr	r1, [r4, #24]
 8002de6:	6c1a      	ldr	r2, [r3, #64]	; 0x40
 8002de8:	f422 2280 	bic.w	r2, r2, #262144	; 0x40000
 8002dec:	641a      	str	r2, [r3, #64]	; 0x40
 8002dee:	6c1a      	ldr	r2, [r3, #64]	; 0x40
 8002df0:	430a      	orrs	r2, r1
 8002df2:	641a      	str	r2, [r3, #64]	; 0x40
 8002df4:	22ff      	movs	r2, #255	; 0xff
 8002df6:	625a      	str	r2, [r3, #36]	; 0x24
 8002df8:	2301      	movs	r3, #1
 8002dfa:	7763      	strb	r3, [r4, #29]
 8002dfc:	4628      	mov	r0, r5
 8002dfe:	bd38      	pop	{r3, r4, r5, pc}

08002e00 <RTC_ByteToBcd2>:
 8002e00:	2300      	movs	r3, #0
 8002e02:	2809      	cmp	r0, #9
 8002e04:	d803      	bhi.n	8002e0e <RTC_ByteToBcd2+0xe>
 8002e06:	ea40 1003 	orr.w	r0, r0, r3, lsl #4
 8002e0a:	b2c0      	uxtb	r0, r0
 8002e0c:	4770      	bx	lr
 8002e0e:	380a      	subs	r0, #10
 8002e10:	3301      	adds	r3, #1
 8002e12:	b2c0      	uxtb	r0, r0
 8002e14:	e7f5      	b.n	8002e02 <RTC_ByteToBcd2+0x2>

08002e16 <HAL_RTC_SetTime>:
 8002e16:	e92d 41f0 	stmdb	sp!, {r4, r5, r6, r7, r8, lr}
 8002e1a:	7f03      	ldrb	r3, [r0, #28]
 8002e1c:	2b01      	cmp	r3, #1
 8002e1e:	4605      	mov	r5, r0
 8002e20:	460e      	mov	r6, r1
 8002e22:	f04f 0702 	mov.w	r7, #2
 8002e26:	d02e      	beq.n	8002e86 <HAL_RTC_SetTime+0x70>
 8002e28:	2301      	movs	r3, #1
 8002e2a:	7703      	strb	r3, [r0, #28]
 8002e2c:	7747      	strb	r7, [r0, #29]
 8002e2e:	6801      	ldr	r1, [r0, #0]
 8002e30:	7874      	ldrb	r4, [r6, #1]
 8002e32:	7830      	ldrb	r0, [r6, #0]
 8002e34:	78b7      	ldrb	r7, [r6, #2]
 8002e36:	bb4a      	cbnz	r2, 8002e8c <HAL_RTC_SetTime+0x76>
 8002e38:	688a      	ldr	r2, [r1, #8]
 8002e3a:	f012 0240 	ands.w	r2, r2, #64	; 0x40
 8002e3e:	bf08      	it	eq
 8002e40:	70f2      	strbeq	r2, [r6, #3]
 8002e42:	f7ff ffdd 	bl	8002e00 <RTC_ByteToBcd2>
 8002e46:	4680      	mov	r8, r0
 8002e48:	4620      	mov	r0, r4
 8002e4a:	f7ff ffd9 	bl	8002e00 <RTC_ByteToBcd2>
 8002e4e:	4604      	mov	r4, r0
 8002e50:	4638      	mov	r0, r7
 8002e52:	f7ff ffd5 	bl	8002e00 <RTC_ByteToBcd2>
 8002e56:	78f3      	ldrb	r3, [r6, #3]
 8002e58:	ea40 4203 	orr.w	r2, r0, r3, lsl #16
 8002e5c:	ea42 4308 	orr.w	r3, r2, r8, lsl #16
 8002e60:	ea43 2404 	orr.w	r4, r3, r4, lsl #8
 8002e64:	23ca      	movs	r3, #202	; 0xca
 8002e66:	624b      	str	r3, [r1, #36]	; 0x24
 8002e68:	2353      	movs	r3, #83	; 0x53
 8002e6a:	624b      	str	r3, [r1, #36]	; 0x24
 8002e6c:	4628      	mov	r0, r5
 8002e6e:	f7ff ff5f 	bl	8002d30 <RTC_EnterInitMode>
 8002e72:	682a      	ldr	r2, [r5, #0]
 8002e74:	4607      	mov	r7, r0
 8002e76:	b1b0      	cbz	r0, 8002ea6 <HAL_RTC_SetTime+0x90>
 8002e78:	23ff      	movs	r3, #255	; 0xff
 8002e7a:	6253      	str	r3, [r2, #36]	; 0x24
 8002e7c:	2304      	movs	r3, #4
 8002e7e:	776b      	strb	r3, [r5, #29]
 8002e80:	2300      	movs	r3, #0
 8002e82:	772b      	strb	r3, [r5, #28]
 8002e84:	2701      	movs	r7, #1
 8002e86:	4638      	mov	r0, r7
 8002e88:	e8bd 81f0 	ldmia.w	sp!, {r4, r5, r6, r7, r8, pc}
 8002e8c:	688a      	ldr	r2, [r1, #8]
 8002e8e:	f012 0240 	ands.w	r2, r2, #64	; 0x40
 8002e92:	bf08      	it	eq
 8002e94:	70f2      	strbeq	r2, [r6, #3]
 8002e96:	0224      	lsls	r4, r4, #8
 8002e98:	78f3      	ldrb	r3, [r6, #3]
 8002e9a:	ea44 4400 	orr.w	r4, r4, r0, lsl #16
 8002e9e:	433c      	orrs	r4, r7
 8002ea0:	ea44 4403 	orr.w	r4, r4, r3, lsl #16
 8002ea4:	e7de      	b.n	8002e64 <HAL_RTC_SetTime+0x4e>
 8002ea6:	f004 347f 	and.w	r4, r4, #2139062143	; 0x7f7f7f7f
 8002eaa:	f024 44fe 	bic.w	r4, r4, #2130706432	; 0x7f000000
 8002eae:	6014      	str	r4, [r2, #0]
 8002eb0:	6893      	ldr	r3, [r2, #8]
 8002eb2:	f423 2380 	bic.w	r3, r3, #262144	; 0x40000
 8002eb6:	6093      	str	r3, [r2, #8]
 8002eb8:	e9d6 3003 	ldrd	r3, r0, [r6, #12]
 8002ebc:	6891      	ldr	r1, [r2, #8]
 8002ebe:	4303      	orrs	r3, r0
 8002ec0:	430b      	orrs	r3, r1
 8002ec2:	6093      	str	r3, [r2, #8]
 8002ec4:	68d3      	ldr	r3, [r2, #12]
 8002ec6:	f023 0380 	bic.w	r3, r3, #128	; 0x80
 8002eca:	60d3      	str	r3, [r2, #12]
 8002ecc:	6893      	ldr	r3, [r2, #8]
 8002ece:	069b      	lsls	r3, r3, #26
 8002ed0:	d40a      	bmi.n	8002ee8 <HAL_RTC_SetTime+0xd2>
 8002ed2:	4628      	mov	r0, r5
 8002ed4:	f7ff ff14 	bl	8002d00 <HAL_RTC_WaitForSynchro>
 8002ed8:	b130      	cbz	r0, 8002ee8 <HAL_RTC_SetTime+0xd2>
 8002eda:	682b      	ldr	r3, [r5, #0]
 8002edc:	22ff      	movs	r2, #255	; 0xff
 8002ede:	625a      	str	r2, [r3, #36]	; 0x24
 8002ee0:	2304      	movs	r3, #4
 8002ee2:	776b      	strb	r3, [r5, #29]
 8002ee4:	772f      	strb	r7, [r5, #28]
 8002ee6:	e7cd      	b.n	8002e84 <HAL_RTC_SetTime+0x6e>
 8002ee8:	682b      	ldr	r3, [r5, #0]
 8002eea:	22ff      	movs	r2, #255	; 0xff
 8002eec:	625a      	str	r2, [r3, #36]	; 0x24
 8002eee:	2301      	movs	r3, #1
 8002ef0:	776b      	strb	r3, [r5, #29]
 8002ef2:	2300      	movs	r3, #0
 8002ef4:	772b      	strb	r3, [r5, #28]
 8002ef6:	e7c6      	b.n	8002e86 <HAL_RTC_SetTime+0x70>

08002ef8 <HAL_RTC_SetDate>:
 8002ef8:	b5f8      	push	{r3, r4, r5, r6, r7, lr}
 8002efa:	7f03      	ldrb	r3, [r0, #28]
 8002efc:	2b01      	cmp	r3, #1
 8002efe:	4604      	mov	r4, r0
 8002f00:	f04f 0602 	mov.w	r6, #2
 8002f04:	d031      	beq.n	8002f6a <HAL_RTC_SetDate+0x72>
 8002f06:	2301      	movs	r3, #1
 8002f08:	7703      	strb	r3, [r0, #28]
 8002f0a:	7746      	strb	r6, [r0, #29]
 8002f0c:	780d      	ldrb	r5, [r1, #0]
 8002f0e:	78c8      	ldrb	r0, [r1, #3]
 8002f10:	784b      	ldrb	r3, [r1, #1]
 8002f12:	788f      	ldrb	r7, [r1, #2]
 8002f14:	036d      	lsls	r5, r5, #13
 8002f16:	2a00      	cmp	r2, #0
 8002f18:	d148      	bne.n	8002fac <HAL_RTC_SetDate+0xb4>
 8002f1a:	06da      	lsls	r2, r3, #27
 8002f1c:	d503      	bpl.n	8002f26 <HAL_RTC_SetDate+0x2e>
 8002f1e:	f023 0310 	bic.w	r3, r3, #16
 8002f22:	330a      	adds	r3, #10
 8002f24:	704b      	strb	r3, [r1, #1]
 8002f26:	f7ff ff6b 	bl	8002e00 <RTC_ByteToBcd2>
 8002f2a:	4606      	mov	r6, r0
 8002f2c:	7848      	ldrb	r0, [r1, #1]
 8002f2e:	f7ff ff67 	bl	8002e00 <RTC_ByteToBcd2>
 8002f32:	4601      	mov	r1, r0
 8002f34:	4638      	mov	r0, r7
 8002f36:	f7ff ff63 	bl	8002e00 <RTC_ByteToBcd2>
 8002f3a:	ea40 0205 	orr.w	r2, r0, r5
 8002f3e:	ea42 4306 	orr.w	r3, r2, r6, lsl #16
 8002f42:	ea43 2501 	orr.w	r5, r3, r1, lsl #8
 8002f46:	6823      	ldr	r3, [r4, #0]
 8002f48:	22ca      	movs	r2, #202	; 0xca
 8002f4a:	625a      	str	r2, [r3, #36]	; 0x24
 8002f4c:	2253      	movs	r2, #83	; 0x53
 8002f4e:	625a      	str	r2, [r3, #36]	; 0x24
 8002f50:	4620      	mov	r0, r4
 8002f52:	f7ff feed 	bl	8002d30 <RTC_EnterInitMode>
 8002f56:	6822      	ldr	r2, [r4, #0]
 8002f58:	4606      	mov	r6, r0
 8002f5a:	b140      	cbz	r0, 8002f6e <HAL_RTC_SetDate+0x76>
 8002f5c:	23ff      	movs	r3, #255	; 0xff
 8002f5e:	6253      	str	r3, [r2, #36]	; 0x24
 8002f60:	2304      	movs	r3, #4
 8002f62:	7763      	strb	r3, [r4, #29]
 8002f64:	2300      	movs	r3, #0
 8002f66:	7723      	strb	r3, [r4, #28]
 8002f68:	2601      	movs	r6, #1
 8002f6a:	4630      	mov	r0, r6
 8002f6c:	bdf8      	pop	{r3, r4, r5, r6, r7, pc}
 8002f6e:	f025 457f 	bic.w	r5, r5, #4278190080	; 0xff000000
 8002f72:	f025 05c0 	bic.w	r5, r5, #192	; 0xc0
 8002f76:	6055      	str	r5, [r2, #4]
 8002f78:	68d3      	ldr	r3, [r2, #12]
 8002f7a:	f023 0380 	bic.w	r3, r3, #128	; 0x80
 8002f7e:	60d3      	str	r3, [r2, #12]
 8002f80:	6893      	ldr	r3, [r2, #8]
 8002f82:	069b      	lsls	r3, r3, #26
 8002f84:	d40a      	bmi.n	8002f9c <HAL_RTC_SetDate+0xa4>
 8002f86:	4620      	mov	r0, r4
 8002f88:	f7ff feba 	bl	8002d00 <HAL_RTC_WaitForSynchro>
 8002f8c:	b130      	cbz	r0, 8002f9c <HAL_RTC_SetDate+0xa4>
 8002f8e:	6823      	ldr	r3, [r4, #0]
 8002f90:	22ff      	movs	r2, #255	; 0xff
 8002f92:	625a      	str	r2, [r3, #36]	; 0x24
 8002f94:	2304      	movs	r3, #4
 8002f96:	7763      	strb	r3, [r4, #29]
 8002f98:	7726      	strb	r6, [r4, #28]
 8002f9a:	e7e5      	b.n	8002f68 <HAL_RTC_SetDate+0x70>
 8002f9c:	6823      	ldr	r3, [r4, #0]
 8002f9e:	22ff      	movs	r2, #255	; 0xff
 8002fa0:	625a      	str	r2, [r3, #36]	; 0x24
 8002fa2:	2301      	movs	r3, #1
 8002fa4:	7763      	strb	r3, [r4, #29]
 8002fa6:	2300      	movs	r3, #0
 8002fa8:	7723      	strb	r3, [r4, #28]
 8002faa:	e7de      	b.n	8002f6a <HAL_RTC_SetDate+0x72>
 8002fac:	ea45 4500 	orr.w	r5, r5, r0, lsl #16
 8002fb0:	433d      	orrs	r5, r7
 8002fb2:	ea45 2503 	orr.w	r5, r5, r3, lsl #8
 8002fb6:	e7c6      	b.n	8002f46 <HAL_RTC_SetDate+0x4e>

08002fb8 <SPI_WaitFifoStateUntilTimeout.constprop.0>:
 8002fb8:	e92d 43f7 	stmdb	sp!, {r0, r1, r2, r4, r5, r6, r7, r8, r9, lr}
 8002fbc:	4698      	mov	r8, r3
 8002fbe:	2300      	movs	r3, #0
 8002fc0:	4617      	mov	r7, r2
 8002fc2:	f88d 3003 	strb.w	r3, [sp, #3]
 8002fc6:	4605      	mov	r5, r0
 8002fc8:	460e      	mov	r6, r1
 8002fca:	f7ff f8a7 	bl	800211c <HAL_GetTick>
 8002fce:	44b8      	add	r8, r7
 8002fd0:	eba8 0400 	sub.w	r4, r8, r0
 8002fd4:	f7ff f8a2 	bl	800211c <HAL_GetTick>
 8002fd8:	4b29      	ldr	r3, [pc, #164]	; (8003080 <SPI_WaitFifoStateUntilTimeout.constprop.0+0xc8>)
 8002fda:	f8d5 9000 	ldr.w	r9, [r5]
 8002fde:	681b      	ldr	r3, [r3, #0]
 8002fe0:	2223      	movs	r2, #35	; 0x23
 8002fe2:	4353      	muls	r3, r2
 8002fe4:	0d1b      	lsrs	r3, r3, #20
 8002fe6:	4680      	mov	r8, r0
 8002fe8:	4363      	muls	r3, r4
 8002fea:	682a      	ldr	r2, [r5, #0]
 8002fec:	9301      	str	r3, [sp, #4]
 8002fee:	6893      	ldr	r3, [r2, #8]
 8002ff0:	4033      	ands	r3, r6
 8002ff2:	d101      	bne.n	8002ff8 <SPI_WaitFifoStateUntilTimeout.constprop.0+0x40>
 8002ff4:	4618      	mov	r0, r3
 8002ff6:	e038      	b.n	800306a <SPI_WaitFifoStateUntilTimeout.constprop.0+0xb2>
 8002ff8:	f5b6 6fc0 	cmp.w	r6, #1536	; 0x600
 8002ffc:	bf01      	itttt	eq
 8002ffe:	f899 300c 	ldrbeq.w	r3, [r9, #12]
 8003002:	b2db      	uxtbeq	r3, r3
 8003004:	f88d 3003 	strbeq.w	r3, [sp, #3]
 8003008:	f89d 3003 	ldrbeq.w	r3, [sp, #3]
 800300c:	1c7b      	adds	r3, r7, #1
 800300e:	d0ee      	beq.n	8002fee <SPI_WaitFifoStateUntilTimeout.constprop.0+0x36>
 8003010:	f7ff f884 	bl	800211c <HAL_GetTick>
 8003014:	eba0 0008 	sub.w	r0, r0, r8
 8003018:	42a0      	cmp	r0, r4
 800301a:	d329      	bcc.n	8003070 <SPI_WaitFifoStateUntilTimeout.constprop.0+0xb8>
 800301c:	682b      	ldr	r3, [r5, #0]
 800301e:	685a      	ldr	r2, [r3, #4]
 8003020:	f022 02e0 	bic.w	r2, r2, #224	; 0xe0
 8003024:	605a      	str	r2, [r3, #4]
 8003026:	686a      	ldr	r2, [r5, #4]
 8003028:	f5b2 7f82 	cmp.w	r2, #260	; 0x104
 800302c:	d10a      	bne.n	8003044 <SPI_WaitFifoStateUntilTimeout.constprop.0+0x8c>
 800302e:	68aa      	ldr	r2, [r5, #8]
 8003030:	f5b2 4f00 	cmp.w	r2, #32768	; 0x8000
 8003034:	d002      	beq.n	800303c <SPI_WaitFifoStateUntilTimeout.constprop.0+0x84>
 8003036:	f5b2 6f80 	cmp.w	r2, #1024	; 0x400
 800303a:	d103      	bne.n	8003044 <SPI_WaitFifoStateUntilTimeout.constprop.0+0x8c>
 800303c:	681a      	ldr	r2, [r3, #0]
 800303e:	f022 0240 	bic.w	r2, r2, #64	; 0x40
 8003042:	601a      	str	r2, [r3, #0]
 8003044:	6aaa      	ldr	r2, [r5, #40]	; 0x28
 8003046:	f5b2 5f00 	cmp.w	r2, #8192	; 0x2000
 800304a:	d107      	bne.n	800305c <SPI_WaitFifoStateUntilTimeout.constprop.0+0xa4>
 800304c:	681a      	ldr	r2, [r3, #0]
 800304e:	f422 5200 	bic.w	r2, r2, #8192	; 0x2000
 8003052:	601a      	str	r2, [r3, #0]
 8003054:	681a      	ldr	r2, [r3, #0]
 8003056:	f442 5200 	orr.w	r2, r2, #8192	; 0x2000
 800305a:	601a      	str	r2, [r3, #0]
 800305c:	2301      	movs	r3, #1
 800305e:	f885 305d 	strb.w	r3, [r5, #93]	; 0x5d
 8003062:	2300      	movs	r3, #0
 8003064:	f885 305c 	strb.w	r3, [r5, #92]	; 0x5c
 8003068:	2003      	movs	r0, #3
 800306a:	b003      	add	sp, #12
 800306c:	e8bd 83f0 	ldmia.w	sp!, {r4, r5, r6, r7, r8, r9, pc}
 8003070:	9b01      	ldr	r3, [sp, #4]
 8003072:	2b00      	cmp	r3, #0
 8003074:	9b01      	ldr	r3, [sp, #4]
 8003076:	bf08      	it	eq
 8003078:	2400      	moveq	r4, #0
 800307a:	3b01      	subs	r3, #1
 800307c:	e7b5      	b.n	8002fea <SPI_WaitFifoStateUntilTimeout.constprop.0+0x32>
 800307e:	bf00      	nop
 8003080:	20000008 	.word	0x20000008

08003084 <SPI_WaitFlagStateUntilTimeout.constprop.0>:
 8003084:	b5f7      	push	{r0, r1, r2, r4, r5, r6, r7, lr}
 8003086:	460e      	mov	r6, r1
 8003088:	4617      	mov	r7, r2
 800308a:	4605      	mov	r5, r0
 800308c:	f7ff f846 	bl	800211c <HAL_GetTick>
 8003090:	4437      	add	r7, r6
 8003092:	1a3c      	subs	r4, r7, r0
 8003094:	f7ff f842 	bl	800211c <HAL_GetTick>
 8003098:	4b22      	ldr	r3, [pc, #136]	; (8003124 <SPI_WaitFlagStateUntilTimeout.constprop.0+0xa0>)
 800309a:	681b      	ldr	r3, [r3, #0]
 800309c:	f3c3 33cb 	ubfx	r3, r3, #15, #12
 80030a0:	4607      	mov	r7, r0
 80030a2:	4363      	muls	r3, r4
 80030a4:	682a      	ldr	r2, [r5, #0]
 80030a6:	9301      	str	r3, [sp, #4]
 80030a8:	6893      	ldr	r3, [r2, #8]
 80030aa:	f013 0380 	ands.w	r3, r3, #128	; 0x80
 80030ae:	d101      	bne.n	80030b4 <SPI_WaitFlagStateUntilTimeout.constprop.0+0x30>
 80030b0:	4618      	mov	r0, r3
 80030b2:	e02d      	b.n	8003110 <SPI_WaitFlagStateUntilTimeout.constprop.0+0x8c>
 80030b4:	1c73      	adds	r3, r6, #1
 80030b6:	d0f7      	beq.n	80030a8 <SPI_WaitFlagStateUntilTimeout.constprop.0+0x24>
 80030b8:	f7ff f830 	bl	800211c <HAL_GetTick>
 80030bc:	1bc0      	subs	r0, r0, r7
 80030be:	42a0      	cmp	r0, r4
 80030c0:	d328      	bcc.n	8003114 <SPI_WaitFlagStateUntilTimeout.constprop.0+0x90>
 80030c2:	682b      	ldr	r3, [r5, #0]
 80030c4:	685a      	ldr	r2, [r3, #4]
 80030c6:	f022 02e0 	bic.w	r2, r2, #224	; 0xe0
 80030ca:	605a      	str	r2, [r3, #4]
 80030cc:	686a      	ldr	r2, [r5, #4]
 80030ce:	f5b2 7f82 	cmp.w	r2, #260	; 0x104
 80030d2:	d10a      	bne.n	80030ea <SPI_WaitFlagStateUntilTimeout.constprop.0+0x66>
 80030d4:	68aa      	ldr	r2, [r5, #8]
 80030d6:	f5b2 4f00 	cmp.w	r2, #32768	; 0x8000
 80030da:	d002      	beq.n	80030e2 <SPI_WaitFlagStateUntilTimeout.constprop.0+0x5e>
 80030dc:	f5b2 6f80 	cmp.w	r2, #1024	; 0x400
 80030e0:	d103      	bne.n	80030ea <SPI_WaitFlagStateUntilTimeout.constprop.0+0x66>
 80030e2:	681a      	ldr	r2, [r3, #0]
 80030e4:	f022 0240 	bic.w	r2, r2, #64	; 0x40
 80030e8:	601a      	str	r2, [r3, #0]
 80030ea:	6aaa      	ldr	r2, [r5, #40]	; 0x28
 80030ec:	f5b2 5f00 	cmp.w	r2, #8192	; 0x2000
 80030f0:	d107      	bne.n	8003102 <SPI_WaitFlagStateUntilTimeout.constprop.0+0x7e>
 80030f2:	681a      	ldr	r2, [r3, #0]
 80030f4:	f422 5200 	bic.w	r2, r2, #8192	; 0x2000
 80030f8:	601a      	str	r2, [r3, #0]
 80030fa:	681a      	ldr	r2, [r3, #0]
 80030fc:	f442 5200 	orr.w	r2, r2, #8192	; 0x2000
 8003100:	601a      	str	r2, [r3, #0]
 8003102:	2301      	movs	r3, #1
 8003104:	f885 305d 	strb.w	r3, [r5, #93]	; 0x5d
 8003108:	2300      	movs	r3, #0
 800310a:	f885 305c 	strb.w	r3, [r5, #92]	; 0x5c
 800310e:	2003      	movs	r0, #3
 8003110:	b003      	add	sp, #12
 8003112:	bdf0      	pop	{r4, r5, r6, r7, pc}
 8003114:	9b01      	ldr	r3, [sp, #4]
 8003116:	2b00      	cmp	r3, #0
 8003118:	9b01      	ldr	r3, [sp, #4]
 800311a:	bf08      	it	eq
 800311c:	2400      	moveq	r4, #0
 800311e:	3b01      	subs	r3, #1
 8003120:	e7c0      	b.n	80030a4 <SPI_WaitFlagStateUntilTimeout.constprop.0+0x20>
 8003122:	bf00      	nop
 8003124:	20000008 	.word	0x20000008

08003128 <SPI_EndRxTransaction>:
 8003128:	4613      	mov	r3, r2
 800312a:	6842      	ldr	r2, [r0, #4]
 800312c:	f5b2 7f82 	cmp.w	r2, #260	; 0x104
 8003130:	b573      	push	{r0, r1, r4, r5, r6, lr}
 8003132:	4604      	mov	r4, r0
 8003134:	460e      	mov	r6, r1
 8003136:	d10b      	bne.n	8003150 <SPI_EndRxTransaction+0x28>
 8003138:	6882      	ldr	r2, [r0, #8]
 800313a:	f5b2 4f00 	cmp.w	r2, #32768	; 0x8000
 800313e:	d002      	beq.n	8003146 <SPI_EndRxTransaction+0x1e>
 8003140:	f5b2 6f80 	cmp.w	r2, #1024	; 0x400
 8003144:	d104      	bne.n	8003150 <SPI_EndRxTransaction+0x28>
 8003146:	6820      	ldr	r0, [r4, #0]
 8003148:	6802      	ldr	r2, [r0, #0]
 800314a:	f022 0240 	bic.w	r2, r2, #64	; 0x40
 800314e:	6002      	str	r2, [r0, #0]
 8003150:	461a      	mov	r2, r3
 8003152:	4631      	mov	r1, r6
 8003154:	4620      	mov	r0, r4
 8003156:	9301      	str	r3, [sp, #4]
 8003158:	f7ff ff94 	bl	8003084 <SPI_WaitFlagStateUntilTimeout.constprop.0>
 800315c:	9b01      	ldr	r3, [sp, #4]
 800315e:	4605      	mov	r5, r0
 8003160:	b128      	cbz	r0, 800316e <SPI_EndRxTransaction+0x46>
 8003162:	6e23      	ldr	r3, [r4, #96]	; 0x60
 8003164:	f043 0320 	orr.w	r3, r3, #32
 8003168:	6623      	str	r3, [r4, #96]	; 0x60
 800316a:	2503      	movs	r5, #3
 800316c:	e012      	b.n	8003194 <SPI_EndRxTransaction+0x6c>
 800316e:	6862      	ldr	r2, [r4, #4]
 8003170:	f5b2 7f82 	cmp.w	r2, #260	; 0x104
 8003174:	d10e      	bne.n	8003194 <SPI_EndRxTransaction+0x6c>
 8003176:	68a2      	ldr	r2, [r4, #8]
 8003178:	f5b2 4f00 	cmp.w	r2, #32768	; 0x8000
 800317c:	d002      	beq.n	8003184 <SPI_EndRxTransaction+0x5c>
 800317e:	f5b2 6f80 	cmp.w	r2, #1024	; 0x400
 8003182:	d107      	bne.n	8003194 <SPI_EndRxTransaction+0x6c>
 8003184:	4632      	mov	r2, r6
 8003186:	f44f 61c0 	mov.w	r1, #1536	; 0x600
 800318a:	4620      	mov	r0, r4
 800318c:	f7ff ff14 	bl	8002fb8 <SPI_WaitFifoStateUntilTimeout.constprop.0>
 8003190:	2800      	cmp	r0, #0
 8003192:	d1e6      	bne.n	8003162 <SPI_EndRxTransaction+0x3a>
 8003194:	4628      	mov	r0, r5
 8003196:	b002      	add	sp, #8
 8003198:	bd70      	pop	{r4, r5, r6, pc}

0800319a <SPI_EndRxTxTransaction>:
 800319a:	b537      	push	{r0, r1, r2, r4, r5, lr}
 800319c:	4613      	mov	r3, r2
 800319e:	9201      	str	r2, [sp, #4]
 80031a0:	460d      	mov	r5, r1
 80031a2:	460a      	mov	r2, r1
 80031a4:	f44f 51c0 	mov.w	r1, #6144	; 0x1800
 80031a8:	4604      	mov	r4, r0
 80031aa:	f7ff ff05 	bl	8002fb8 <SPI_WaitFifoStateUntilTimeout.constprop.0>
 80031ae:	9b01      	ldr	r3, [sp, #4]
 80031b0:	b128      	cbz	r0, 80031be <SPI_EndRxTxTransaction+0x24>
 80031b2:	6e23      	ldr	r3, [r4, #96]	; 0x60
 80031b4:	f043 0320 	orr.w	r3, r3, #32
 80031b8:	6623      	str	r3, [r4, #96]	; 0x60
 80031ba:	2003      	movs	r0, #3
 80031bc:	e010      	b.n	80031e0 <SPI_EndRxTxTransaction+0x46>
 80031be:	461a      	mov	r2, r3
 80031c0:	4629      	mov	r1, r5
 80031c2:	4620      	mov	r0, r4
 80031c4:	9301      	str	r3, [sp, #4]
 80031c6:	f7ff ff5d 	bl	8003084 <SPI_WaitFlagStateUntilTimeout.constprop.0>
 80031ca:	9b01      	ldr	r3, [sp, #4]
 80031cc:	2800      	cmp	r0, #0
 80031ce:	d1f0      	bne.n	80031b2 <SPI_EndRxTxTransaction+0x18>
 80031d0:	462a      	mov	r2, r5
 80031d2:	f44f 61c0 	mov.w	r1, #1536	; 0x600
 80031d6:	4620      	mov	r0, r4
 80031d8:	f7ff feee 	bl	8002fb8 <SPI_WaitFifoStateUntilTimeout.constprop.0>
 80031dc:	2800      	cmp	r0, #0
 80031de:	d1e8      	bne.n	80031b2 <SPI_EndRxTxTransaction+0x18>
 80031e0:	b003      	add	sp, #12
 80031e2:	bd30      	pop	{r4, r5, pc}

080031e4 <HAL_SPI_Init>:
 80031e4:	b570      	push	{r4, r5, r6, lr}
 80031e6:	4604      	mov	r4, r0
 80031e8:	2800      	cmp	r0, #0
 80031ea:	d063      	beq.n	80032b4 <HAL_SPI_Init+0xd0>
 80031ec:	6a43      	ldr	r3, [r0, #36]	; 0x24
 80031ee:	2b00      	cmp	r3, #0
 80031f0:	d15c      	bne.n	80032ac <HAL_SPI_Init+0xc8>
 80031f2:	6842      	ldr	r2, [r0, #4]
 80031f4:	f5b2 7f82 	cmp.w	r2, #260	; 0x104
 80031f8:	d000      	beq.n	80031fc <HAL_SPI_Init+0x18>
 80031fa:	61c3      	str	r3, [r0, #28]
 80031fc:	2300      	movs	r3, #0
 80031fe:	62a3      	str	r3, [r4, #40]	; 0x28
 8003200:	f894 305d 	ldrb.w	r3, [r4, #93]	; 0x5d
 8003204:	f003 02ff 	and.w	r2, r3, #255	; 0xff
 8003208:	b923      	cbnz	r3, 8003214 <HAL_SPI_Init+0x30>
 800320a:	f884 205c 	strb.w	r2, [r4, #92]	; 0x5c
 800320e:	4620      	mov	r0, r4
 8003210:	f7fe f9f6 	bl	8001600 <HAL_SPI_MspInit>
 8003214:	6822      	ldr	r2, [r4, #0]
 8003216:	68e0      	ldr	r0, [r4, #12]
 8003218:	2302      	movs	r3, #2
 800321a:	f884 305d 	strb.w	r3, [r4, #93]	; 0x5d
 800321e:	6813      	ldr	r3, [r2, #0]
 8003220:	f5b0 6fe0 	cmp.w	r0, #1792	; 0x700
 8003224:	f023 0340 	bic.w	r3, r3, #64	; 0x40
 8003228:	6013      	str	r3, [r2, #0]
 800322a:	f04f 0300 	mov.w	r3, #0
 800322e:	d843      	bhi.n	80032b8 <HAL_SPI_Init+0xd4>
 8003230:	f44f 5580 	mov.w	r5, #4096	; 0x1000
 8003234:	d000      	beq.n	8003238 <HAL_SPI_Init+0x54>
 8003236:	62a3      	str	r3, [r4, #40]	; 0x28
 8003238:	6863      	ldr	r3, [r4, #4]
 800323a:	68a6      	ldr	r6, [r4, #8]
 800323c:	69a1      	ldr	r1, [r4, #24]
 800323e:	f406 4604 	and.w	r6, r6, #33792	; 0x8400
 8003242:	f403 7382 	and.w	r3, r3, #260	; 0x104
 8003246:	4333      	orrs	r3, r6
 8003248:	6926      	ldr	r6, [r4, #16]
 800324a:	f006 0602 	and.w	r6, r6, #2
 800324e:	4333      	orrs	r3, r6
 8003250:	6966      	ldr	r6, [r4, #20]
 8003252:	f006 0601 	and.w	r6, r6, #1
 8003256:	4333      	orrs	r3, r6
 8003258:	f401 7600 	and.w	r6, r1, #512	; 0x200
 800325c:	4333      	orrs	r3, r6
 800325e:	69e6      	ldr	r6, [r4, #28]
 8003260:	f006 0638 	and.w	r6, r6, #56	; 0x38
 8003264:	4333      	orrs	r3, r6
 8003266:	6a26      	ldr	r6, [r4, #32]
 8003268:	f006 0680 	and.w	r6, r6, #128	; 0x80
 800326c:	4333      	orrs	r3, r6
 800326e:	6aa6      	ldr	r6, [r4, #40]	; 0x28
 8003270:	f406 5600 	and.w	r6, r6, #8192	; 0x2000
 8003274:	4333      	orrs	r3, r6
 8003276:	6013      	str	r3, [r2, #0]
 8003278:	6b66      	ldr	r6, [r4, #52]	; 0x34
 800327a:	6a63      	ldr	r3, [r4, #36]	; 0x24
 800327c:	f006 0608 	and.w	r6, r6, #8
 8003280:	f003 0310 	and.w	r3, r3, #16
 8003284:	4333      	orrs	r3, r6
 8003286:	f400 6070 	and.w	r0, r0, #3840	; 0xf00
 800328a:	0c09      	lsrs	r1, r1, #16
 800328c:	4318      	orrs	r0, r3
 800328e:	f001 0104 	and.w	r1, r1, #4
 8003292:	4301      	orrs	r1, r0
 8003294:	430d      	orrs	r5, r1
 8003296:	6055      	str	r5, [r2, #4]
 8003298:	69d3      	ldr	r3, [r2, #28]
 800329a:	f423 6300 	bic.w	r3, r3, #2048	; 0x800
 800329e:	61d3      	str	r3, [r2, #28]
 80032a0:	2000      	movs	r0, #0
 80032a2:	2301      	movs	r3, #1
 80032a4:	6620      	str	r0, [r4, #96]	; 0x60
 80032a6:	f884 305d 	strb.w	r3, [r4, #93]	; 0x5d
 80032aa:	bd70      	pop	{r4, r5, r6, pc}
 80032ac:	2300      	movs	r3, #0
 80032ae:	e9c0 3304 	strd	r3, r3, [r0, #16]
 80032b2:	e7a3      	b.n	80031fc <HAL_SPI_Init+0x18>
 80032b4:	2001      	movs	r0, #1
 80032b6:	e7f8      	b.n	80032aa <HAL_SPI_Init+0xc6>
 80032b8:	461d      	mov	r5, r3
 80032ba:	f5b0 6f70 	cmp.w	r0, #3840	; 0xf00
 80032be:	e7b9      	b.n	8003234 <HAL_SPI_Init+0x50>

080032c0 <HAL_SPI_Transmit>:
 80032c0:	e92d 43f7 	stmdb	sp!, {r0, r1, r2, r4, r5, r6, r7, r8, r9, lr}
 80032c4:	461f      	mov	r7, r3
 80032c6:	f890 305c 	ldrb.w	r3, [r0, #92]	; 0x5c
 80032ca:	2b01      	cmp	r3, #1
 80032cc:	4604      	mov	r4, r0
 80032ce:	460d      	mov	r5, r1
 80032d0:	4690      	mov	r8, r2
 80032d2:	f000 80bc 	beq.w	800344e <HAL_SPI_Transmit+0x18e>
 80032d6:	2301      	movs	r3, #1
 80032d8:	f880 305c 	strb.w	r3, [r0, #92]	; 0x5c
 80032dc:	f7fe ff1e 	bl	800211c <HAL_GetTick>
 80032e0:	f894 305d 	ldrb.w	r3, [r4, #93]	; 0x5d
 80032e4:	2b01      	cmp	r3, #1
 80032e6:	4681      	mov	r9, r0
 80032e8:	b2d8      	uxtb	r0, r3
 80032ea:	f040 80ae 	bne.w	800344a <HAL_SPI_Transmit+0x18a>
 80032ee:	2d00      	cmp	r5, #0
 80032f0:	d063      	beq.n	80033ba <HAL_SPI_Transmit+0xfa>
 80032f2:	f1b8 0f00 	cmp.w	r8, #0
 80032f6:	d060      	beq.n	80033ba <HAL_SPI_Transmit+0xfa>
 80032f8:	2303      	movs	r3, #3
 80032fa:	f884 305d 	strb.w	r3, [r4, #93]	; 0x5d
 80032fe:	2300      	movs	r3, #0
 8003300:	6623      	str	r3, [r4, #96]	; 0x60
 8003302:	e9c4 3313 	strd	r3, r3, [r4, #76]	; 0x4c
 8003306:	f8a4 803e 	strh.w	r8, [r4, #62]	; 0x3e
 800330a:	6423      	str	r3, [r4, #64]	; 0x40
 800330c:	f8a4 3044 	strh.w	r3, [r4, #68]	; 0x44
 8003310:	f8a4 3046 	strh.w	r3, [r4, #70]	; 0x46
 8003314:	68a3      	ldr	r3, [r4, #8]
 8003316:	6826      	ldr	r6, [r4, #0]
 8003318:	63a5      	str	r5, [r4, #56]	; 0x38
 800331a:	f5b3 4f00 	cmp.w	r3, #32768	; 0x8000
 800331e:	f8a4 803c 	strh.w	r8, [r4, #60]	; 0x3c
 8003322:	d107      	bne.n	8003334 <HAL_SPI_Transmit+0x74>
 8003324:	6833      	ldr	r3, [r6, #0]
 8003326:	f023 0340 	bic.w	r3, r3, #64	; 0x40
 800332a:	6033      	str	r3, [r6, #0]
 800332c:	6833      	ldr	r3, [r6, #0]
 800332e:	f443 4380 	orr.w	r3, r3, #16384	; 0x4000
 8003332:	6033      	str	r3, [r6, #0]
 8003334:	6833      	ldr	r3, [r6, #0]
 8003336:	68e2      	ldr	r2, [r4, #12]
 8003338:	065b      	lsls	r3, r3, #25
 800333a:	bf5e      	ittt	pl
 800333c:	6833      	ldrpl	r3, [r6, #0]
 800333e:	f043 0340 	orrpl.w	r3, r3, #64	; 0x40
 8003342:	6033      	strpl	r3, [r6, #0]
 8003344:	f5b2 6fe0 	cmp.w	r2, #1792	; 0x700
 8003348:	6863      	ldr	r3, [r4, #4]
 800334a:	d942      	bls.n	80033d2 <HAL_SPI_Transmit+0x112>
 800334c:	b113      	cbz	r3, 8003354 <HAL_SPI_Transmit+0x94>
 800334e:	f1b8 0f01 	cmp.w	r8, #1
 8003352:	d107      	bne.n	8003364 <HAL_SPI_Transmit+0xa4>
 8003354:	f835 3b02 	ldrh.w	r3, [r5], #2
 8003358:	60f3      	str	r3, [r6, #12]
 800335a:	63a5      	str	r5, [r4, #56]	; 0x38
 800335c:	8fe3      	ldrh	r3, [r4, #62]	; 0x3e
 800335e:	3b01      	subs	r3, #1
 8003360:	b29b      	uxth	r3, r3
 8003362:	87e3      	strh	r3, [r4, #62]	; 0x3e
 8003364:	8fe3      	ldrh	r3, [r4, #62]	; 0x3e
 8003366:	b29b      	uxth	r3, r3
 8003368:	b9a3      	cbnz	r3, 8003394 <HAL_SPI_Transmit+0xd4>
 800336a:	464a      	mov	r2, r9
 800336c:	4639      	mov	r1, r7
 800336e:	4620      	mov	r0, r4
 8003370:	f7ff ff13 	bl	800319a <SPI_EndRxTxTransaction>
 8003374:	2800      	cmp	r0, #0
 8003376:	d165      	bne.n	8003444 <HAL_SPI_Transmit+0x184>
 8003378:	68a3      	ldr	r3, [r4, #8]
 800337a:	b933      	cbnz	r3, 800338a <HAL_SPI_Transmit+0xca>
 800337c:	9301      	str	r3, [sp, #4]
 800337e:	6823      	ldr	r3, [r4, #0]
 8003380:	68da      	ldr	r2, [r3, #12]
 8003382:	9201      	str	r2, [sp, #4]
 8003384:	689b      	ldr	r3, [r3, #8]
 8003386:	9301      	str	r3, [sp, #4]
 8003388:	9b01      	ldr	r3, [sp, #4]
 800338a:	6e20      	ldr	r0, [r4, #96]	; 0x60
 800338c:	3800      	subs	r0, #0
 800338e:	bf18      	it	ne
 8003390:	2001      	movne	r0, #1
 8003392:	e012      	b.n	80033ba <HAL_SPI_Transmit+0xfa>
 8003394:	6822      	ldr	r2, [r4, #0]
 8003396:	6893      	ldr	r3, [r2, #8]
 8003398:	079d      	lsls	r5, r3, #30
 800339a:	d505      	bpl.n	80033a8 <HAL_SPI_Transmit+0xe8>
 800339c:	6ba3      	ldr	r3, [r4, #56]	; 0x38
 800339e:	f833 1b02 	ldrh.w	r1, [r3], #2
 80033a2:	60d1      	str	r1, [r2, #12]
 80033a4:	63a3      	str	r3, [r4, #56]	; 0x38
 80033a6:	e7d9      	b.n	800335c <HAL_SPI_Transmit+0x9c>
 80033a8:	f7fe feb8 	bl	800211c <HAL_GetTick>
 80033ac:	eba0 0009 	sub.w	r0, r0, r9
 80033b0:	42b8      	cmp	r0, r7
 80033b2:	d30b      	bcc.n	80033cc <HAL_SPI_Transmit+0x10c>
 80033b4:	1c78      	adds	r0, r7, #1
 80033b6:	d0d5      	beq.n	8003364 <HAL_SPI_Transmit+0xa4>
 80033b8:	2003      	movs	r0, #3
 80033ba:	2301      	movs	r3, #1
 80033bc:	f884 305d 	strb.w	r3, [r4, #93]	; 0x5d
 80033c0:	2300      	movs	r3, #0
 80033c2:	f884 305c 	strb.w	r3, [r4, #92]	; 0x5c
 80033c6:	b003      	add	sp, #12
 80033c8:	e8bd 83f0 	ldmia.w	sp!, {r4, r5, r6, r7, r8, r9, pc}
 80033cc:	2f00      	cmp	r7, #0
 80033ce:	d1c9      	bne.n	8003364 <HAL_SPI_Transmit+0xa4>
 80033d0:	e7f2      	b.n	80033b8 <HAL_SPI_Transmit+0xf8>
 80033d2:	b113      	cbz	r3, 80033da <HAL_SPI_Transmit+0x11a>
 80033d4:	f1b8 0f01 	cmp.w	r8, #1
 80033d8:	d113      	bne.n	8003402 <HAL_SPI_Transmit+0x142>
 80033da:	8fe3      	ldrh	r3, [r4, #62]	; 0x3e
 80033dc:	b29b      	uxth	r3, r3
 80033de:	2b01      	cmp	r3, #1
 80033e0:	d906      	bls.n	80033f0 <HAL_SPI_Transmit+0x130>
 80033e2:	f835 3b02 	ldrh.w	r3, [r5], #2
 80033e6:	60f3      	str	r3, [r6, #12]
 80033e8:	63a5      	str	r5, [r4, #56]	; 0x38
 80033ea:	8fe3      	ldrh	r3, [r4, #62]	; 0x3e
 80033ec:	3b02      	subs	r3, #2
 80033ee:	e006      	b.n	80033fe <HAL_SPI_Transmit+0x13e>
 80033f0:	782b      	ldrb	r3, [r5, #0]
 80033f2:	7333      	strb	r3, [r6, #12]
 80033f4:	6ba3      	ldr	r3, [r4, #56]	; 0x38
 80033f6:	3301      	adds	r3, #1
 80033f8:	63a3      	str	r3, [r4, #56]	; 0x38
 80033fa:	8fe3      	ldrh	r3, [r4, #62]	; 0x3e
 80033fc:	3b01      	subs	r3, #1
 80033fe:	b29b      	uxth	r3, r3
 8003400:	87e3      	strh	r3, [r4, #62]	; 0x3e
 8003402:	8fe3      	ldrh	r3, [r4, #62]	; 0x3e
 8003404:	b29b      	uxth	r3, r3
 8003406:	2b00      	cmp	r3, #0
 8003408:	d0af      	beq.n	800336a <HAL_SPI_Transmit+0xaa>
 800340a:	6822      	ldr	r2, [r4, #0]
 800340c:	6893      	ldr	r3, [r2, #8]
 800340e:	0799      	lsls	r1, r3, #30
 8003410:	d50c      	bpl.n	800342c <HAL_SPI_Transmit+0x16c>
 8003412:	8fe1      	ldrh	r1, [r4, #62]	; 0x3e
 8003414:	6ba3      	ldr	r3, [r4, #56]	; 0x38
 8003416:	b289      	uxth	r1, r1
 8003418:	2901      	cmp	r1, #1
 800341a:	d904      	bls.n	8003426 <HAL_SPI_Transmit+0x166>
 800341c:	f833 1b02 	ldrh.w	r1, [r3], #2
 8003420:	60d1      	str	r1, [r2, #12]
 8003422:	63a3      	str	r3, [r4, #56]	; 0x38
 8003424:	e7e1      	b.n	80033ea <HAL_SPI_Transmit+0x12a>
 8003426:	781b      	ldrb	r3, [r3, #0]
 8003428:	7313      	strb	r3, [r2, #12]
 800342a:	e7e3      	b.n	80033f4 <HAL_SPI_Transmit+0x134>
 800342c:	f7fe fe76 	bl	800211c <HAL_GetTick>
 8003430:	eba0 0009 	sub.w	r0, r0, r9
 8003434:	42b8      	cmp	r0, r7
 8003436:	d302      	bcc.n	800343e <HAL_SPI_Transmit+0x17e>
 8003438:	1c7b      	adds	r3, r7, #1
 800343a:	d0e2      	beq.n	8003402 <HAL_SPI_Transmit+0x142>
 800343c:	e7bc      	b.n	80033b8 <HAL_SPI_Transmit+0xf8>
 800343e:	2f00      	cmp	r7, #0
 8003440:	d1df      	bne.n	8003402 <HAL_SPI_Transmit+0x142>
 8003442:	e7b9      	b.n	80033b8 <HAL_SPI_Transmit+0xf8>
 8003444:	2320      	movs	r3, #32
 8003446:	6623      	str	r3, [r4, #96]	; 0x60
 8003448:	e796      	b.n	8003378 <HAL_SPI_Transmit+0xb8>
 800344a:	2002      	movs	r0, #2
 800344c:	e7b5      	b.n	80033ba <HAL_SPI_Transmit+0xfa>
 800344e:	2002      	movs	r0, #2
 8003450:	e7b9      	b.n	80033c6 <HAL_SPI_Transmit+0x106>

08003452 <HAL_SPI_TransmitReceive>:
 8003452:	e92d 43f8 	stmdb	sp!, {r3, r4, r5, r6, r7, r8, r9, lr}
 8003456:	461f      	mov	r7, r3
 8003458:	f890 305c 	ldrb.w	r3, [r0, #92]	; 0x5c
 800345c:	f8dd 8020 	ldr.w	r8, [sp, #32]
 8003460:	2b01      	cmp	r3, #1
 8003462:	4604      	mov	r4, r0
 8003464:	460d      	mov	r5, r1
 8003466:	4616      	mov	r6, r2
 8003468:	f000 811d 	beq.w	80036a6 <HAL_SPI_TransmitReceive+0x254>
 800346c:	2301      	movs	r3, #1
 800346e:	f880 305c 	strb.w	r3, [r0, #92]	; 0x5c
 8003472:	f7fe fe53 	bl	800211c <HAL_GetTick>
 8003476:	f894 205d 	ldrb.w	r2, [r4, #93]	; 0x5d
 800347a:	6863      	ldr	r3, [r4, #4]
 800347c:	2a01      	cmp	r2, #1
 800347e:	4681      	mov	r9, r0
 8003480:	b2d1      	uxtb	r1, r2
 8003482:	d00a      	beq.n	800349a <HAL_SPI_TransmitReceive+0x48>
 8003484:	f5b3 7f82 	cmp.w	r3, #260	; 0x104
 8003488:	f040 810b 	bne.w	80036a2 <HAL_SPI_TransmitReceive+0x250>
 800348c:	68a2      	ldr	r2, [r4, #8]
 800348e:	2a00      	cmp	r2, #0
 8003490:	f040 8107 	bne.w	80036a2 <HAL_SPI_TransmitReceive+0x250>
 8003494:	2904      	cmp	r1, #4
 8003496:	f040 8104 	bne.w	80036a2 <HAL_SPI_TransmitReceive+0x250>
 800349a:	2d00      	cmp	r5, #0
 800349c:	d047      	beq.n	800352e <HAL_SPI_TransmitReceive+0xdc>
 800349e:	2e00      	cmp	r6, #0
 80034a0:	d045      	beq.n	800352e <HAL_SPI_TransmitReceive+0xdc>
 80034a2:	2f00      	cmp	r7, #0
 80034a4:	d043      	beq.n	800352e <HAL_SPI_TransmitReceive+0xdc>
 80034a6:	f894 205d 	ldrb.w	r2, [r4, #93]	; 0x5d
 80034aa:	68e1      	ldr	r1, [r4, #12]
 80034ac:	6426      	str	r6, [r4, #64]	; 0x40
 80034ae:	2a04      	cmp	r2, #4
 80034b0:	bf1c      	itt	ne
 80034b2:	2205      	movne	r2, #5
 80034b4:	f884 205d 	strbne.w	r2, [r4, #93]	; 0x5d
 80034b8:	6826      	ldr	r6, [r4, #0]
 80034ba:	f8a4 7044 	strh.w	r7, [r4, #68]	; 0x44
 80034be:	2200      	movs	r2, #0
 80034c0:	6622      	str	r2, [r4, #96]	; 0x60
 80034c2:	f5b1 6fe0 	cmp.w	r1, #1792	; 0x700
 80034c6:	f8a4 7046 	strh.w	r7, [r4, #70]	; 0x46
 80034ca:	87e7      	strh	r7, [r4, #62]	; 0x3e
 80034cc:	e9c4 2213 	strd	r2, r2, [r4, #76]	; 0x4c
 80034d0:	63a5      	str	r5, [r4, #56]	; 0x38
 80034d2:	6872      	ldr	r2, [r6, #4]
 80034d4:	87a7      	strh	r7, [r4, #60]	; 0x3c
 80034d6:	d801      	bhi.n	80034dc <HAL_SPI_TransmitReceive+0x8a>
 80034d8:	2f01      	cmp	r7, #1
 80034da:	d02a      	beq.n	8003532 <HAL_SPI_TransmitReceive+0xe0>
 80034dc:	f422 5280 	bic.w	r2, r2, #4096	; 0x1000
 80034e0:	6072      	str	r2, [r6, #4]
 80034e2:	6832      	ldr	r2, [r6, #0]
 80034e4:	0650      	lsls	r0, r2, #25
 80034e6:	bf5e      	ittt	pl
 80034e8:	6832      	ldrpl	r2, [r6, #0]
 80034ea:	f042 0240 	orrpl.w	r2, r2, #64	; 0x40
 80034ee:	6032      	strpl	r2, [r6, #0]
 80034f0:	f5b1 6fe0 	cmp.w	r1, #1792	; 0x700
 80034f4:	d958      	bls.n	80035a8 <HAL_SPI_TransmitReceive+0x156>
 80034f6:	b10b      	cbz	r3, 80034fc <HAL_SPI_TransmitReceive+0xaa>
 80034f8:	2f01      	cmp	r7, #1
 80034fa:	d107      	bne.n	800350c <HAL_SPI_TransmitReceive+0xba>
 80034fc:	f835 3b02 	ldrh.w	r3, [r5], #2
 8003500:	60f3      	str	r3, [r6, #12]
 8003502:	8fe3      	ldrh	r3, [r4, #62]	; 0x3e
 8003504:	63a5      	str	r5, [r4, #56]	; 0x38
 8003506:	3b01      	subs	r3, #1
 8003508:	b29b      	uxth	r3, r3
 800350a:	87e3      	strh	r3, [r4, #62]	; 0x3e
 800350c:	2501      	movs	r5, #1
 800350e:	8fe3      	ldrh	r3, [r4, #62]	; 0x3e
 8003510:	b29b      	uxth	r3, r3
 8003512:	b98b      	cbnz	r3, 8003538 <HAL_SPI_TransmitReceive+0xe6>
 8003514:	f8b4 3046 	ldrh.w	r3, [r4, #70]	; 0x46
 8003518:	b29b      	uxth	r3, r3
 800351a:	b96b      	cbnz	r3, 8003538 <HAL_SPI_TransmitReceive+0xe6>
 800351c:	464a      	mov	r2, r9
 800351e:	4641      	mov	r1, r8
 8003520:	4620      	mov	r0, r4
 8003522:	f7ff fe3a 	bl	800319a <SPI_EndRxTxTransaction>
 8003526:	2800      	cmp	r0, #0
 8003528:	d036      	beq.n	8003598 <HAL_SPI_TransmitReceive+0x146>
 800352a:	2320      	movs	r3, #32
 800352c:	6623      	str	r3, [r4, #96]	; 0x60
 800352e:	2001      	movs	r0, #1
 8003530:	e032      	b.n	8003598 <HAL_SPI_TransmitReceive+0x146>
 8003532:	f442 5280 	orr.w	r2, r2, #4096	; 0x1000
 8003536:	e7d3      	b.n	80034e0 <HAL_SPI_TransmitReceive+0x8e>
 8003538:	6821      	ldr	r1, [r4, #0]
 800353a:	688b      	ldr	r3, [r1, #8]
 800353c:	079a      	lsls	r2, r3, #30
 800353e:	d50d      	bpl.n	800355c <HAL_SPI_TransmitReceive+0x10a>
 8003540:	8fe3      	ldrh	r3, [r4, #62]	; 0x3e
 8003542:	b29b      	uxth	r3, r3
 8003544:	b153      	cbz	r3, 800355c <HAL_SPI_TransmitReceive+0x10a>
 8003546:	b14d      	cbz	r5, 800355c <HAL_SPI_TransmitReceive+0x10a>
 8003548:	6ba3      	ldr	r3, [r4, #56]	; 0x38
 800354a:	f833 2b02 	ldrh.w	r2, [r3], #2
 800354e:	60ca      	str	r2, [r1, #12]
 8003550:	63a3      	str	r3, [r4, #56]	; 0x38
 8003552:	8fe3      	ldrh	r3, [r4, #62]	; 0x3e
 8003554:	3b01      	subs	r3, #1
 8003556:	b29b      	uxth	r3, r3
 8003558:	87e3      	strh	r3, [r4, #62]	; 0x3e
 800355a:	2500      	movs	r5, #0
 800355c:	688a      	ldr	r2, [r1, #8]
 800355e:	f012 0201 	ands.w	r2, r2, #1
 8003562:	d00f      	beq.n	8003584 <HAL_SPI_TransmitReceive+0x132>
 8003564:	f8b4 3046 	ldrh.w	r3, [r4, #70]	; 0x46
 8003568:	b29b      	uxth	r3, r3
 800356a:	b15b      	cbz	r3, 8003584 <HAL_SPI_TransmitReceive+0x132>
 800356c:	6c23      	ldr	r3, [r4, #64]	; 0x40
 800356e:	68c9      	ldr	r1, [r1, #12]
 8003570:	f823 1b02 	strh.w	r1, [r3], #2
 8003574:	6423      	str	r3, [r4, #64]	; 0x40
 8003576:	f8b4 3046 	ldrh.w	r3, [r4, #70]	; 0x46
 800357a:	3b01      	subs	r3, #1
 800357c:	b29b      	uxth	r3, r3
 800357e:	f8a4 3046 	strh.w	r3, [r4, #70]	; 0x46
 8003582:	4615      	mov	r5, r2
 8003584:	f7fe fdca 	bl	800211c <HAL_GetTick>
 8003588:	eba0 0009 	sub.w	r0, r0, r9
 800358c:	4540      	cmp	r0, r8
 800358e:	d3be      	bcc.n	800350e <HAL_SPI_TransmitReceive+0xbc>
 8003590:	f1b8 3fff 	cmp.w	r8, #4294967295
 8003594:	d0bb      	beq.n	800350e <HAL_SPI_TransmitReceive+0xbc>
 8003596:	2003      	movs	r0, #3
 8003598:	2301      	movs	r3, #1
 800359a:	f884 305d 	strb.w	r3, [r4, #93]	; 0x5d
 800359e:	2300      	movs	r3, #0
 80035a0:	f884 305c 	strb.w	r3, [r4, #92]	; 0x5c
 80035a4:	e8bd 83f8 	ldmia.w	sp!, {r3, r4, r5, r6, r7, r8, r9, pc}
 80035a8:	b10b      	cbz	r3, 80035ae <HAL_SPI_TransmitReceive+0x15c>
 80035aa:	2f01      	cmp	r7, #1
 80035ac:	d10b      	bne.n	80035c6 <HAL_SPI_TransmitReceive+0x174>
 80035ae:	8fe3      	ldrh	r3, [r4, #62]	; 0x3e
 80035b0:	b29b      	uxth	r3, r3
 80035b2:	2b01      	cmp	r3, #1
 80035b4:	d909      	bls.n	80035ca <HAL_SPI_TransmitReceive+0x178>
 80035b6:	f835 3b02 	ldrh.w	r3, [r5], #2
 80035ba:	60f3      	str	r3, [r6, #12]
 80035bc:	8fe3      	ldrh	r3, [r4, #62]	; 0x3e
 80035be:	63a5      	str	r5, [r4, #56]	; 0x38
 80035c0:	3b02      	subs	r3, #2
 80035c2:	b29b      	uxth	r3, r3
 80035c4:	87e3      	strh	r3, [r4, #62]	; 0x3e
 80035c6:	2501      	movs	r5, #1
 80035c8:	e049      	b.n	800365e <HAL_SPI_TransmitReceive+0x20c>
 80035ca:	782b      	ldrb	r3, [r5, #0]
 80035cc:	7333      	strb	r3, [r6, #12]
 80035ce:	6ba3      	ldr	r3, [r4, #56]	; 0x38
 80035d0:	3301      	adds	r3, #1
 80035d2:	63a3      	str	r3, [r4, #56]	; 0x38
 80035d4:	8fe3      	ldrh	r3, [r4, #62]	; 0x3e
 80035d6:	3b01      	subs	r3, #1
 80035d8:	e7f3      	b.n	80035c2 <HAL_SPI_TransmitReceive+0x170>
 80035da:	6822      	ldr	r2, [r4, #0]
 80035dc:	6893      	ldr	r3, [r2, #8]
 80035de:	079b      	lsls	r3, r3, #30
 80035e0:	d511      	bpl.n	8003606 <HAL_SPI_TransmitReceive+0x1b4>
 80035e2:	8fe3      	ldrh	r3, [r4, #62]	; 0x3e
 80035e4:	b29b      	uxth	r3, r3
 80035e6:	b173      	cbz	r3, 8003606 <HAL_SPI_TransmitReceive+0x1b4>
 80035e8:	b16d      	cbz	r5, 8003606 <HAL_SPI_TransmitReceive+0x1b4>
 80035ea:	8fe1      	ldrh	r1, [r4, #62]	; 0x3e
 80035ec:	6ba3      	ldr	r3, [r4, #56]	; 0x38
 80035ee:	b289      	uxth	r1, r1
 80035f0:	2901      	cmp	r1, #1
 80035f2:	d93e      	bls.n	8003672 <HAL_SPI_TransmitReceive+0x220>
 80035f4:	f833 1b02 	ldrh.w	r1, [r3], #2
 80035f8:	60d1      	str	r1, [r2, #12]
 80035fa:	63a3      	str	r3, [r4, #56]	; 0x38
 80035fc:	8fe3      	ldrh	r3, [r4, #62]	; 0x3e
 80035fe:	3b02      	subs	r3, #2
 8003600:	b29b      	uxth	r3, r3
 8003602:	87e3      	strh	r3, [r4, #62]	; 0x3e
 8003604:	2500      	movs	r5, #0
 8003606:	6822      	ldr	r2, [r4, #0]
 8003608:	6893      	ldr	r3, [r2, #8]
 800360a:	f013 0301 	ands.w	r3, r3, #1
 800360e:	d01d      	beq.n	800364c <HAL_SPI_TransmitReceive+0x1fa>
 8003610:	f8b4 1046 	ldrh.w	r1, [r4, #70]	; 0x46
 8003614:	b289      	uxth	r1, r1
 8003616:	b1c9      	cbz	r1, 800364c <HAL_SPI_TransmitReceive+0x1fa>
 8003618:	f8b4 0046 	ldrh.w	r0, [r4, #70]	; 0x46
 800361c:	6c21      	ldr	r1, [r4, #64]	; 0x40
 800361e:	b280      	uxth	r0, r0
 8003620:	2801      	cmp	r0, #1
 8003622:	d92e      	bls.n	8003682 <HAL_SPI_TransmitReceive+0x230>
 8003624:	68d0      	ldr	r0, [r2, #12]
 8003626:	f821 0b02 	strh.w	r0, [r1], #2
 800362a:	6421      	str	r1, [r4, #64]	; 0x40
 800362c:	f8b4 1046 	ldrh.w	r1, [r4, #70]	; 0x46
 8003630:	3902      	subs	r1, #2
 8003632:	b289      	uxth	r1, r1
 8003634:	f8a4 1046 	strh.w	r1, [r4, #70]	; 0x46
 8003638:	f8b4 1046 	ldrh.w	r1, [r4, #70]	; 0x46
 800363c:	b289      	uxth	r1, r1
 800363e:	2901      	cmp	r1, #1
 8003640:	d803      	bhi.n	800364a <HAL_SPI_TransmitReceive+0x1f8>
 8003642:	6851      	ldr	r1, [r2, #4]
 8003644:	f441 5180 	orr.w	r1, r1, #4096	; 0x1000
 8003648:	6051      	str	r1, [r2, #4]
 800364a:	461d      	mov	r5, r3
 800364c:	f7fe fd66 	bl	800211c <HAL_GetTick>
 8003650:	eba0 0009 	sub.w	r0, r0, r9
 8003654:	4540      	cmp	r0, r8
 8003656:	d320      	bcc.n	800369a <HAL_SPI_TransmitReceive+0x248>
 8003658:	f1b8 3fff 	cmp.w	r8, #4294967295
 800365c:	d19b      	bne.n	8003596 <HAL_SPI_TransmitReceive+0x144>
 800365e:	8fe3      	ldrh	r3, [r4, #62]	; 0x3e
 8003660:	b29b      	uxth	r3, r3
 8003662:	2b00      	cmp	r3, #0
 8003664:	d1b9      	bne.n	80035da <HAL_SPI_TransmitReceive+0x188>
 8003666:	f8b4 3046 	ldrh.w	r3, [r4, #70]	; 0x46
 800366a:	b29b      	uxth	r3, r3
 800366c:	2b00      	cmp	r3, #0
 800366e:	d1b4      	bne.n	80035da <HAL_SPI_TransmitReceive+0x188>
 8003670:	e754      	b.n	800351c <HAL_SPI_TransmitReceive+0xca>
 8003672:	781b      	ldrb	r3, [r3, #0]
 8003674:	7313      	strb	r3, [r2, #12]
 8003676:	6ba3      	ldr	r3, [r4, #56]	; 0x38
 8003678:	3301      	adds	r3, #1
 800367a:	63a3      	str	r3, [r4, #56]	; 0x38
 800367c:	8fe3      	ldrh	r3, [r4, #62]	; 0x3e
 800367e:	3b01      	subs	r3, #1
 8003680:	e7be      	b.n	8003600 <HAL_SPI_TransmitReceive+0x1ae>
 8003682:	7b12      	ldrb	r2, [r2, #12]
 8003684:	700a      	strb	r2, [r1, #0]
 8003686:	6c22      	ldr	r2, [r4, #64]	; 0x40
 8003688:	3201      	adds	r2, #1
 800368a:	6422      	str	r2, [r4, #64]	; 0x40
 800368c:	f8b4 2046 	ldrh.w	r2, [r4, #70]	; 0x46
 8003690:	3a01      	subs	r2, #1
 8003692:	b292      	uxth	r2, r2
 8003694:	f8a4 2046 	strh.w	r2, [r4, #70]	; 0x46
 8003698:	e7d7      	b.n	800364a <HAL_SPI_TransmitReceive+0x1f8>
 800369a:	f1b8 0f00 	cmp.w	r8, #0
 800369e:	d1de      	bne.n	800365e <HAL_SPI_TransmitReceive+0x20c>
 80036a0:	e779      	b.n	8003596 <HAL_SPI_TransmitReceive+0x144>
 80036a2:	2002      	movs	r0, #2
 80036a4:	e778      	b.n	8003598 <HAL_SPI_TransmitReceive+0x146>
 80036a6:	2002      	movs	r0, #2
 80036a8:	e77c      	b.n	80035a4 <HAL_SPI_TransmitReceive+0x152>

080036aa <HAL_SPI_Receive>:
 80036aa:	e92d 43f7 	stmdb	sp!, {r0, r1, r2, r4, r5, r6, r7, r8, r9, lr}
 80036ae:	461e      	mov	r6, r3
 80036b0:	6843      	ldr	r3, [r0, #4]
 80036b2:	f5b3 7f82 	cmp.w	r3, #260	; 0x104
 80036b6:	4604      	mov	r4, r0
 80036b8:	4689      	mov	r9, r1
 80036ba:	4617      	mov	r7, r2
 80036bc:	d10c      	bne.n	80036d8 <HAL_SPI_Receive+0x2e>
 80036be:	6883      	ldr	r3, [r0, #8]
 80036c0:	b953      	cbnz	r3, 80036d8 <HAL_SPI_Receive+0x2e>
 80036c2:	2304      	movs	r3, #4
 80036c4:	f880 305d 	strb.w	r3, [r0, #93]	; 0x5d
 80036c8:	4613      	mov	r3, r2
 80036ca:	9600      	str	r6, [sp, #0]
 80036cc:	460a      	mov	r2, r1
 80036ce:	f7ff fec0 	bl	8003452 <HAL_SPI_TransmitReceive>
 80036d2:	b003      	add	sp, #12
 80036d4:	e8bd 83f0 	ldmia.w	sp!, {r4, r5, r6, r7, r8, r9, pc}
 80036d8:	f894 305c 	ldrb.w	r3, [r4, #92]	; 0x5c
 80036dc:	2b01      	cmp	r3, #1
 80036de:	f000 809a 	beq.w	8003816 <HAL_SPI_Receive+0x16c>
 80036e2:	2301      	movs	r3, #1
 80036e4:	f884 305c 	strb.w	r3, [r4, #92]	; 0x5c
 80036e8:	f7fe fd18 	bl	800211c <HAL_GetTick>
 80036ec:	f894 305d 	ldrb.w	r3, [r4, #93]	; 0x5d
 80036f0:	2b01      	cmp	r3, #1
 80036f2:	4680      	mov	r8, r0
 80036f4:	b2d8      	uxtb	r0, r3
 80036f6:	f040 808c 	bne.w	8003812 <HAL_SPI_Receive+0x168>
 80036fa:	f1b9 0f00 	cmp.w	r9, #0
 80036fe:	d06f      	beq.n	80037e0 <HAL_SPI_Receive+0x136>
 8003700:	2f00      	cmp	r7, #0
 8003702:	d06d      	beq.n	80037e0 <HAL_SPI_Receive+0x136>
 8003704:	2500      	movs	r5, #0
 8003706:	2304      	movs	r3, #4
 8003708:	f884 305d 	strb.w	r3, [r4, #93]	; 0x5d
 800370c:	e9c4 5513 	strd	r5, r5, [r4, #76]	; 0x4c
 8003710:	6625      	str	r5, [r4, #96]	; 0x60
 8003712:	63a5      	str	r5, [r4, #56]	; 0x38
 8003714:	f8a4 7046 	strh.w	r7, [r4, #70]	; 0x46
 8003718:	87a5      	strh	r5, [r4, #60]	; 0x3c
 800371a:	87e5      	strh	r5, [r4, #62]	; 0x3e
 800371c:	6825      	ldr	r5, [r4, #0]
 800371e:	68e2      	ldr	r2, [r4, #12]
 8003720:	686b      	ldr	r3, [r5, #4]
 8003722:	f8c4 9040 	str.w	r9, [r4, #64]	; 0x40
 8003726:	f5b2 6fe0 	cmp.w	r2, #1792	; 0x700
 800372a:	bf8c      	ite	hi
 800372c:	f423 5380 	bichi.w	r3, r3, #4096	; 0x1000
 8003730:	f443 5380 	orrls.w	r3, r3, #4096	; 0x1000
 8003734:	f8a4 7044 	strh.w	r7, [r4, #68]	; 0x44
 8003738:	606b      	str	r3, [r5, #4]
 800373a:	68a3      	ldr	r3, [r4, #8]
 800373c:	f5b3 4f00 	cmp.w	r3, #32768	; 0x8000
 8003740:	d107      	bne.n	8003752 <HAL_SPI_Receive+0xa8>
 8003742:	682b      	ldr	r3, [r5, #0]
 8003744:	f023 0340 	bic.w	r3, r3, #64	; 0x40
 8003748:	602b      	str	r3, [r5, #0]
 800374a:	682b      	ldr	r3, [r5, #0]
 800374c:	f423 4380 	bic.w	r3, r3, #16384	; 0x4000
 8003750:	602b      	str	r3, [r5, #0]
 8003752:	682b      	ldr	r3, [r5, #0]
 8003754:	065f      	lsls	r7, r3, #25
 8003756:	bf5e      	ittt	pl
 8003758:	682b      	ldrpl	r3, [r5, #0]
 800375a:	f043 0340 	orrpl.w	r3, r3, #64	; 0x40
 800375e:	602b      	strpl	r3, [r5, #0]
 8003760:	f5b2 6fe0 	cmp.w	r2, #1792	; 0x700
 8003764:	d923      	bls.n	80037ae <HAL_SPI_Receive+0x104>
 8003766:	f8b4 3046 	ldrh.w	r3, [r4, #70]	; 0x46
 800376a:	b29b      	uxth	r3, r3
 800376c:	b323      	cbz	r3, 80037b8 <HAL_SPI_Receive+0x10e>
 800376e:	6823      	ldr	r3, [r4, #0]
 8003770:	689a      	ldr	r2, [r3, #8]
 8003772:	07d2      	lsls	r2, r2, #31
 8003774:	d53e      	bpl.n	80037f4 <HAL_SPI_Receive+0x14a>
 8003776:	68da      	ldr	r2, [r3, #12]
 8003778:	6c23      	ldr	r3, [r4, #64]	; 0x40
 800377a:	f823 2b02 	strh.w	r2, [r3], #2
 800377e:	6423      	str	r3, [r4, #64]	; 0x40
 8003780:	f8b4 3046 	ldrh.w	r3, [r4, #70]	; 0x46
 8003784:	3b01      	subs	r3, #1
 8003786:	b29b      	uxth	r3, r3
 8003788:	f8a4 3046 	strh.w	r3, [r4, #70]	; 0x46
 800378c:	e7eb      	b.n	8003766 <HAL_SPI_Receive+0xbc>
 800378e:	6823      	ldr	r3, [r4, #0]
 8003790:	689a      	ldr	r2, [r3, #8]
 8003792:	07d0      	lsls	r0, r2, #31
 8003794:	d51b      	bpl.n	80037ce <HAL_SPI_Receive+0x124>
 8003796:	6c22      	ldr	r2, [r4, #64]	; 0x40
 8003798:	7b1b      	ldrb	r3, [r3, #12]
 800379a:	7013      	strb	r3, [r2, #0]
 800379c:	6c23      	ldr	r3, [r4, #64]	; 0x40
 800379e:	3301      	adds	r3, #1
 80037a0:	6423      	str	r3, [r4, #64]	; 0x40
 80037a2:	f8b4 3046 	ldrh.w	r3, [r4, #70]	; 0x46
 80037a6:	3b01      	subs	r3, #1
 80037a8:	b29b      	uxth	r3, r3
 80037aa:	f8a4 3046 	strh.w	r3, [r4, #70]	; 0x46
 80037ae:	f8b4 3046 	ldrh.w	r3, [r4, #70]	; 0x46
 80037b2:	b29b      	uxth	r3, r3
 80037b4:	2b00      	cmp	r3, #0
 80037b6:	d1ea      	bne.n	800378e <HAL_SPI_Receive+0xe4>
 80037b8:	4642      	mov	r2, r8
 80037ba:	4631      	mov	r1, r6
 80037bc:	4620      	mov	r0, r4
 80037be:	f7ff fcb3 	bl	8003128 <SPI_EndRxTransaction>
 80037c2:	bb18      	cbnz	r0, 800380c <HAL_SPI_Receive+0x162>
 80037c4:	6e20      	ldr	r0, [r4, #96]	; 0x60
 80037c6:	3800      	subs	r0, #0
 80037c8:	bf18      	it	ne
 80037ca:	2001      	movne	r0, #1
 80037cc:	e008      	b.n	80037e0 <HAL_SPI_Receive+0x136>
 80037ce:	f7fe fca5 	bl	800211c <HAL_GetTick>
 80037d2:	eba0 0008 	sub.w	r0, r0, r8
 80037d6:	42b0      	cmp	r0, r6
 80037d8:	d309      	bcc.n	80037ee <HAL_SPI_Receive+0x144>
 80037da:	1c71      	adds	r1, r6, #1
 80037dc:	d0e7      	beq.n	80037ae <HAL_SPI_Receive+0x104>
 80037de:	2003      	movs	r0, #3
 80037e0:	2301      	movs	r3, #1
 80037e2:	f884 305d 	strb.w	r3, [r4, #93]	; 0x5d
 80037e6:	2300      	movs	r3, #0
 80037e8:	f884 305c 	strb.w	r3, [r4, #92]	; 0x5c
 80037ec:	e771      	b.n	80036d2 <HAL_SPI_Receive+0x28>
 80037ee:	2e00      	cmp	r6, #0
 80037f0:	d1dd      	bne.n	80037ae <HAL_SPI_Receive+0x104>
 80037f2:	e7f4      	b.n	80037de <HAL_SPI_Receive+0x134>
 80037f4:	f7fe fc92 	bl	800211c <HAL_GetTick>
 80037f8:	eba0 0008 	sub.w	r0, r0, r8
 80037fc:	42b0      	cmp	r0, r6
 80037fe:	d302      	bcc.n	8003806 <HAL_SPI_Receive+0x15c>
 8003800:	1c73      	adds	r3, r6, #1
 8003802:	d0b0      	beq.n	8003766 <HAL_SPI_Receive+0xbc>
 8003804:	e7eb      	b.n	80037de <HAL_SPI_Receive+0x134>
 8003806:	2e00      	cmp	r6, #0
 8003808:	d1ad      	bne.n	8003766 <HAL_SPI_Receive+0xbc>
 800380a:	e7e8      	b.n	80037de <HAL_SPI_Receive+0x134>
 800380c:	2320      	movs	r3, #32
 800380e:	6623      	str	r3, [r4, #96]	; 0x60
 8003810:	e7d8      	b.n	80037c4 <HAL_SPI_Receive+0x11a>
 8003812:	2002      	movs	r0, #2
 8003814:	e7e4      	b.n	80037e0 <HAL_SPI_Receive+0x136>
 8003816:	2002      	movs	r0, #2
 8003818:	e75b      	b.n	80036d2 <HAL_SPI_Receive+0x28>

0800381a <HAL_TIM_Base_DeInit>:
 800381a:	2302      	movs	r3, #2
 800381c:	b510      	push	{r4, lr}
 800381e:	f880 303d 	strb.w	r3, [r0, #61]	; 0x3d
 8003822:	6803      	ldr	r3, [r0, #0]
 8003824:	6a19      	ldr	r1, [r3, #32]
 8003826:	f241 1211 	movw	r2, #4369	; 0x1111
 800382a:	4211      	tst	r1, r2
 800382c:	4604      	mov	r4, r0
 800382e:	d108      	bne.n	8003842 <HAL_TIM_Base_DeInit+0x28>
 8003830:	6a19      	ldr	r1, [r3, #32]
 8003832:	f240 4244 	movw	r2, #1092	; 0x444
 8003836:	4211      	tst	r1, r2
 8003838:	bf02      	ittt	eq
 800383a:	681a      	ldreq	r2, [r3, #0]
 800383c:	f022 0201 	biceq.w	r2, r2, #1
 8003840:	601a      	streq	r2, [r3, #0]
 8003842:	4620      	mov	r0, r4
 8003844:	f7fd ff7a 	bl	800173c <HAL_TIM_Base_MspDeInit>
 8003848:	2000      	movs	r0, #0
 800384a:	f884 0048 	strb.w	r0, [r4, #72]	; 0x48
 800384e:	f884 003c 	strb.w	r0, [r4, #60]	; 0x3c
 8003852:	f884 003e 	strb.w	r0, [r4, #62]	; 0x3e
 8003856:	f884 003f 	strb.w	r0, [r4, #63]	; 0x3f
 800385a:	f884 0040 	strb.w	r0, [r4, #64]	; 0x40
 800385e:	f884 0041 	strb.w	r0, [r4, #65]	; 0x41
 8003862:	f884 0042 	strb.w	r0, [r4, #66]	; 0x42
 8003866:	f884 0043 	strb.w	r0, [r4, #67]	; 0x43
 800386a:	f884 0044 	strb.w	r0, [r4, #68]	; 0x44
 800386e:	f884 0045 	strb.w	r0, [r4, #69]	; 0x45
 8003872:	f884 0046 	strb.w	r0, [r4, #70]	; 0x46
 8003876:	f884 0047 	strb.w	r0, [r4, #71]	; 0x47
 800387a:	f884 003d 	strb.w	r0, [r4, #61]	; 0x3d
 800387e:	bd10      	pop	{r4, pc}

08003880 <HAL_TIM_Base_Start>:
 8003880:	f890 303d 	ldrb.w	r3, [r0, #61]	; 0x3d
 8003884:	2b01      	cmp	r3, #1
 8003886:	d11b      	bne.n	80038c0 <HAL_TIM_Base_Start+0x40>
 8003888:	2302      	movs	r3, #2
 800388a:	4a0e      	ldr	r2, [pc, #56]	; (80038c4 <HAL_TIM_Base_Start+0x44>)
 800388c:	f880 303d 	strb.w	r3, [r0, #61]	; 0x3d
 8003890:	6803      	ldr	r3, [r0, #0]
 8003892:	4293      	cmp	r3, r2
 8003894:	d006      	beq.n	80038a4 <HAL_TIM_Base_Start+0x24>
 8003896:	f1b3 4f80 	cmp.w	r3, #1073741824	; 0x40000000
 800389a:	d003      	beq.n	80038a4 <HAL_TIM_Base_Start+0x24>
 800389c:	f502 52a0 	add.w	r2, r2, #5120	; 0x1400
 80038a0:	4293      	cmp	r3, r2
 80038a2:	d107      	bne.n	80038b4 <HAL_TIM_Base_Start+0x34>
 80038a4:	6899      	ldr	r1, [r3, #8]
 80038a6:	4a08      	ldr	r2, [pc, #32]	; (80038c8 <HAL_TIM_Base_Start+0x48>)
 80038a8:	400a      	ands	r2, r1
 80038aa:	2a06      	cmp	r2, #6
 80038ac:	d006      	beq.n	80038bc <HAL_TIM_Base_Start+0x3c>
 80038ae:	f5b2 3f80 	cmp.w	r2, #65536	; 0x10000
 80038b2:	d003      	beq.n	80038bc <HAL_TIM_Base_Start+0x3c>
 80038b4:	681a      	ldr	r2, [r3, #0]
 80038b6:	f042 0201 	orr.w	r2, r2, #1
 80038ba:	601a      	str	r2, [r3, #0]
 80038bc:	2000      	movs	r0, #0
 80038be:	4770      	bx	lr
 80038c0:	2001      	movs	r0, #1
 80038c2:	4770      	bx	lr
 80038c4:	40012c00 	.word	0x40012c00
 80038c8:	00010007 	.word	0x00010007

080038cc <HAL_TIM_Base_Stop>:
 80038cc:	6803      	ldr	r3, [r0, #0]
 80038ce:	6a19      	ldr	r1, [r3, #32]
 80038d0:	f241 1211 	movw	r2, #4369	; 0x1111
 80038d4:	4211      	tst	r1, r2
 80038d6:	d108      	bne.n	80038ea <HAL_TIM_Base_Stop+0x1e>
 80038d8:	6a19      	ldr	r1, [r3, #32]
 80038da:	f240 4244 	movw	r2, #1092	; 0x444
 80038de:	4211      	tst	r1, r2
 80038e0:	bf02      	ittt	eq
 80038e2:	681a      	ldreq	r2, [r3, #0]
 80038e4:	f022 0201 	biceq.w	r2, r2, #1
 80038e8:	601a      	streq	r2, [r3, #0]
 80038ea:	2301      	movs	r3, #1
 80038ec:	f880 303d 	strb.w	r3, [r0, #61]	; 0x3d
 80038f0:	2000      	movs	r0, #0
 80038f2:	4770      	bx	lr

080038f4 <HAL_TIM_Base_Start_IT>:
 80038f4:	f890 303d 	ldrb.w	r3, [r0, #61]	; 0x3d
 80038f8:	2b01      	cmp	r3, #1
 80038fa:	d11f      	bne.n	800393c <HAL_TIM_Base_Start_IT+0x48>
 80038fc:	2302      	movs	r3, #2
 80038fe:	f880 303d 	strb.w	r3, [r0, #61]	; 0x3d
 8003902:	6803      	ldr	r3, [r0, #0]
 8003904:	68da      	ldr	r2, [r3, #12]
 8003906:	f042 0201 	orr.w	r2, r2, #1
 800390a:	60da      	str	r2, [r3, #12]
 800390c:	4a0c      	ldr	r2, [pc, #48]	; (8003940 <HAL_TIM_Base_Start_IT+0x4c>)
 800390e:	4293      	cmp	r3, r2
 8003910:	d006      	beq.n	8003920 <HAL_TIM_Base_Start_IT+0x2c>
 8003912:	f1b3 4f80 	cmp.w	r3, #1073741824	; 0x40000000
 8003916:	d003      	beq.n	8003920 <HAL_TIM_Base_Start_IT+0x2c>
 8003918:	f502 52a0 	add.w	r2, r2, #5120	; 0x1400
 800391c:	4293      	cmp	r3, r2
 800391e:	d107      	bne.n	8003930 <HAL_TIM_Base_Start_IT+0x3c>
 8003920:	6899      	ldr	r1, [r3, #8]
 8003922:	4a08      	ldr	r2, [pc, #32]	; (8003944 <HAL_TIM_Base_Start_IT+0x50>)
 8003924:	400a      	ands	r2, r1
 8003926:	2a06      	cmp	r2, #6
 8003928:	d006      	beq.n	8003938 <HAL_TIM_Base_Start_IT+0x44>
 800392a:	f5b2 3f80 	cmp.w	r2, #65536	; 0x10000
 800392e:	d003      	beq.n	8003938 <HAL_TIM_Base_Start_IT+0x44>
 8003930:	681a      	ldr	r2, [r3, #0]
 8003932:	f042 0201 	orr.w	r2, r2, #1
 8003936:	601a      	str	r2, [r3, #0]
 8003938:	2000      	movs	r0, #0
 800393a:	4770      	bx	lr
 800393c:	2001      	movs	r0, #1
 800393e:	4770      	bx	lr
 8003940:	40012c00 	.word	0x40012c00
 8003944:	00010007 	.word	0x00010007

08003948 <HAL_TIM_Base_Stop_IT>:
 8003948:	6803      	ldr	r3, [r0, #0]
 800394a:	68da      	ldr	r2, [r3, #12]
 800394c:	f022 0201 	bic.w	r2, r2, #1
 8003950:	60da      	str	r2, [r3, #12]
 8003952:	6a19      	ldr	r1, [r3, #32]
 8003954:	f241 1211 	movw	r2, #4369	; 0x1111
 8003958:	4211      	tst	r1, r2
 800395a:	d108      	bne.n	800396e <HAL_TIM_Base_Stop_IT+0x26>
 800395c:	6a19      	ldr	r1, [r3, #32]
 800395e:	f240 4244 	movw	r2, #1092	; 0x444
 8003962:	4211      	tst	r1, r2
 8003964:	bf02      	ittt	eq
 8003966:	681a      	ldreq	r2, [r3, #0]
 8003968:	f022 0201 	biceq.w	r2, r2, #1
 800396c:	601a      	streq	r2, [r3, #0]
 800396e:	2301      	movs	r3, #1
 8003970:	f880 303d 	strb.w	r3, [r0, #61]	; 0x3d
 8003974:	2000      	movs	r0, #0
 8003976:	4770      	bx	lr

08003978 <HAL_TIM_PeriodElapsedCallback>:
 8003978:	4770      	bx	lr

0800397a <HAL_TIM_OC_DelayElapsedCallback>:
 800397a:	4770      	bx	lr

0800397c <HAL_TIM_IC_CaptureCallback>:
 800397c:	4770      	bx	lr

0800397e <HAL_TIM_PWM_PulseFinishedCallback>:
 800397e:	4770      	bx	lr

08003980 <HAL_TIM_TriggerCallback>:
 8003980:	4770      	bx	lr

08003982 <HAL_TIM_IRQHandler>:
 8003982:	6803      	ldr	r3, [r0, #0]
 8003984:	691a      	ldr	r2, [r3, #16]
 8003986:	0791      	lsls	r1, r2, #30
 8003988:	b510      	push	{r4, lr}
 800398a:	4604      	mov	r4, r0
 800398c:	d50f      	bpl.n	80039ae <HAL_TIM_IRQHandler+0x2c>
 800398e:	68da      	ldr	r2, [r3, #12]
 8003990:	0792      	lsls	r2, r2, #30
 8003992:	d50c      	bpl.n	80039ae <HAL_TIM_IRQHandler+0x2c>
 8003994:	f06f 0202 	mvn.w	r2, #2
 8003998:	611a      	str	r2, [r3, #16]
 800399a:	2201      	movs	r2, #1
 800399c:	7702      	strb	r2, [r0, #28]
 800399e:	699b      	ldr	r3, [r3, #24]
 80039a0:	0799      	lsls	r1, r3, #30
 80039a2:	f000 8085 	beq.w	8003ab0 <HAL_TIM_IRQHandler+0x12e>
 80039a6:	f7ff ffe9 	bl	800397c <HAL_TIM_IC_CaptureCallback>
 80039aa:	2300      	movs	r3, #0
 80039ac:	7723      	strb	r3, [r4, #28]
 80039ae:	6823      	ldr	r3, [r4, #0]
 80039b0:	691a      	ldr	r2, [r3, #16]
 80039b2:	0752      	lsls	r2, r2, #29
 80039b4:	d510      	bpl.n	80039d8 <HAL_TIM_IRQHandler+0x56>
 80039b6:	68da      	ldr	r2, [r3, #12]
 80039b8:	0750      	lsls	r0, r2, #29
 80039ba:	d50d      	bpl.n	80039d8 <HAL_TIM_IRQHandler+0x56>
 80039bc:	f06f 0204 	mvn.w	r2, #4
 80039c0:	611a      	str	r2, [r3, #16]
 80039c2:	2202      	movs	r2, #2
 80039c4:	7722      	strb	r2, [r4, #28]
 80039c6:	699b      	ldr	r3, [r3, #24]
 80039c8:	f413 7f40 	tst.w	r3, #768	; 0x300
 80039cc:	4620      	mov	r0, r4
 80039ce:	d075      	beq.n	8003abc <HAL_TIM_IRQHandler+0x13a>
 80039d0:	f7ff ffd4 	bl	800397c <HAL_TIM_IC_CaptureCallback>
 80039d4:	2300      	movs	r3, #0
 80039d6:	7723      	strb	r3, [r4, #28]
 80039d8:	6823      	ldr	r3, [r4, #0]
 80039da:	691a      	ldr	r2, [r3, #16]
 80039dc:	0711      	lsls	r1, r2, #28
 80039de:	d50f      	bpl.n	8003a00 <HAL_TIM_IRQHandler+0x7e>
 80039e0:	68da      	ldr	r2, [r3, #12]
 80039e2:	0712      	lsls	r2, r2, #28
 80039e4:	d50c      	bpl.n	8003a00 <HAL_TIM_IRQHandler+0x7e>
 80039e6:	f06f 0208 	mvn.w	r2, #8
 80039ea:	611a      	str	r2, [r3, #16]
 80039ec:	2204      	movs	r2, #4
 80039ee:	7722      	strb	r2, [r4, #28]
 80039f0:	69db      	ldr	r3, [r3, #28]
 80039f2:	079b      	lsls	r3, r3, #30
 80039f4:	4620      	mov	r0, r4
 80039f6:	d067      	beq.n	8003ac8 <HAL_TIM_IRQHandler+0x146>
 80039f8:	f7ff ffc0 	bl	800397c <HAL_TIM_IC_CaptureCallback>
 80039fc:	2300      	movs	r3, #0
 80039fe:	7723      	strb	r3, [r4, #28]
 8003a00:	6823      	ldr	r3, [r4, #0]
 8003a02:	691a      	ldr	r2, [r3, #16]
 8003a04:	06d0      	lsls	r0, r2, #27
 8003a06:	d510      	bpl.n	8003a2a <HAL_TIM_IRQHandler+0xa8>
 8003a08:	68da      	ldr	r2, [r3, #12]
 8003a0a:	06d1      	lsls	r1, r2, #27
 8003a0c:	d50d      	bpl.n	8003a2a <HAL_TIM_IRQHandler+0xa8>
 8003a0e:	f06f 0210 	mvn.w	r2, #16
 8003a12:	611a      	str	r2, [r3, #16]
 8003a14:	2208      	movs	r2, #8
 8003a16:	7722      	strb	r2, [r4, #28]
 8003a18:	69db      	ldr	r3, [r3, #28]
 8003a1a:	f413 7f40 	tst.w	r3, #768	; 0x300
 8003a1e:	4620      	mov	r0, r4
 8003a20:	d058      	beq.n	8003ad4 <HAL_TIM_IRQHandler+0x152>
 8003a22:	f7ff ffab 	bl	800397c <HAL_TIM_IC_CaptureCallback>
 8003a26:	2300      	movs	r3, #0
 8003a28:	7723      	strb	r3, [r4, #28]
 8003a2a:	6823      	ldr	r3, [r4, #0]
 8003a2c:	691a      	ldr	r2, [r3, #16]
 8003a2e:	07d2      	lsls	r2, r2, #31
 8003a30:	d508      	bpl.n	8003a44 <HAL_TIM_IRQHandler+0xc2>
 8003a32:	68da      	ldr	r2, [r3, #12]
 8003a34:	07d0      	lsls	r0, r2, #31
 8003a36:	d505      	bpl.n	8003a44 <HAL_TIM_IRQHandler+0xc2>
 8003a38:	f06f 0201 	mvn.w	r2, #1
 8003a3c:	611a      	str	r2, [r3, #16]
 8003a3e:	4620      	mov	r0, r4
 8003a40:	f7ff ff9a 	bl	8003978 <HAL_TIM_PeriodElapsedCallback>
 8003a44:	6823      	ldr	r3, [r4, #0]
 8003a46:	691a      	ldr	r2, [r3, #16]
 8003a48:	0611      	lsls	r1, r2, #24
 8003a4a:	d508      	bpl.n	8003a5e <HAL_TIM_IRQHandler+0xdc>
 8003a4c:	68da      	ldr	r2, [r3, #12]
 8003a4e:	0612      	lsls	r2, r2, #24
 8003a50:	d505      	bpl.n	8003a5e <HAL_TIM_IRQHandler+0xdc>
 8003a52:	f06f 0280 	mvn.w	r2, #128	; 0x80
 8003a56:	611a      	str	r2, [r3, #16]
 8003a58:	4620      	mov	r0, r4
 8003a5a:	f000 f98e 	bl	8003d7a <HAL_TIMEx_BreakCallback>
 8003a5e:	6823      	ldr	r3, [r4, #0]
 8003a60:	691a      	ldr	r2, [r3, #16]
 8003a62:	05d0      	lsls	r0, r2, #23
 8003a64:	d508      	bpl.n	8003a78 <HAL_TIM_IRQHandler+0xf6>
 8003a66:	68da      	ldr	r2, [r3, #12]
 8003a68:	0611      	lsls	r1, r2, #24
 8003a6a:	d505      	bpl.n	8003a78 <HAL_TIM_IRQHandler+0xf6>
 8003a6c:	f46f 7280 	mvn.w	r2, #256	; 0x100
 8003a70:	611a      	str	r2, [r3, #16]
 8003a72:	4620      	mov	r0, r4
 8003a74:	f000 f982 	bl	8003d7c <HAL_TIMEx_Break2Callback>
 8003a78:	6823      	ldr	r3, [r4, #0]
 8003a7a:	691a      	ldr	r2, [r3, #16]
 8003a7c:	0652      	lsls	r2, r2, #25
 8003a7e:	d508      	bpl.n	8003a92 <HAL_TIM_IRQHandler+0x110>
 8003a80:	68da      	ldr	r2, [r3, #12]
 8003a82:	0650      	lsls	r0, r2, #25
 8003a84:	d505      	bpl.n	8003a92 <HAL_TIM_IRQHandler+0x110>
 8003a86:	f06f 0240 	mvn.w	r2, #64	; 0x40
 8003a8a:	611a      	str	r2, [r3, #16]
 8003a8c:	4620      	mov	r0, r4
 8003a8e:	f7ff ff77 	bl	8003980 <HAL_TIM_TriggerCallback>
 8003a92:	6823      	ldr	r3, [r4, #0]
 8003a94:	691a      	ldr	r2, [r3, #16]
 8003a96:	0691      	lsls	r1, r2, #26
 8003a98:	d522      	bpl.n	8003ae0 <HAL_TIM_IRQHandler+0x15e>
 8003a9a:	68da      	ldr	r2, [r3, #12]
 8003a9c:	0692      	lsls	r2, r2, #26
 8003a9e:	d51f      	bpl.n	8003ae0 <HAL_TIM_IRQHandler+0x15e>
 8003aa0:	f06f 0220 	mvn.w	r2, #32
 8003aa4:	4620      	mov	r0, r4
 8003aa6:	611a      	str	r2, [r3, #16]
 8003aa8:	e8bd 4010 	ldmia.w	sp!, {r4, lr}
 8003aac:	f000 b964 	b.w	8003d78 <HAL_TIMEx_CommutCallback>
 8003ab0:	f7ff ff63 	bl	800397a <HAL_TIM_OC_DelayElapsedCallback>
 8003ab4:	4620      	mov	r0, r4
 8003ab6:	f7ff ff62 	bl	800397e <HAL_TIM_PWM_PulseFinishedCallback>
 8003aba:	e776      	b.n	80039aa <HAL_TIM_IRQHandler+0x28>
 8003abc:	f7ff ff5d 	bl	800397a <HAL_TIM_OC_DelayElapsedCallback>
 8003ac0:	4620      	mov	r0, r4
 8003ac2:	f7ff ff5c 	bl	800397e <HAL_TIM_PWM_PulseFinishedCallback>
 8003ac6:	e785      	b.n	80039d4 <HAL_TIM_IRQHandler+0x52>
 8003ac8:	f7ff ff57 	bl	800397a <HAL_TIM_OC_DelayElapsedCallback>
 8003acc:	4620      	mov	r0, r4
 8003ace:	f7ff ff56 	bl	800397e <HAL_TIM_PWM_PulseFinishedCallback>
 8003ad2:	e793      	b.n	80039fc <HAL_TIM_IRQHandler+0x7a>
 8003ad4:	f7ff ff51 	bl	800397a <HAL_TIM_OC_DelayElapsedCallback>
 8003ad8:	4620      	mov	r0, r4
 8003ada:	f7ff ff50 	bl	800397e <HAL_TIM_PWM_PulseFinishedCallback>
 8003ade:	e7a2      	b.n	8003a26 <HAL_TIM_IRQHandler+0xa4>
 8003ae0:	bd10      	pop	{r4, pc}
	...

08003ae4 <TIM_Base_SetConfig>:
 8003ae4:	4a1e      	ldr	r2, [pc, #120]	; (8003b60 <TIM_Base_SetConfig+0x7c>)
 8003ae6:	6803      	ldr	r3, [r0, #0]
 8003ae8:	4290      	cmp	r0, r2
 8003aea:	b510      	push	{r4, lr}
 8003aec:	d002      	beq.n	8003af4 <TIM_Base_SetConfig+0x10>
 8003aee:	f1b0 4f80 	cmp.w	r0, #1073741824	; 0x40000000
 8003af2:	d109      	bne.n	8003b08 <TIM_Base_SetConfig+0x24>
 8003af4:	684c      	ldr	r4, [r1, #4]
 8003af6:	f023 0370 	bic.w	r3, r3, #112	; 0x70
 8003afa:	4290      	cmp	r0, r2
 8003afc:	ea43 0304 	orr.w	r3, r3, r4
 8003b00:	d00d      	beq.n	8003b1e <TIM_Base_SetConfig+0x3a>
 8003b02:	f1b0 4f80 	cmp.w	r0, #1073741824	; 0x40000000
 8003b06:	d00a      	beq.n	8003b1e <TIM_Base_SetConfig+0x3a>
 8003b08:	4a16      	ldr	r2, [pc, #88]	; (8003b64 <TIM_Base_SetConfig+0x80>)
 8003b0a:	4290      	cmp	r0, r2
 8003b0c:	d007      	beq.n	8003b1e <TIM_Base_SetConfig+0x3a>
 8003b0e:	f502 6280 	add.w	r2, r2, #1024	; 0x400
 8003b12:	4290      	cmp	r0, r2
 8003b14:	d003      	beq.n	8003b1e <TIM_Base_SetConfig+0x3a>
 8003b16:	f502 6280 	add.w	r2, r2, #1024	; 0x400
 8003b1a:	4290      	cmp	r0, r2
 8003b1c:	d103      	bne.n	8003b26 <TIM_Base_SetConfig+0x42>
 8003b1e:	68ca      	ldr	r2, [r1, #12]
 8003b20:	f423 7340 	bic.w	r3, r3, #768	; 0x300
 8003b24:	4313      	orrs	r3, r2
 8003b26:	694a      	ldr	r2, [r1, #20]
 8003b28:	f023 0380 	bic.w	r3, r3, #128	; 0x80
 8003b2c:	4313      	orrs	r3, r2
 8003b2e:	6003      	str	r3, [r0, #0]
 8003b30:	688b      	ldr	r3, [r1, #8]
 8003b32:	62c3      	str	r3, [r0, #44]	; 0x2c
 8003b34:	680b      	ldr	r3, [r1, #0]
 8003b36:	6283      	str	r3, [r0, #40]	; 0x28
 8003b38:	4b09      	ldr	r3, [pc, #36]	; (8003b60 <TIM_Base_SetConfig+0x7c>)
 8003b3a:	4298      	cmp	r0, r3
 8003b3c:	d00b      	beq.n	8003b56 <TIM_Base_SetConfig+0x72>
 8003b3e:	f503 53a0 	add.w	r3, r3, #5120	; 0x1400
 8003b42:	4298      	cmp	r0, r3
 8003b44:	d007      	beq.n	8003b56 <TIM_Base_SetConfig+0x72>
 8003b46:	f503 6380 	add.w	r3, r3, #1024	; 0x400
 8003b4a:	4298      	cmp	r0, r3
 8003b4c:	d003      	beq.n	8003b56 <TIM_Base_SetConfig+0x72>
 8003b4e:	f503 6380 	add.w	r3, r3, #1024	; 0x400
 8003b52:	4298      	cmp	r0, r3
 8003b54:	d101      	bne.n	8003b5a <TIM_Base_SetConfig+0x76>
 8003b56:	690b      	ldr	r3, [r1, #16]
 8003b58:	6303      	str	r3, [r0, #48]	; 0x30
 8003b5a:	2301      	movs	r3, #1
 8003b5c:	6143      	str	r3, [r0, #20]
 8003b5e:	bd10      	pop	{r4, pc}
 8003b60:	40012c00 	.word	0x40012c00
 8003b64:	40014000 	.word	0x40014000

08003b68 <HAL_TIM_Base_Init>:
 8003b68:	b510      	push	{r4, lr}
 8003b6a:	4604      	mov	r4, r0
 8003b6c:	b350      	cbz	r0, 8003bc4 <HAL_TIM_Base_Init+0x5c>
 8003b6e:	f890 303d 	ldrb.w	r3, [r0, #61]	; 0x3d
 8003b72:	f003 02ff 	and.w	r2, r3, #255	; 0xff
 8003b76:	b91b      	cbnz	r3, 8003b80 <HAL_TIM_Base_Init+0x18>
 8003b78:	f880 203c 	strb.w	r2, [r0, #60]	; 0x3c
 8003b7c:	f7fd fdae 	bl	80016dc <HAL_TIM_Base_MspInit>
 8003b80:	2302      	movs	r3, #2
 8003b82:	6820      	ldr	r0, [r4, #0]
 8003b84:	f884 303d 	strb.w	r3, [r4, #61]	; 0x3d
 8003b88:	1d21      	adds	r1, r4, #4
 8003b8a:	f7ff ffab 	bl	8003ae4 <TIM_Base_SetConfig>
 8003b8e:	2301      	movs	r3, #1
 8003b90:	f884 3048 	strb.w	r3, [r4, #72]	; 0x48
 8003b94:	2000      	movs	r0, #0
 8003b96:	f884 303e 	strb.w	r3, [r4, #62]	; 0x3e
 8003b9a:	f884 303f 	strb.w	r3, [r4, #63]	; 0x3f
 8003b9e:	f884 3040 	strb.w	r3, [r4, #64]	; 0x40
 8003ba2:	f884 3041 	strb.w	r3, [r4, #65]	; 0x41
 8003ba6:	f884 3042 	strb.w	r3, [r4, #66]	; 0x42
 8003baa:	f884 3043 	strb.w	r3, [r4, #67]	; 0x43
 8003bae:	f884 3044 	strb.w	r3, [r4, #68]	; 0x44
 8003bb2:	f884 3045 	strb.w	r3, [r4, #69]	; 0x45
 8003bb6:	f884 3046 	strb.w	r3, [r4, #70]	; 0x46
 8003bba:	f884 3047 	strb.w	r3, [r4, #71]	; 0x47
 8003bbe:	f884 303d 	strb.w	r3, [r4, #61]	; 0x3d
 8003bc2:	bd10      	pop	{r4, pc}
 8003bc4:	2001      	movs	r0, #1
 8003bc6:	e7fc      	b.n	8003bc2 <HAL_TIM_Base_Init+0x5a>

08003bc8 <TIM_ETR_SetConfig>:
 8003bc8:	b510      	push	{r4, lr}
 8003bca:	6884      	ldr	r4, [r0, #8]
 8003bcc:	4311      	orrs	r1, r2
 8003bce:	f424 447f 	bic.w	r4, r4, #65280	; 0xff00
 8003bd2:	ea41 2303 	orr.w	r3, r1, r3, lsl #8
 8003bd6:	4323      	orrs	r3, r4
 8003bd8:	6083      	str	r3, [r0, #8]
 8003bda:	bd10      	pop	{r4, pc}

08003bdc <HAL_TIM_ConfigClockSource>:
 8003bdc:	b570      	push	{r4, r5, r6, lr}
 8003bde:	f890 303c 	ldrb.w	r3, [r0, #60]	; 0x3c
 8003be2:	2b01      	cmp	r3, #1
 8003be4:	4604      	mov	r4, r0
 8003be6:	f04f 0302 	mov.w	r3, #2
 8003bea:	f000 808f 	beq.w	8003d0c <HAL_TIM_ConfigClockSource+0x130>
 8003bee:	2201      	movs	r2, #1
 8003bf0:	f880 303d 	strb.w	r3, [r0, #61]	; 0x3d
 8003bf4:	f880 203c 	strb.w	r2, [r0, #60]	; 0x3c
 8003bf8:	6800      	ldr	r0, [r0, #0]
 8003bfa:	4b45      	ldr	r3, [pc, #276]	; (8003d10 <HAL_TIM_ConfigClockSource+0x134>)
 8003bfc:	6885      	ldr	r5, [r0, #8]
 8003bfe:	402b      	ands	r3, r5
 8003c00:	6083      	str	r3, [r0, #8]
 8003c02:	680b      	ldr	r3, [r1, #0]
 8003c04:	2b60      	cmp	r3, #96	; 0x60
 8003c06:	d052      	beq.n	8003cae <HAL_TIM_ConfigClockSource+0xd2>
 8003c08:	d833      	bhi.n	8003c72 <HAL_TIM_ConfigClockSource+0x96>
 8003c0a:	2b40      	cmp	r3, #64	; 0x40
 8003c0c:	d067      	beq.n	8003cde <HAL_TIM_ConfigClockSource+0x102>
 8003c0e:	d816      	bhi.n	8003c3e <HAL_TIM_ConfigClockSource+0x62>
 8003c10:	2b20      	cmp	r3, #32
 8003c12:	d00d      	beq.n	8003c30 <HAL_TIM_ConfigClockSource+0x54>
 8003c14:	d80a      	bhi.n	8003c2c <HAL_TIM_ConfigClockSource+0x50>
 8003c16:	f033 0110 	bics.w	r1, r3, #16
 8003c1a:	d009      	beq.n	8003c30 <HAL_TIM_ConfigClockSource+0x54>
 8003c1c:	2301      	movs	r3, #1
 8003c1e:	f884 303d 	strb.w	r3, [r4, #61]	; 0x3d
 8003c22:	2300      	movs	r3, #0
 8003c24:	f884 303c 	strb.w	r3, [r4, #60]	; 0x3c
 8003c28:	4610      	mov	r0, r2
 8003c2a:	bd70      	pop	{r4, r5, r6, pc}
 8003c2c:	2b30      	cmp	r3, #48	; 0x30
 8003c2e:	d1f5      	bne.n	8003c1c <HAL_TIM_ConfigClockSource+0x40>
 8003c30:	6882      	ldr	r2, [r0, #8]
 8003c32:	f022 0270 	bic.w	r2, r2, #112	; 0x70
 8003c36:	4313      	orrs	r3, r2
 8003c38:	f043 0307 	orr.w	r3, r3, #7
 8003c3c:	e017      	b.n	8003c6e <HAL_TIM_ConfigClockSource+0x92>
 8003c3e:	2b50      	cmp	r3, #80	; 0x50
 8003c40:	d1ec      	bne.n	8003c1c <HAL_TIM_ConfigClockSource+0x40>
 8003c42:	684a      	ldr	r2, [r1, #4]
 8003c44:	68ce      	ldr	r6, [r1, #12]
 8003c46:	6a01      	ldr	r1, [r0, #32]
 8003c48:	6a05      	ldr	r5, [r0, #32]
 8003c4a:	f025 0501 	bic.w	r5, r5, #1
 8003c4e:	6205      	str	r5, [r0, #32]
 8003c50:	6983      	ldr	r3, [r0, #24]
 8003c52:	f021 010a 	bic.w	r1, r1, #10
 8003c56:	f023 03f0 	bic.w	r3, r3, #240	; 0xf0
 8003c5a:	ea43 1306 	orr.w	r3, r3, r6, lsl #4
 8003c5e:	430a      	orrs	r2, r1
 8003c60:	6183      	str	r3, [r0, #24]
 8003c62:	6202      	str	r2, [r0, #32]
 8003c64:	6883      	ldr	r3, [r0, #8]
 8003c66:	f023 0370 	bic.w	r3, r3, #112	; 0x70
 8003c6a:	f043 0357 	orr.w	r3, r3, #87	; 0x57
 8003c6e:	6083      	str	r3, [r0, #8]
 8003c70:	e011      	b.n	8003c96 <HAL_TIM_ConfigClockSource+0xba>
 8003c72:	f5b3 5f80 	cmp.w	r3, #4096	; 0x1000
 8003c76:	d00e      	beq.n	8003c96 <HAL_TIM_ConfigClockSource+0xba>
 8003c78:	f5b3 5f00 	cmp.w	r3, #8192	; 0x2000
 8003c7c:	d00d      	beq.n	8003c9a <HAL_TIM_ConfigClockSource+0xbe>
 8003c7e:	2b70      	cmp	r3, #112	; 0x70
 8003c80:	d1cc      	bne.n	8003c1c <HAL_TIM_ConfigClockSource+0x40>
 8003c82:	68cb      	ldr	r3, [r1, #12]
 8003c84:	e9d1 2101 	ldrd	r2, r1, [r1, #4]
 8003c88:	f7ff ff9e 	bl	8003bc8 <TIM_ETR_SetConfig>
 8003c8c:	6822      	ldr	r2, [r4, #0]
 8003c8e:	6893      	ldr	r3, [r2, #8]
 8003c90:	f043 0377 	orr.w	r3, r3, #119	; 0x77
 8003c94:	6093      	str	r3, [r2, #8]
 8003c96:	2200      	movs	r2, #0
 8003c98:	e7c0      	b.n	8003c1c <HAL_TIM_ConfigClockSource+0x40>
 8003c9a:	68cb      	ldr	r3, [r1, #12]
 8003c9c:	e9d1 2101 	ldrd	r2, r1, [r1, #4]
 8003ca0:	f7ff ff92 	bl	8003bc8 <TIM_ETR_SetConfig>
 8003ca4:	6822      	ldr	r2, [r4, #0]
 8003ca6:	6893      	ldr	r3, [r2, #8]
 8003ca8:	f443 4380 	orr.w	r3, r3, #16384	; 0x4000
 8003cac:	e7f2      	b.n	8003c94 <HAL_TIM_ConfigClockSource+0xb8>
 8003cae:	684d      	ldr	r5, [r1, #4]
 8003cb0:	68ce      	ldr	r6, [r1, #12]
 8003cb2:	6a01      	ldr	r1, [r0, #32]
 8003cb4:	f021 0110 	bic.w	r1, r1, #16
 8003cb8:	6201      	str	r1, [r0, #32]
 8003cba:	6982      	ldr	r2, [r0, #24]
 8003cbc:	6a03      	ldr	r3, [r0, #32]
 8003cbe:	f422 4270 	bic.w	r2, r2, #61440	; 0xf000
 8003cc2:	f023 03a0 	bic.w	r3, r3, #160	; 0xa0
 8003cc6:	ea43 1305 	orr.w	r3, r3, r5, lsl #4
 8003cca:	ea42 3206 	orr.w	r2, r2, r6, lsl #12
 8003cce:	6182      	str	r2, [r0, #24]
 8003cd0:	6203      	str	r3, [r0, #32]
 8003cd2:	6883      	ldr	r3, [r0, #8]
 8003cd4:	f023 0370 	bic.w	r3, r3, #112	; 0x70
 8003cd8:	f043 0367 	orr.w	r3, r3, #103	; 0x67
 8003cdc:	e7c7      	b.n	8003c6e <HAL_TIM_ConfigClockSource+0x92>
 8003cde:	684a      	ldr	r2, [r1, #4]
 8003ce0:	68ce      	ldr	r6, [r1, #12]
 8003ce2:	6a01      	ldr	r1, [r0, #32]
 8003ce4:	6a05      	ldr	r5, [r0, #32]
 8003ce6:	f025 0501 	bic.w	r5, r5, #1
 8003cea:	6205      	str	r5, [r0, #32]
 8003cec:	6983      	ldr	r3, [r0, #24]
 8003cee:	f021 010a 	bic.w	r1, r1, #10
 8003cf2:	f023 03f0 	bic.w	r3, r3, #240	; 0xf0
 8003cf6:	ea43 1306 	orr.w	r3, r3, r6, lsl #4
 8003cfa:	430a      	orrs	r2, r1
 8003cfc:	6183      	str	r3, [r0, #24]
 8003cfe:	6202      	str	r2, [r0, #32]
 8003d00:	6883      	ldr	r3, [r0, #8]
 8003d02:	f023 0370 	bic.w	r3, r3, #112	; 0x70
 8003d06:	f043 0347 	orr.w	r3, r3, #71	; 0x47
 8003d0a:	e7b0      	b.n	8003c6e <HAL_TIM_ConfigClockSource+0x92>
 8003d0c:	461a      	mov	r2, r3
 8003d0e:	e78b      	b.n	8003c28 <HAL_TIM_ConfigClockSource+0x4c>
 8003d10:	fffe0088 	.word	0xfffe0088

08003d14 <HAL_TIMEx_MasterConfigSynchronization>:
 8003d14:	b570      	push	{r4, r5, r6, lr}
 8003d16:	f890 303c 	ldrb.w	r3, [r0, #60]	; 0x3c
 8003d1a:	2b01      	cmp	r3, #1
 8003d1c:	f04f 0302 	mov.w	r3, #2
 8003d20:	d023      	beq.n	8003d6a <HAL_TIMEx_MasterConfigSynchronization+0x56>
 8003d22:	6802      	ldr	r2, [r0, #0]
 8003d24:	4d12      	ldr	r5, [pc, #72]	; (8003d70 <HAL_TIMEx_MasterConfigSynchronization+0x5c>)
 8003d26:	f880 303d 	strb.w	r3, [r0, #61]	; 0x3d
 8003d2a:	6853      	ldr	r3, [r2, #4]
 8003d2c:	6894      	ldr	r4, [r2, #8]
 8003d2e:	42aa      	cmp	r2, r5
 8003d30:	bf02      	ittt	eq
 8003d32:	684e      	ldreq	r6, [r1, #4]
 8003d34:	f423 0370 	biceq.w	r3, r3, #15728640	; 0xf00000
 8003d38:	4333      	orreq	r3, r6
 8003d3a:	680e      	ldr	r6, [r1, #0]
 8003d3c:	f023 0370 	bic.w	r3, r3, #112	; 0x70
 8003d40:	4333      	orrs	r3, r6
 8003d42:	42aa      	cmp	r2, r5
 8003d44:	6053      	str	r3, [r2, #4]
 8003d46:	d005      	beq.n	8003d54 <HAL_TIMEx_MasterConfigSynchronization+0x40>
 8003d48:	f1b2 4f80 	cmp.w	r2, #1073741824	; 0x40000000
 8003d4c:	d002      	beq.n	8003d54 <HAL_TIMEx_MasterConfigSynchronization+0x40>
 8003d4e:	4b09      	ldr	r3, [pc, #36]	; (8003d74 <HAL_TIMEx_MasterConfigSynchronization+0x60>)
 8003d50:	429a      	cmp	r2, r3
 8003d52:	d104      	bne.n	8003d5e <HAL_TIMEx_MasterConfigSynchronization+0x4a>
 8003d54:	6889      	ldr	r1, [r1, #8]
 8003d56:	f024 0380 	bic.w	r3, r4, #128	; 0x80
 8003d5a:	430b      	orrs	r3, r1
 8003d5c:	6093      	str	r3, [r2, #8]
 8003d5e:	2301      	movs	r3, #1
 8003d60:	f880 303d 	strb.w	r3, [r0, #61]	; 0x3d
 8003d64:	2300      	movs	r3, #0
 8003d66:	f880 303c 	strb.w	r3, [r0, #60]	; 0x3c
 8003d6a:	4618      	mov	r0, r3
 8003d6c:	bd70      	pop	{r4, r5, r6, pc}
 8003d6e:	bf00      	nop
 8003d70:	40012c00 	.word	0x40012c00
 8003d74:	40014000 	.word	0x40014000

08003d78 <HAL_TIMEx_CommutCallback>:
 8003d78:	4770      	bx	lr

08003d7a <HAL_TIMEx_BreakCallback>:
 8003d7a:	4770      	bx	lr

08003d7c <HAL_TIMEx_Break2Callback>:
 8003d7c:	4770      	bx	lr
	...

08003d80 <UART_SetConfig>:
 8003d80:	b538      	push	{r3, r4, r5, lr}
 8003d82:	4604      	mov	r4, r0
 8003d84:	69c0      	ldr	r0, [r0, #28]
 8003d86:	6921      	ldr	r1, [r4, #16]
 8003d88:	68a2      	ldr	r2, [r4, #8]
 8003d8a:	6823      	ldr	r3, [r4, #0]
 8003d8c:	430a      	orrs	r2, r1
 8003d8e:	6961      	ldr	r1, [r4, #20]
 8003d90:	681d      	ldr	r5, [r3, #0]
 8003d92:	430a      	orrs	r2, r1
 8003d94:	4941      	ldr	r1, [pc, #260]	; (8003e9c <UART_SetConfig+0x11c>)
 8003d96:	4302      	orrs	r2, r0
 8003d98:	4029      	ands	r1, r5
 8003d9a:	430a      	orrs	r2, r1
 8003d9c:	601a      	str	r2, [r3, #0]
 8003d9e:	685a      	ldr	r2, [r3, #4]
 8003da0:	68e1      	ldr	r1, [r4, #12]
 8003da2:	6a25      	ldr	r5, [r4, #32]
 8003da4:	f422 5240 	bic.w	r2, r2, #12288	; 0x3000
 8003da8:	430a      	orrs	r2, r1
 8003daa:	605a      	str	r2, [r3, #4]
 8003dac:	6899      	ldr	r1, [r3, #8]
 8003dae:	69a2      	ldr	r2, [r4, #24]
 8003db0:	f421 6130 	bic.w	r1, r1, #2816	; 0xb00
 8003db4:	432a      	orrs	r2, r5
 8003db6:	430a      	orrs	r2, r1
 8003db8:	609a      	str	r2, [r3, #8]
 8003dba:	4a39      	ldr	r2, [pc, #228]	; (8003ea0 <UART_SetConfig+0x120>)
 8003dbc:	4293      	cmp	r3, r2
 8003dbe:	d114      	bne.n	8003dea <UART_SetConfig+0x6a>
 8003dc0:	4b38      	ldr	r3, [pc, #224]	; (8003ea4 <UART_SetConfig+0x124>)
 8003dc2:	6b1b      	ldr	r3, [r3, #48]	; 0x30
 8003dc4:	f003 0303 	and.w	r3, r3, #3
 8003dc8:	3b01      	subs	r3, #1
 8003dca:	2b02      	cmp	r3, #2
 8003dcc:	d814      	bhi.n	8003df8 <UART_SetConfig+0x78>
 8003dce:	4a36      	ldr	r2, [pc, #216]	; (8003ea8 <UART_SetConfig+0x128>)
 8003dd0:	f5b0 4f00 	cmp.w	r0, #32768	; 0x8000
 8003dd4:	5cd3      	ldrb	r3, [r2, r3]
 8003dd6:	d137      	bne.n	8003e48 <UART_SetConfig+0xc8>
 8003dd8:	2b08      	cmp	r3, #8
 8003dda:	d85c      	bhi.n	8003e96 <UART_SetConfig+0x116>
 8003ddc:	e8df f003 	tbb	[pc, r3]
 8003de0:	5b1d170f 	.word	0x5b1d170f
 8003de4:	5b5b5b1a 	.word	0x5b5b5b1a
 8003de8:	1e          	.byte	0x1e
 8003de9:	00          	.byte	0x00
 8003dea:	4a30      	ldr	r2, [pc, #192]	; (8003eac <UART_SetConfig+0x12c>)
 8003dec:	4293      	cmp	r3, r2
 8003dee:	d003      	beq.n	8003df8 <UART_SetConfig+0x78>
 8003df0:	f502 6280 	add.w	r2, r2, #1024	; 0x400
 8003df4:	4293      	cmp	r3, r2
 8003df6:	d14e      	bne.n	8003e96 <UART_SetConfig+0x116>
 8003df8:	f5b0 4f00 	cmp.w	r0, #32768	; 0x8000
 8003dfc:	d13e      	bne.n	8003e7c <UART_SetConfig+0xfc>
 8003dfe:	f7fe fe67 	bl	8002ad0 <HAL_RCC_GetPCLK1Freq>
 8003e02:	b958      	cbnz	r0, 8003e1c <UART_SetConfig+0x9c>
 8003e04:	2000      	movs	r0, #0
 8003e06:	2300      	movs	r3, #0
 8003e08:	e9c4 3319 	strd	r3, r3, [r4, #100]	; 0x64
 8003e0c:	bd38      	pop	{r3, r4, r5, pc}
 8003e0e:	f7fe fe77 	bl	8002b00 <HAL_RCC_GetPCLK2Freq>
 8003e12:	e7f6      	b.n	8003e02 <UART_SetConfig+0x82>
 8003e14:	f7fe fd78 	bl	8002908 <HAL_RCC_GetSysClockFreq>
 8003e18:	e7f3      	b.n	8003e02 <UART_SetConfig+0x82>
 8003e1a:	4825      	ldr	r0, [pc, #148]	; (8003eb0 <UART_SetConfig+0x130>)
 8003e1c:	6862      	ldr	r2, [r4, #4]
 8003e1e:	0853      	lsrs	r3, r2, #1
 8003e20:	eb03 0040 	add.w	r0, r3, r0, lsl #1
 8003e24:	fbb0 f0f2 	udiv	r0, r0, r2
 8003e28:	b283      	uxth	r3, r0
 8003e2a:	f1a3 0110 	sub.w	r1, r3, #16
 8003e2e:	f64f 72ef 	movw	r2, #65519	; 0xffef
 8003e32:	4291      	cmp	r1, r2
 8003e34:	d82f      	bhi.n	8003e96 <UART_SetConfig+0x116>
 8003e36:	f020 000f 	bic.w	r0, r0, #15
 8003e3a:	6822      	ldr	r2, [r4, #0]
 8003e3c:	b280      	uxth	r0, r0
 8003e3e:	f3c3 0342 	ubfx	r3, r3, #1, #3
 8003e42:	4318      	orrs	r0, r3
 8003e44:	60d0      	str	r0, [r2, #12]
 8003e46:	e7dd      	b.n	8003e04 <UART_SetConfig+0x84>
 8003e48:	2b08      	cmp	r3, #8
 8003e4a:	d824      	bhi.n	8003e96 <UART_SetConfig+0x116>
 8003e4c:	e8df f003 	tbb	[pc, r3]
 8003e50:	23211b16 	.word	0x23211b16
 8003e54:	2323231e 	.word	0x2323231e
 8003e58:	05          	.byte	0x05
 8003e59:	00          	.byte	0x00
 8003e5a:	f44f 4000 	mov.w	r0, #32768	; 0x8000
 8003e5e:	6862      	ldr	r2, [r4, #4]
 8003e60:	eb00 0352 	add.w	r3, r0, r2, lsr #1
 8003e64:	fbb3 f3f2 	udiv	r3, r3, r2
 8003e68:	b29b      	uxth	r3, r3
 8003e6a:	f1a3 0110 	sub.w	r1, r3, #16
 8003e6e:	f64f 72ef 	movw	r2, #65519	; 0xffef
 8003e72:	4291      	cmp	r1, r2
 8003e74:	d80f      	bhi.n	8003e96 <UART_SetConfig+0x116>
 8003e76:	6822      	ldr	r2, [r4, #0]
 8003e78:	60d3      	str	r3, [r2, #12]
 8003e7a:	e7c3      	b.n	8003e04 <UART_SetConfig+0x84>
 8003e7c:	f7fe fe28 	bl	8002ad0 <HAL_RCC_GetPCLK1Freq>
 8003e80:	2800      	cmp	r0, #0
 8003e82:	d0bf      	beq.n	8003e04 <UART_SetConfig+0x84>
 8003e84:	e7eb      	b.n	8003e5e <UART_SetConfig+0xde>
 8003e86:	f7fe fe3b 	bl	8002b00 <HAL_RCC_GetPCLK2Freq>
 8003e8a:	e7f9      	b.n	8003e80 <UART_SetConfig+0x100>
 8003e8c:	f7fe fd3c 	bl	8002908 <HAL_RCC_GetSysClockFreq>
 8003e90:	e7f6      	b.n	8003e80 <UART_SetConfig+0x100>
 8003e92:	4807      	ldr	r0, [pc, #28]	; (8003eb0 <UART_SetConfig+0x130>)
 8003e94:	e7e3      	b.n	8003e5e <UART_SetConfig+0xde>
 8003e96:	2001      	movs	r0, #1
 8003e98:	e7b5      	b.n	8003e06 <UART_SetConfig+0x86>
 8003e9a:	bf00      	nop
 8003e9c:	efff69f3 	.word	0xefff69f3
 8003ea0:	40013800 	.word	0x40013800
 8003ea4:	40021000 	.word	0x40021000
 8003ea8:	0800453e 	.word	0x0800453e
 8003eac:	40004400 	.word	0x40004400
 8003eb0:	007a1200 	.word	0x007a1200

08003eb4 <UART_AdvFeatureConfig>:
 8003eb4:	6a43      	ldr	r3, [r0, #36]	; 0x24
 8003eb6:	07da      	lsls	r2, r3, #31
 8003eb8:	b510      	push	{r4, lr}
 8003eba:	d506      	bpl.n	8003eca <UART_AdvFeatureConfig+0x16>
 8003ebc:	6801      	ldr	r1, [r0, #0]
 8003ebe:	6a84      	ldr	r4, [r0, #40]	; 0x28
 8003ec0:	684a      	ldr	r2, [r1, #4]
 8003ec2:	f422 3200 	bic.w	r2, r2, #131072	; 0x20000
 8003ec6:	4322      	orrs	r2, r4
 8003ec8:	604a      	str	r2, [r1, #4]
 8003eca:	079c      	lsls	r4, r3, #30
 8003ecc:	d506      	bpl.n	8003edc <UART_AdvFeatureConfig+0x28>
 8003ece:	6801      	ldr	r1, [r0, #0]
 8003ed0:	6ac4      	ldr	r4, [r0, #44]	; 0x2c
 8003ed2:	684a      	ldr	r2, [r1, #4]
 8003ed4:	f422 3280 	bic.w	r2, r2, #65536	; 0x10000
 8003ed8:	4322      	orrs	r2, r4
 8003eda:	604a      	str	r2, [r1, #4]
 8003edc:	0759      	lsls	r1, r3, #29
 8003ede:	d506      	bpl.n	8003eee <UART_AdvFeatureConfig+0x3a>
 8003ee0:	6801      	ldr	r1, [r0, #0]
 8003ee2:	6b04      	ldr	r4, [r0, #48]	; 0x30
 8003ee4:	684a      	ldr	r2, [r1, #4]
 8003ee6:	f422 2280 	bic.w	r2, r2, #262144	; 0x40000
 8003eea:	4322      	orrs	r2, r4
 8003eec:	604a      	str	r2, [r1, #4]
 8003eee:	071a      	lsls	r2, r3, #28
 8003ef0:	d506      	bpl.n	8003f00 <UART_AdvFeatureConfig+0x4c>
 8003ef2:	6801      	ldr	r1, [r0, #0]
 8003ef4:	6b44      	ldr	r4, [r0, #52]	; 0x34
 8003ef6:	684a      	ldr	r2, [r1, #4]
 8003ef8:	f422 4200 	bic.w	r2, r2, #32768	; 0x8000
 8003efc:	4322      	orrs	r2, r4
 8003efe:	604a      	str	r2, [r1, #4]
 8003f00:	06dc      	lsls	r4, r3, #27
 8003f02:	d506      	bpl.n	8003f12 <UART_AdvFeatureConfig+0x5e>
 8003f04:	6801      	ldr	r1, [r0, #0]
 8003f06:	6b84      	ldr	r4, [r0, #56]	; 0x38
 8003f08:	688a      	ldr	r2, [r1, #8]
 8003f0a:	f422 5280 	bic.w	r2, r2, #4096	; 0x1000
 8003f0e:	4322      	orrs	r2, r4
 8003f10:	608a      	str	r2, [r1, #8]
 8003f12:	0699      	lsls	r1, r3, #26
 8003f14:	d506      	bpl.n	8003f24 <UART_AdvFeatureConfig+0x70>
 8003f16:	6801      	ldr	r1, [r0, #0]
 8003f18:	6bc4      	ldr	r4, [r0, #60]	; 0x3c
 8003f1a:	688a      	ldr	r2, [r1, #8]
 8003f1c:	f422 5200 	bic.w	r2, r2, #8192	; 0x2000
 8003f20:	4322      	orrs	r2, r4
 8003f22:	608a      	str	r2, [r1, #8]
 8003f24:	065a      	lsls	r2, r3, #25
 8003f26:	d50f      	bpl.n	8003f48 <UART_AdvFeatureConfig+0x94>
 8003f28:	6801      	ldr	r1, [r0, #0]
 8003f2a:	6c04      	ldr	r4, [r0, #64]	; 0x40
 8003f2c:	684a      	ldr	r2, [r1, #4]
 8003f2e:	f422 1280 	bic.w	r2, r2, #1048576	; 0x100000
 8003f32:	4322      	orrs	r2, r4
 8003f34:	f5b4 1f80 	cmp.w	r4, #1048576	; 0x100000
 8003f38:	604a      	str	r2, [r1, #4]
 8003f3a:	d105      	bne.n	8003f48 <UART_AdvFeatureConfig+0x94>
 8003f3c:	684a      	ldr	r2, [r1, #4]
 8003f3e:	6c44      	ldr	r4, [r0, #68]	; 0x44
 8003f40:	f422 02c0 	bic.w	r2, r2, #6291456	; 0x600000
 8003f44:	4322      	orrs	r2, r4
 8003f46:	604a      	str	r2, [r1, #4]
 8003f48:	061b      	lsls	r3, r3, #24
 8003f4a:	d506      	bpl.n	8003f5a <UART_AdvFeatureConfig+0xa6>
 8003f4c:	6802      	ldr	r2, [r0, #0]
 8003f4e:	6c81      	ldr	r1, [r0, #72]	; 0x48
 8003f50:	6853      	ldr	r3, [r2, #4]
 8003f52:	f423 2300 	bic.w	r3, r3, #524288	; 0x80000
 8003f56:	430b      	orrs	r3, r1
 8003f58:	6053      	str	r3, [r2, #4]
 8003f5a:	bd10      	pop	{r4, pc}

08003f5c <UART_WaitOnFlagUntilTimeout>:
 8003f5c:	e92d 41f0 	stmdb	sp!, {r4, r5, r6, r7, r8, lr}
 8003f60:	f8dd 8018 	ldr.w	r8, [sp, #24]
 8003f64:	4604      	mov	r4, r0
 8003f66:	460e      	mov	r6, r1
 8003f68:	4615      	mov	r5, r2
 8003f6a:	461f      	mov	r7, r3
 8003f6c:	6822      	ldr	r2, [r4, #0]
 8003f6e:	69d3      	ldr	r3, [r2, #28]
 8003f70:	ea36 0303 	bics.w	r3, r6, r3
 8003f74:	bf0c      	ite	eq
 8003f76:	2301      	moveq	r3, #1
 8003f78:	2300      	movne	r3, #0
 8003f7a:	42ab      	cmp	r3, r5
 8003f7c:	d001      	beq.n	8003f82 <UART_WaitOnFlagUntilTimeout+0x26>
 8003f7e:	2000      	movs	r0, #0
 8003f80:	e025      	b.n	8003fce <UART_WaitOnFlagUntilTimeout+0x72>
 8003f82:	f1b8 3fff 	cmp.w	r8, #4294967295
 8003f86:	d0f2      	beq.n	8003f6e <UART_WaitOnFlagUntilTimeout+0x12>
 8003f88:	f7fe f8c8 	bl	800211c <HAL_GetTick>
 8003f8c:	1bc0      	subs	r0, r0, r7
 8003f8e:	4540      	cmp	r0, r8
 8003f90:	6820      	ldr	r0, [r4, #0]
 8003f92:	d802      	bhi.n	8003f9a <UART_WaitOnFlagUntilTimeout+0x3e>
 8003f94:	f1b8 0f00 	cmp.w	r8, #0
 8003f98:	d11b      	bne.n	8003fd2 <UART_WaitOnFlagUntilTimeout+0x76>
 8003f9a:	e850 3f00 	ldrex	r3, [r0]
 8003f9e:	f423 73d0 	bic.w	r3, r3, #416	; 0x1a0
 8003fa2:	e840 3200 	strex	r2, r3, [r0]
 8003fa6:	2a00      	cmp	r2, #0
 8003fa8:	d1f7      	bne.n	8003f9a <UART_WaitOnFlagUntilTimeout+0x3e>
 8003faa:	f100 0308 	add.w	r3, r0, #8
 8003fae:	e853 3f00 	ldrex	r3, [r3]
 8003fb2:	f023 0301 	bic.w	r3, r3, #1
 8003fb6:	f100 0108 	add.w	r1, r0, #8
 8003fba:	e841 3200 	strex	r2, r3, [r1]
 8003fbe:	2a00      	cmp	r2, #0
 8003fc0:	d1f3      	bne.n	8003faa <UART_WaitOnFlagUntilTimeout+0x4e>
 8003fc2:	2320      	movs	r3, #32
 8003fc4:	67a3      	str	r3, [r4, #120]	; 0x78
 8003fc6:	67e3      	str	r3, [r4, #124]	; 0x7c
 8003fc8:	f884 2074 	strb.w	r2, [r4, #116]	; 0x74
 8003fcc:	2003      	movs	r0, #3
 8003fce:	e8bd 81f0 	ldmia.w	sp!, {r4, r5, r6, r7, r8, pc}
 8003fd2:	6803      	ldr	r3, [r0, #0]
 8003fd4:	075a      	lsls	r2, r3, #29
 8003fd6:	d5c9      	bpl.n	8003f6c <UART_WaitOnFlagUntilTimeout+0x10>
 8003fd8:	69c3      	ldr	r3, [r0, #28]
 8003fda:	051b      	lsls	r3, r3, #20
 8003fdc:	d5c6      	bpl.n	8003f6c <UART_WaitOnFlagUntilTimeout+0x10>
 8003fde:	f44f 6300 	mov.w	r3, #2048	; 0x800
 8003fe2:	6203      	str	r3, [r0, #32]
 8003fe4:	e850 3f00 	ldrex	r3, [r0]
 8003fe8:	f423 73d0 	bic.w	r3, r3, #416	; 0x1a0
 8003fec:	e840 3200 	strex	r2, r3, [r0]
 8003ff0:	2a00      	cmp	r2, #0
 8003ff2:	d1f7      	bne.n	8003fe4 <UART_WaitOnFlagUntilTimeout+0x88>
 8003ff4:	f100 0308 	add.w	r3, r0, #8
 8003ff8:	e853 3f00 	ldrex	r3, [r3]
 8003ffc:	f023 0301 	bic.w	r3, r3, #1
 8004000:	f100 0108 	add.w	r1, r0, #8
 8004004:	e841 3200 	strex	r2, r3, [r1]
 8004008:	2a00      	cmp	r2, #0
 800400a:	d1f3      	bne.n	8003ff4 <UART_WaitOnFlagUntilTimeout+0x98>
 800400c:	2320      	movs	r3, #32
 800400e:	67a3      	str	r3, [r4, #120]	; 0x78
 8004010:	67e3      	str	r3, [r4, #124]	; 0x7c
 8004012:	f8c4 3080 	str.w	r3, [r4, #128]	; 0x80
 8004016:	e7d7      	b.n	8003fc8 <UART_WaitOnFlagUntilTimeout+0x6c>

08004018 <UART_CheckIdleState>:
 8004018:	b530      	push	{r4, r5, lr}
 800401a:	4604      	mov	r4, r0
 800401c:	2500      	movs	r5, #0
 800401e:	b085      	sub	sp, #20
 8004020:	f8c0 5080 	str.w	r5, [r0, #128]	; 0x80
 8004024:	f7fe f87a 	bl	800211c <HAL_GetTick>
 8004028:	6822      	ldr	r2, [r4, #0]
 800402a:	6812      	ldr	r2, [r2, #0]
 800402c:	0711      	lsls	r1, r2, #28
 800402e:	4603      	mov	r3, r0
 8004030:	d415      	bmi.n	800405e <UART_CheckIdleState+0x46>
 8004032:	6822      	ldr	r2, [r4, #0]
 8004034:	6812      	ldr	r2, [r2, #0]
 8004036:	0752      	lsls	r2, r2, #29
 8004038:	d509      	bpl.n	800404e <UART_CheckIdleState+0x36>
 800403a:	f06f 427e 	mvn.w	r2, #4261412864	; 0xfe000000
 800403e:	9200      	str	r2, [sp, #0]
 8004040:	f44f 0180 	mov.w	r1, #4194304	; 0x400000
 8004044:	2200      	movs	r2, #0
 8004046:	4620      	mov	r0, r4
 8004048:	f7ff ff88 	bl	8003f5c <UART_WaitOnFlagUntilTimeout>
 800404c:	b9a0      	cbnz	r0, 8004078 <UART_CheckIdleState+0x60>
 800404e:	2320      	movs	r3, #32
 8004050:	2000      	movs	r0, #0
 8004052:	67a3      	str	r3, [r4, #120]	; 0x78
 8004054:	f884 0074 	strb.w	r0, [r4, #116]	; 0x74
 8004058:	67e3      	str	r3, [r4, #124]	; 0x7c
 800405a:	6620      	str	r0, [r4, #96]	; 0x60
 800405c:	e00d      	b.n	800407a <UART_CheckIdleState+0x62>
 800405e:	f06f 427e 	mvn.w	r2, #4261412864	; 0xfe000000
 8004062:	9200      	str	r2, [sp, #0]
 8004064:	9003      	str	r0, [sp, #12]
 8004066:	462a      	mov	r2, r5
 8004068:	f44f 1100 	mov.w	r1, #2097152	; 0x200000
 800406c:	4620      	mov	r0, r4
 800406e:	f7ff ff75 	bl	8003f5c <UART_WaitOnFlagUntilTimeout>
 8004072:	9b03      	ldr	r3, [sp, #12]
 8004074:	2800      	cmp	r0, #0
 8004076:	d0dc      	beq.n	8004032 <UART_CheckIdleState+0x1a>
 8004078:	2003      	movs	r0, #3
 800407a:	b005      	add	sp, #20
 800407c:	bd30      	pop	{r4, r5, pc}

0800407e <HAL_UART_Init>:
 800407e:	b510      	push	{r4, lr}
 8004080:	4604      	mov	r4, r0
 8004082:	b340      	cbz	r0, 80040d6 <HAL_UART_Init+0x58>
 8004084:	6f83      	ldr	r3, [r0, #120]	; 0x78
 8004086:	b91b      	cbnz	r3, 8004090 <HAL_UART_Init+0x12>
 8004088:	f880 3074 	strb.w	r3, [r0, #116]	; 0x74
 800408c:	f7fd fb72 	bl	8001774 <HAL_UART_MspInit>
 8004090:	6822      	ldr	r2, [r4, #0]
 8004092:	2324      	movs	r3, #36	; 0x24
 8004094:	67a3      	str	r3, [r4, #120]	; 0x78
 8004096:	6813      	ldr	r3, [r2, #0]
 8004098:	f023 0301 	bic.w	r3, r3, #1
 800409c:	6013      	str	r3, [r2, #0]
 800409e:	4620      	mov	r0, r4
 80040a0:	f7ff fe6e 	bl	8003d80 <UART_SetConfig>
 80040a4:	2801      	cmp	r0, #1
 80040a6:	d016      	beq.n	80040d6 <HAL_UART_Init+0x58>
 80040a8:	6a63      	ldr	r3, [r4, #36]	; 0x24
 80040aa:	b113      	cbz	r3, 80040b2 <HAL_UART_Init+0x34>
 80040ac:	4620      	mov	r0, r4
 80040ae:	f7ff ff01 	bl	8003eb4 <UART_AdvFeatureConfig>
 80040b2:	6823      	ldr	r3, [r4, #0]
 80040b4:	685a      	ldr	r2, [r3, #4]
 80040b6:	f422 4290 	bic.w	r2, r2, #18432	; 0x4800
 80040ba:	605a      	str	r2, [r3, #4]
 80040bc:	689a      	ldr	r2, [r3, #8]
 80040be:	f022 022a 	bic.w	r2, r2, #42	; 0x2a
 80040c2:	609a      	str	r2, [r3, #8]
 80040c4:	681a      	ldr	r2, [r3, #0]
 80040c6:	f042 0201 	orr.w	r2, r2, #1
 80040ca:	4620      	mov	r0, r4
 80040cc:	601a      	str	r2, [r3, #0]
 80040ce:	e8bd 4010 	ldmia.w	sp!, {r4, lr}
 80040d2:	f7ff bfa1 	b.w	8004018 <UART_CheckIdleState>
 80040d6:	2001      	movs	r0, #1
 80040d8:	bd10      	pop	{r4, pc}
	...

080040dc <__errno>:
 80040dc:	4b01      	ldr	r3, [pc, #4]	; (80040e4 <__errno+0x8>)
 80040de:	6818      	ldr	r0, [r3, #0]
 80040e0:	4770      	bx	lr
 80040e2:	bf00      	nop
 80040e4:	20000040 	.word	0x20000040

080040e8 <__libc_init_array>:
 80040e8:	b570      	push	{r4, r5, r6, lr}
 80040ea:	4d0d      	ldr	r5, [pc, #52]	; (8004120 <__libc_init_array+0x38>)
 80040ec:	4c0d      	ldr	r4, [pc, #52]	; (8004124 <__libc_init_array+0x3c>)
 80040ee:	1b64      	subs	r4, r4, r5
 80040f0:	10a4      	asrs	r4, r4, #2
 80040f2:	2600      	movs	r6, #0
 80040f4:	42a6      	cmp	r6, r4
 80040f6:	d109      	bne.n	800410c <__libc_init_array+0x24>
 80040f8:	4d0b      	ldr	r5, [pc, #44]	; (8004128 <__libc_init_array+0x40>)
 80040fa:	4c0c      	ldr	r4, [pc, #48]	; (800412c <__libc_init_array+0x44>)
 80040fc:	f000 f9b0 	bl	8004460 <_init>
 8004100:	1b64      	subs	r4, r4, r5
 8004102:	10a4      	asrs	r4, r4, #2
 8004104:	2600      	movs	r6, #0
 8004106:	42a6      	cmp	r6, r4
 8004108:	d105      	bne.n	8004116 <__libc_init_array+0x2e>
 800410a:	bd70      	pop	{r4, r5, r6, pc}
 800410c:	f855 3b04 	ldr.w	r3, [r5], #4
 8004110:	4798      	blx	r3
 8004112:	3601      	adds	r6, #1
 8004114:	e7ee      	b.n	80040f4 <__libc_init_array+0xc>
 8004116:	f855 3b04 	ldr.w	r3, [r5], #4
 800411a:	4798      	blx	r3
 800411c:	3601      	adds	r6, #1
 800411e:	e7f2      	b.n	8004106 <__libc_init_array+0x1e>
 8004120:	08004568 	.word	0x08004568
 8004124:	08004568 	.word	0x08004568
 8004128:	08004568 	.word	0x08004568
 800412c:	0800456c 	.word	0x0800456c

08004130 <__itoa>:
 8004130:	1e93      	subs	r3, r2, #2
 8004132:	2b22      	cmp	r3, #34	; 0x22
 8004134:	b510      	push	{r4, lr}
 8004136:	460c      	mov	r4, r1
 8004138:	d904      	bls.n	8004144 <__itoa+0x14>
 800413a:	2300      	movs	r3, #0
 800413c:	700b      	strb	r3, [r1, #0]
 800413e:	461c      	mov	r4, r3
 8004140:	4620      	mov	r0, r4
 8004142:	bd10      	pop	{r4, pc}
 8004144:	2a0a      	cmp	r2, #10
 8004146:	d109      	bne.n	800415c <__itoa+0x2c>
 8004148:	2800      	cmp	r0, #0
 800414a:	da07      	bge.n	800415c <__itoa+0x2c>
 800414c:	232d      	movs	r3, #45	; 0x2d
 800414e:	700b      	strb	r3, [r1, #0]
 8004150:	4240      	negs	r0, r0
 8004152:	2101      	movs	r1, #1
 8004154:	4421      	add	r1, r4
 8004156:	f000 f933 	bl	80043c0 <__utoa>
 800415a:	e7f1      	b.n	8004140 <__itoa+0x10>
 800415c:	2100      	movs	r1, #0
 800415e:	e7f9      	b.n	8004154 <__itoa+0x24>

08004160 <itoa>:
 8004160:	f7ff bfe6 	b.w	8004130 <__itoa>

08004164 <malloc>:
 8004164:	4b02      	ldr	r3, [pc, #8]	; (8004170 <malloc+0xc>)
 8004166:	4601      	mov	r1, r0
 8004168:	6818      	ldr	r0, [r3, #0]
 800416a:	f000 b88d 	b.w	8004288 <_malloc_r>
 800416e:	bf00      	nop
 8004170:	20000040 	.word	0x20000040

08004174 <free>:
 8004174:	4b02      	ldr	r3, [pc, #8]	; (8004180 <free+0xc>)
 8004176:	4601      	mov	r1, r0
 8004178:	6818      	ldr	r0, [r3, #0]
 800417a:	f000 b819 	b.w	80041b0 <_free_r>
 800417e:	bf00      	nop
 8004180:	20000040 	.word	0x20000040

08004184 <memcpy>:
 8004184:	440a      	add	r2, r1
 8004186:	4291      	cmp	r1, r2
 8004188:	f100 33ff 	add.w	r3, r0, #4294967295
 800418c:	d100      	bne.n	8004190 <memcpy+0xc>
 800418e:	4770      	bx	lr
 8004190:	b510      	push	{r4, lr}
 8004192:	f811 4b01 	ldrb.w	r4, [r1], #1
 8004196:	f803 4f01 	strb.w	r4, [r3, #1]!
 800419a:	4291      	cmp	r1, r2
 800419c:	d1f9      	bne.n	8004192 <memcpy+0xe>
 800419e:	bd10      	pop	{r4, pc}

080041a0 <memset>:
 80041a0:	4402      	add	r2, r0
 80041a2:	4603      	mov	r3, r0
 80041a4:	4293      	cmp	r3, r2
 80041a6:	d100      	bne.n	80041aa <memset+0xa>
 80041a8:	4770      	bx	lr
 80041aa:	f803 1b01 	strb.w	r1, [r3], #1
 80041ae:	e7f9      	b.n	80041a4 <memset+0x4>

080041b0 <_free_r>:
 80041b0:	b537      	push	{r0, r1, r2, r4, r5, lr}
 80041b2:	2900      	cmp	r1, #0
 80041b4:	d044      	beq.n	8004240 <_free_r+0x90>
 80041b6:	f851 3c04 	ldr.w	r3, [r1, #-4]
 80041ba:	9001      	str	r0, [sp, #4]
 80041bc:	2b00      	cmp	r3, #0
 80041be:	f1a1 0404 	sub.w	r4, r1, #4
 80041c2:	bfb8      	it	lt
 80041c4:	18e4      	addlt	r4, r4, r3
 80041c6:	f000 f93d 	bl	8004444 <__malloc_lock>
 80041ca:	4a1e      	ldr	r2, [pc, #120]	; (8004244 <_free_r+0x94>)
 80041cc:	9801      	ldr	r0, [sp, #4]
 80041ce:	6813      	ldr	r3, [r2, #0]
 80041d0:	b933      	cbnz	r3, 80041e0 <_free_r+0x30>
 80041d2:	6063      	str	r3, [r4, #4]
 80041d4:	6014      	str	r4, [r2, #0]
 80041d6:	b003      	add	sp, #12
 80041d8:	e8bd 4030 	ldmia.w	sp!, {r4, r5, lr}
 80041dc:	f000 b938 	b.w	8004450 <__malloc_unlock>
 80041e0:	42a3      	cmp	r3, r4
 80041e2:	d908      	bls.n	80041f6 <_free_r+0x46>
 80041e4:	6825      	ldr	r5, [r4, #0]
 80041e6:	1961      	adds	r1, r4, r5
 80041e8:	428b      	cmp	r3, r1
 80041ea:	bf01      	itttt	eq
 80041ec:	6819      	ldreq	r1, [r3, #0]
 80041ee:	685b      	ldreq	r3, [r3, #4]
 80041f0:	1949      	addeq	r1, r1, r5
 80041f2:	6021      	streq	r1, [r4, #0]
 80041f4:	e7ed      	b.n	80041d2 <_free_r+0x22>
 80041f6:	461a      	mov	r2, r3
 80041f8:	685b      	ldr	r3, [r3, #4]
 80041fa:	b10b      	cbz	r3, 8004200 <_free_r+0x50>
 80041fc:	42a3      	cmp	r3, r4
 80041fe:	d9fa      	bls.n	80041f6 <_free_r+0x46>
 8004200:	6811      	ldr	r1, [r2, #0]
 8004202:	1855      	adds	r5, r2, r1
 8004204:	42a5      	cmp	r5, r4
 8004206:	d10b      	bne.n	8004220 <_free_r+0x70>
 8004208:	6824      	ldr	r4, [r4, #0]
 800420a:	4421      	add	r1, r4
 800420c:	1854      	adds	r4, r2, r1
 800420e:	42a3      	cmp	r3, r4
 8004210:	6011      	str	r1, [r2, #0]
 8004212:	d1e0      	bne.n	80041d6 <_free_r+0x26>
 8004214:	681c      	ldr	r4, [r3, #0]
 8004216:	685b      	ldr	r3, [r3, #4]
 8004218:	6053      	str	r3, [r2, #4]
 800421a:	4421      	add	r1, r4
 800421c:	6011      	str	r1, [r2, #0]
 800421e:	e7da      	b.n	80041d6 <_free_r+0x26>
 8004220:	d902      	bls.n	8004228 <_free_r+0x78>
 8004222:	230c      	movs	r3, #12
 8004224:	6003      	str	r3, [r0, #0]
 8004226:	e7d6      	b.n	80041d6 <_free_r+0x26>
 8004228:	6825      	ldr	r5, [r4, #0]
 800422a:	1961      	adds	r1, r4, r5
 800422c:	428b      	cmp	r3, r1
 800422e:	bf04      	itt	eq
 8004230:	6819      	ldreq	r1, [r3, #0]
 8004232:	685b      	ldreq	r3, [r3, #4]
 8004234:	6063      	str	r3, [r4, #4]
 8004236:	bf04      	itt	eq
 8004238:	1949      	addeq	r1, r1, r5
 800423a:	6021      	streq	r1, [r4, #0]
 800423c:	6054      	str	r4, [r2, #4]
 800423e:	e7ca      	b.n	80041d6 <_free_r+0x26>
 8004240:	b003      	add	sp, #12
 8004242:	bd30      	pop	{r4, r5, pc}
 8004244:	20000e38 	.word	0x20000e38

08004248 <sbrk_aligned>:
 8004248:	b570      	push	{r4, r5, r6, lr}
 800424a:	4e0e      	ldr	r6, [pc, #56]	; (8004284 <sbrk_aligned+0x3c>)
 800424c:	460c      	mov	r4, r1
 800424e:	6831      	ldr	r1, [r6, #0]
 8004250:	4605      	mov	r5, r0
 8004252:	b911      	cbnz	r1, 800425a <sbrk_aligned+0x12>
 8004254:	f000 f88c 	bl	8004370 <_sbrk_r>
 8004258:	6030      	str	r0, [r6, #0]
 800425a:	4621      	mov	r1, r4
 800425c:	4628      	mov	r0, r5
 800425e:	f000 f887 	bl	8004370 <_sbrk_r>
 8004262:	1c43      	adds	r3, r0, #1
 8004264:	d00a      	beq.n	800427c <sbrk_aligned+0x34>
 8004266:	1cc4      	adds	r4, r0, #3
 8004268:	f024 0403 	bic.w	r4, r4, #3
 800426c:	42a0      	cmp	r0, r4
 800426e:	d007      	beq.n	8004280 <sbrk_aligned+0x38>
 8004270:	1a21      	subs	r1, r4, r0
 8004272:	4628      	mov	r0, r5
 8004274:	f000 f87c 	bl	8004370 <_sbrk_r>
 8004278:	3001      	adds	r0, #1
 800427a:	d101      	bne.n	8004280 <sbrk_aligned+0x38>
 800427c:	f04f 34ff 	mov.w	r4, #4294967295
 8004280:	4620      	mov	r0, r4
 8004282:	bd70      	pop	{r4, r5, r6, pc}
 8004284:	20000e3c 	.word	0x20000e3c

08004288 <_malloc_r>:
 8004288:	e92d 41f0 	stmdb	sp!, {r4, r5, r6, r7, r8, lr}
 800428c:	1ccd      	adds	r5, r1, #3
 800428e:	f025 0503 	bic.w	r5, r5, #3
 8004292:	3508      	adds	r5, #8
 8004294:	2d0c      	cmp	r5, #12
 8004296:	bf38      	it	cc
 8004298:	250c      	movcc	r5, #12
 800429a:	2d00      	cmp	r5, #0
 800429c:	4607      	mov	r7, r0
 800429e:	db01      	blt.n	80042a4 <_malloc_r+0x1c>
 80042a0:	42a9      	cmp	r1, r5
 80042a2:	d905      	bls.n	80042b0 <_malloc_r+0x28>
 80042a4:	230c      	movs	r3, #12
 80042a6:	603b      	str	r3, [r7, #0]
 80042a8:	2600      	movs	r6, #0
 80042aa:	4630      	mov	r0, r6
 80042ac:	e8bd 81f0 	ldmia.w	sp!, {r4, r5, r6, r7, r8, pc}
 80042b0:	4e2e      	ldr	r6, [pc, #184]	; (800436c <_malloc_r+0xe4>)
 80042b2:	f000 f8c7 	bl	8004444 <__malloc_lock>
 80042b6:	6833      	ldr	r3, [r6, #0]
 80042b8:	461c      	mov	r4, r3
 80042ba:	bb34      	cbnz	r4, 800430a <_malloc_r+0x82>
 80042bc:	4629      	mov	r1, r5
 80042be:	4638      	mov	r0, r7
 80042c0:	f7ff ffc2 	bl	8004248 <sbrk_aligned>
 80042c4:	1c43      	adds	r3, r0, #1
 80042c6:	4604      	mov	r4, r0
 80042c8:	d14d      	bne.n	8004366 <_malloc_r+0xde>
 80042ca:	6834      	ldr	r4, [r6, #0]
 80042cc:	4626      	mov	r6, r4
 80042ce:	2e00      	cmp	r6, #0
 80042d0:	d140      	bne.n	8004354 <_malloc_r+0xcc>
 80042d2:	6823      	ldr	r3, [r4, #0]
 80042d4:	4631      	mov	r1, r6
 80042d6:	4638      	mov	r0, r7
 80042d8:	eb04 0803 	add.w	r8, r4, r3
 80042dc:	f000 f848 	bl	8004370 <_sbrk_r>
 80042e0:	4580      	cmp	r8, r0
 80042e2:	d13a      	bne.n	800435a <_malloc_r+0xd2>
 80042e4:	6821      	ldr	r1, [r4, #0]
 80042e6:	3503      	adds	r5, #3
 80042e8:	1a6d      	subs	r5, r5, r1
 80042ea:	f025 0503 	bic.w	r5, r5, #3
 80042ee:	3508      	adds	r5, #8
 80042f0:	2d0c      	cmp	r5, #12
 80042f2:	bf38      	it	cc
 80042f4:	250c      	movcc	r5, #12
 80042f6:	4629      	mov	r1, r5
 80042f8:	4638      	mov	r0, r7
 80042fa:	f7ff ffa5 	bl	8004248 <sbrk_aligned>
 80042fe:	3001      	adds	r0, #1
 8004300:	d02b      	beq.n	800435a <_malloc_r+0xd2>
 8004302:	6823      	ldr	r3, [r4, #0]
 8004304:	442b      	add	r3, r5
 8004306:	6023      	str	r3, [r4, #0]
 8004308:	e00e      	b.n	8004328 <_malloc_r+0xa0>
 800430a:	6822      	ldr	r2, [r4, #0]
 800430c:	1b52      	subs	r2, r2, r5
 800430e:	d41e      	bmi.n	800434e <_malloc_r+0xc6>
 8004310:	2a0b      	cmp	r2, #11
 8004312:	d916      	bls.n	8004342 <_malloc_r+0xba>
 8004314:	1961      	adds	r1, r4, r5
 8004316:	42a3      	cmp	r3, r4
 8004318:	6025      	str	r5, [r4, #0]
 800431a:	bf18      	it	ne
 800431c:	6059      	strne	r1, [r3, #4]
 800431e:	6863      	ldr	r3, [r4, #4]
 8004320:	bf08      	it	eq
 8004322:	6031      	streq	r1, [r6, #0]
 8004324:	5162      	str	r2, [r4, r5]
 8004326:	604b      	str	r3, [r1, #4]
 8004328:	4638      	mov	r0, r7
 800432a:	f104 060b 	add.w	r6, r4, #11
 800432e:	f000 f88f 	bl	8004450 <__malloc_unlock>
 8004332:	f026 0607 	bic.w	r6, r6, #7
 8004336:	1d23      	adds	r3, r4, #4
 8004338:	1af2      	subs	r2, r6, r3
 800433a:	d0b6      	beq.n	80042aa <_malloc_r+0x22>
 800433c:	1b9b      	subs	r3, r3, r6
 800433e:	50a3      	str	r3, [r4, r2]
 8004340:	e7b3      	b.n	80042aa <_malloc_r+0x22>
 8004342:	6862      	ldr	r2, [r4, #4]
 8004344:	42a3      	cmp	r3, r4
 8004346:	bf0c      	ite	eq
 8004348:	6032      	streq	r2, [r6, #0]
 800434a:	605a      	strne	r2, [r3, #4]
 800434c:	e7ec      	b.n	8004328 <_malloc_r+0xa0>
 800434e:	4623      	mov	r3, r4
 8004350:	6864      	ldr	r4, [r4, #4]
 8004352:	e7b2      	b.n	80042ba <_malloc_r+0x32>
 8004354:	4634      	mov	r4, r6
 8004356:	6876      	ldr	r6, [r6, #4]
 8004358:	e7b9      	b.n	80042ce <_malloc_r+0x46>
 800435a:	230c      	movs	r3, #12
 800435c:	603b      	str	r3, [r7, #0]
 800435e:	4638      	mov	r0, r7
 8004360:	f000 f876 	bl	8004450 <__malloc_unlock>
 8004364:	e7a1      	b.n	80042aa <_malloc_r+0x22>
 8004366:	6025      	str	r5, [r4, #0]
 8004368:	e7de      	b.n	8004328 <_malloc_r+0xa0>
 800436a:	bf00      	nop
 800436c:	20000e38 	.word	0x20000e38

08004370 <_sbrk_r>:
 8004370:	b538      	push	{r3, r4, r5, lr}
 8004372:	4d06      	ldr	r5, [pc, #24]	; (800438c <_sbrk_r+0x1c>)
 8004374:	2300      	movs	r3, #0
 8004376:	4604      	mov	r4, r0
 8004378:	4608      	mov	r0, r1
 800437a:	602b      	str	r3, [r5, #0]
 800437c:	f7fd fa56 	bl	800182c <_sbrk>
 8004380:	1c43      	adds	r3, r0, #1
 8004382:	d102      	bne.n	800438a <_sbrk_r+0x1a>
 8004384:	682b      	ldr	r3, [r5, #0]
 8004386:	b103      	cbz	r3, 800438a <_sbrk_r+0x1a>
 8004388:	6023      	str	r3, [r4, #0]
 800438a:	bd38      	pop	{r3, r4, r5, pc}
 800438c:	20000e40 	.word	0x20000e40

08004390 <strcat>:
 8004390:	b510      	push	{r4, lr}
 8004392:	4602      	mov	r2, r0
 8004394:	7814      	ldrb	r4, [r2, #0]
 8004396:	4613      	mov	r3, r2
 8004398:	3201      	adds	r2, #1
 800439a:	2c00      	cmp	r4, #0
 800439c:	d1fa      	bne.n	8004394 <strcat+0x4>
 800439e:	3b01      	subs	r3, #1
 80043a0:	f811 2b01 	ldrb.w	r2, [r1], #1
 80043a4:	f803 2f01 	strb.w	r2, [r3, #1]!
 80043a8:	2a00      	cmp	r2, #0
 80043aa:	d1f9      	bne.n	80043a0 <strcat+0x10>
 80043ac:	bd10      	pop	{r4, pc}

080043ae <strcpy>:
 80043ae:	4603      	mov	r3, r0
 80043b0:	f811 2b01 	ldrb.w	r2, [r1], #1
 80043b4:	f803 2b01 	strb.w	r2, [r3], #1
 80043b8:	2a00      	cmp	r2, #0
 80043ba:	d1f9      	bne.n	80043b0 <strcpy+0x2>
 80043bc:	4770      	bx	lr
	...

080043c0 <__utoa>:
 80043c0:	b5f0      	push	{r4, r5, r6, r7, lr}
 80043c2:	4c1f      	ldr	r4, [pc, #124]	; (8004440 <__utoa+0x80>)
 80043c4:	b08b      	sub	sp, #44	; 0x2c
 80043c6:	4605      	mov	r5, r0
 80043c8:	460b      	mov	r3, r1
 80043ca:	466e      	mov	r6, sp
 80043cc:	f104 0c20 	add.w	ip, r4, #32
 80043d0:	6820      	ldr	r0, [r4, #0]
 80043d2:	6861      	ldr	r1, [r4, #4]
 80043d4:	4637      	mov	r7, r6
 80043d6:	c703      	stmia	r7!, {r0, r1}
 80043d8:	3408      	adds	r4, #8
 80043da:	4564      	cmp	r4, ip
 80043dc:	463e      	mov	r6, r7
 80043de:	d1f7      	bne.n	80043d0 <__utoa+0x10>
 80043e0:	7921      	ldrb	r1, [r4, #4]
 80043e2:	7139      	strb	r1, [r7, #4]
 80043e4:	1e91      	subs	r1, r2, #2
 80043e6:	6820      	ldr	r0, [r4, #0]
 80043e8:	6038      	str	r0, [r7, #0]
 80043ea:	2922      	cmp	r1, #34	; 0x22
 80043ec:	f04f 0100 	mov.w	r1, #0
 80043f0:	d904      	bls.n	80043fc <__utoa+0x3c>
 80043f2:	7019      	strb	r1, [r3, #0]
 80043f4:	460b      	mov	r3, r1
 80043f6:	4618      	mov	r0, r3
 80043f8:	b00b      	add	sp, #44	; 0x2c
 80043fa:	bdf0      	pop	{r4, r5, r6, r7, pc}
 80043fc:	1e58      	subs	r0, r3, #1
 80043fe:	4684      	mov	ip, r0
 8004400:	fbb5 f7f2 	udiv	r7, r5, r2
 8004404:	fb02 5617 	mls	r6, r2, r7, r5
 8004408:	3628      	adds	r6, #40	; 0x28
 800440a:	446e      	add	r6, sp
 800440c:	460c      	mov	r4, r1
 800440e:	f816 6c28 	ldrb.w	r6, [r6, #-40]
 8004412:	f80c 6f01 	strb.w	r6, [ip, #1]!
 8004416:	462e      	mov	r6, r5
 8004418:	42b2      	cmp	r2, r6
 800441a:	f101 0101 	add.w	r1, r1, #1
 800441e:	463d      	mov	r5, r7
 8004420:	d9ee      	bls.n	8004400 <__utoa+0x40>
 8004422:	2200      	movs	r2, #0
 8004424:	545a      	strb	r2, [r3, r1]
 8004426:	1919      	adds	r1, r3, r4
 8004428:	1aa5      	subs	r5, r4, r2
 800442a:	42aa      	cmp	r2, r5
 800442c:	dae3      	bge.n	80043f6 <__utoa+0x36>
 800442e:	f810 5f01 	ldrb.w	r5, [r0, #1]!
 8004432:	780e      	ldrb	r6, [r1, #0]
 8004434:	7006      	strb	r6, [r0, #0]
 8004436:	3201      	adds	r2, #1
 8004438:	f801 5901 	strb.w	r5, [r1], #-1
 800443c:	e7f4      	b.n	8004428 <__utoa+0x68>
 800443e:	bf00      	nop
 8004440:	08004541 	.word	0x08004541

08004444 <__malloc_lock>:
 8004444:	4801      	ldr	r0, [pc, #4]	; (800444c <__malloc_lock+0x8>)
 8004446:	f000 b809 	b.w	800445c <__retarget_lock_acquire_recursive>
 800444a:	bf00      	nop
 800444c:	20000e44 	.word	0x20000e44

08004450 <__malloc_unlock>:
 8004450:	4801      	ldr	r0, [pc, #4]	; (8004458 <__malloc_unlock+0x8>)
 8004452:	f000 b804 	b.w	800445e <__retarget_lock_release_recursive>
 8004456:	bf00      	nop
 8004458:	20000e44 	.word	0x20000e44

0800445c <__retarget_lock_acquire_recursive>:
 800445c:	4770      	bx	lr

0800445e <__retarget_lock_release_recursive>:
 800445e:	4770      	bx	lr

08004460 <_init>:
 8004460:	b5f8      	push	{r3, r4, r5, r6, r7, lr}
 8004462:	bf00      	nop
 8004464:	bcf8      	pop	{r3, r4, r5, r6, r7}
 8004466:	bc08      	pop	{r3}
 8004468:	469e      	mov	lr, r3
 800446a:	4770      	bx	lr

0800446c <_fini>:
 800446c:	b5f8      	push	{r3, r4, r5, r6, r7, lr}
 800446e:	bf00      	nop
 8004470:	bcf8      	pop	{r3, r4, r5, r6, r7}
 8004472:	bc08      	pop	{r3}
 8004474:	469e      	mov	lr, r3
 8004476:	4770      	bx	lr
